
Command.elf:     file format elf32-avr32

Sections:
Idx Name          Size      VMA       LMA       File off  Algn
  0 .reset        00002004  80000000  80000000  00000400  2**2
                  CONTENTS, ALLOC, LOAD, READONLY, CODE
  1 .rela.got     00000000  80002004  80002004  00002404  2**2
                  CONTENTS, ALLOC, LOAD, READONLY, DATA
  2 .text         000057ee  80002004  80002004  00002404  2**2
                  CONTENTS, ALLOC, LOAD, READONLY, CODE
  3 .exception    00000200  80007800  80007800  00007c00  2**9
                  CONTENTS, ALLOC, LOAD, READONLY, CODE
  4 .rodata       000035f8  80007a00  80007a00  00007e00  2**2
                  CONTENTS, ALLOC, LOAD, READONLY, DATA
  5 .data         000006d0  00000004  8000aff8  0000b404  2**2
                  CONTENTS, ALLOC, LOAD, DATA
  6 .balign       00000004  000006d4  8000b6c8  0000bad4  2**0
                  ALLOC
  7 .bss          000012d0  000006d8  8000b6c8  0000bad8  2**2
                  ALLOC
  8 .comment      00000030  00000000  00000000  0000bad4  2**0
                  CONTENTS, READONLY
  9 .debug_aranges 00000e08  00000000  00000000  0000bb08  2**3
                  CONTENTS, READONLY, DEBUGGING
 10 .debug_pubnames 00002520  00000000  00000000  0000c910  2**0
                  CONTENTS, READONLY, DEBUGGING
 11 .debug_info   000184c9  00000000  00000000  0000ee30  2**0
                  CONTENTS, READONLY, DEBUGGING
 12 .debug_abbrev 000034f9  00000000  00000000  000272f9  2**0
                  CONTENTS, READONLY, DEBUGGING
 13 .debug_line   0000ea0f  00000000  00000000  0002a7f2  2**0
                  CONTENTS, READONLY, DEBUGGING
 14 .debug_frame  000029fc  00000000  00000000  00039204  2**2
                  CONTENTS, READONLY, DEBUGGING
 15 .debug_str    0000459f  00000000  00000000  0003bc00  2**0
                  CONTENTS, READONLY, DEBUGGING
 16 .debug_loc    00006628  00000000  00000000  0004019f  2**0
                  CONTENTS, READONLY, DEBUGGING
 17 .debug_macinfo 01549082  00000000  00000000  000467c7  2**0
                  CONTENTS, READONLY, DEBUGGING
 18 .stack        00001000  0000f000  0000f000  00000400  2**0
                  ALLOC
 19 .debug_ranges 00000ec0  00000000  00000000  0158f850  2**3
                  CONTENTS, READONLY, DEBUGGING

Disassembly of section .reset:

80000000 <_trampoline>:
80000000:	e0 8f 10 00 	bral	80002000 <program_start>
	...

80002000 <program_start>:
80002000:	fe cf e8 94 	sub	pc,pc,-5996

Disassembly of section .text:

80002004 <sd_mmc_spi_get_capacity>:
80002004:	d4 01       	pushm	lr
80002006:	4c 18       	lddpc	r8,80002108 <sd_mmc_spi_get_capacity+0x104>
80002008:	11 db       	ld.ub	r11,r8[0x5]
8000200a:	4c 18       	lddpc	r8,8000210c <sd_mmc_spi_get_capacity+0x108>
8000200c:	11 8a       	ld.ub	r10,r8[0x0]
8000200e:	30 38       	mov	r8,3
80002010:	f0 0a 18 00 	cp.b	r10,r8
80002014:	c2 71       	brne	80002062 <sd_mmc_spi_get_capacity+0x5e>
80002016:	4b d8       	lddpc	r8,80002108 <sd_mmc_spi_get_capacity+0x104>
80002018:	f1 3a 00 08 	ld.ub	r10,r8[8]
8000201c:	f1 39 00 09 	ld.ub	r9,r8[9]
80002020:	f3 ea 10 89 	or	r9,r9,r10<<0x8
80002024:	11 fa       	ld.ub	r10,r8[0x7]
80002026:	f5 da c0 06 	bfextu	r10,r10,0x0,0x6
8000202a:	f3 ea 11 0a 	or	r10,r9,r10<<0x10
8000202e:	2f fa       	sub	r10,-1
80002030:	f4 0b 16 0d 	lsr	r11,r10,0xd
80002034:	16 99       	mov	r9,r11
80002036:	f4 08 15 13 	lsl	r8,r10,0x13
8000203a:	4b 6a       	lddpc	r10,80002110 <sd_mmc_spi_get_capacity+0x10c>
8000203c:	f4 e9 00 00 	st.d	r10[0],r8
80002040:	f7 db c0 09 	bfextu	r11,r11,0x0,0x9
80002044:	4b 48       	lddpc	r8,80002114 <sd_mmc_spi_get_capacity+0x110>
80002046:	b0 0b       	st.h	r8[0x0],r11
80002048:	f4 ea 00 00 	ld.d	r10,r10[0]
8000204c:	90 09       	ld.sh	r9,r8[0x0]
8000204e:	f4 08 16 09 	lsr	r8,r10,0x9
80002052:	f1 eb 11 78 	or	r8,r8,r11<<0x17
80002056:	20 18       	sub	r8,1
80002058:	b7 79       	lsl	r9,0x17
8000205a:	12 08       	add	r8,r9
8000205c:	4a f9       	lddpc	r9,80002118 <sd_mmc_spi_get_capacity+0x114>
8000205e:	93 08       	st.w	r9[0x0],r8
80002060:	c4 28       	rjmp	800020e4 <sd_mmc_spi_get_capacity+0xe0>
80002062:	4a a8       	lddpc	r8,80002108 <sd_mmc_spi_get_capacity+0x104>
80002064:	f1 3c 00 0a 	ld.ub	r12,r8[10]
80002068:	f1 39 00 08 	ld.ub	r9,r8[8]
8000206c:	a7 89       	lsr	r9,0x6
8000206e:	11 fe       	ld.ub	lr,r8[0x7]
80002070:	f2 0e 00 29 	add	r9,r9,lr<<0x2
80002074:	11 ee       	ld.ub	lr,r8[0x6]
80002076:	fd de c0 02 	bfextu	lr,lr,0x0,0x2
8000207a:	ab 6e       	lsl	lr,0xa
8000207c:	1c 09       	add	r9,lr
8000207e:	2f f9       	sub	r9,-1
80002080:	f1 38 00 09 	ld.ub	r8,r8[9]
80002084:	f1 d8 c0 02 	bfextu	r8,r8,0x0,0x2
80002088:	f8 0e 16 07 	lsr	lr,r12,0x7
8000208c:	fc 08 00 18 	add	r8,lr,r8<<0x1
80002090:	2f e8       	sub	r8,-2
80002092:	f2 08 09 49 	lsl	r9,r9,r8
80002096:	20 19       	sub	r9,1
80002098:	4a 08       	lddpc	r8,80002118 <sd_mmc_spi_get_capacity+0x114>
8000209a:	91 09       	st.w	r8[0x0],r9
8000209c:	70 0e       	ld.w	lr,r8[0x0]
8000209e:	f7 db c0 04 	bfextu	r11,r11,0x0,0x4
800020a2:	2f fe       	sub	lr,-1
800020a4:	fc 0b 09 48 	lsl	r8,lr,r11
800020a8:	30 09       	mov	r9,0
800020aa:	49 ae       	lddpc	lr,80002110 <sd_mmc_spi_get_capacity+0x10c>
800020ac:	fc e9 00 00 	st.d	lr[0],r8
800020b0:	49 98       	lddpc	r8,80002114 <sd_mmc_spi_get_capacity+0x110>
800020b2:	b0 09       	st.h	r8[0x0],r9
800020b4:	30 98       	mov	r8,9
800020b6:	f0 0b 18 00 	cp.b	r11,r8
800020ba:	e0 88 00 08 	brls	800020ca <sd_mmc_spi_get_capacity+0xc6>
800020be:	49 78       	lddpc	r8,80002118 <sd_mmc_spi_get_capacity+0x114>
800020c0:	70 09       	ld.w	r9,r8[0x0]
800020c2:	20 9b       	sub	r11,9
800020c4:	f2 0b 09 4b 	lsl	r11,r9,r11
800020c8:	91 0b       	st.w	r8[0x0],r11
800020ca:	58 0a       	cp.w	r10,0
800020cc:	c0 c1       	brne	800020e4 <sd_mmc_spi_get_capacity+0xe0>
800020ce:	f1 dc c0 45 	bfextu	r8,r12,0x2,0x5
800020d2:	f9 dc c0 02 	bfextu	r12,r12,0x0,0x2
800020d6:	48 d9       	lddpc	r9,80002108 <sd_mmc_spi_get_capacity+0x104>
800020d8:	f3 39 00 0b 	ld.ub	r9,r9[11]
800020dc:	a3 7c       	lsl	r12,0x3
800020de:	f9 e9 12 59 	or	r9,r12,r9>>0x5
800020e2:	c0 c8       	rjmp	800020fa <sd_mmc_spi_get_capacity+0xf6>
800020e4:	48 9a       	lddpc	r10,80002108 <sd_mmc_spi_get_capacity+0x104>
800020e6:	f5 39 00 0a 	ld.ub	r9,r10[10]
800020ea:	f3 d9 c0 06 	bfextu	r9,r9,0x0,0x6
800020ee:	f5 38 00 0b 	ld.ub	r8,r10[11]
800020f2:	a7 98       	lsr	r8,0x7
800020f4:	f0 09 00 18 	add	r8,r8,r9<<0x1
800020f8:	30 09       	mov	r9,0
800020fa:	2f f9       	sub	r9,-1
800020fc:	2f f8       	sub	r8,-1
800020fe:	b1 39       	mul	r9,r8
80002100:	48 78       	lddpc	r8,8000211c <sd_mmc_spi_get_capacity+0x118>
80002102:	b0 09       	st.h	r8[0x0],r9
80002104:	d8 02       	popm	pc
80002106:	00 00       	add	r0,r0
80002108:	00 00       	add	r0,r0
8000210a:	0a 48       	or	r8,r5
8000210c:	00 00       	add	r0,r0
8000210e:	0a 46       	or	r6,r5
80002110:	00 00       	add	r0,r0
80002112:	0a 34       	cp.w	r4,r5
80002114:	00 00       	add	r0,r0
80002116:	0a 3c       	cp.w	r12,r5
80002118:	00 00       	add	r0,r0
8000211a:	0a 40       	or	r0,r5
8000211c:	00 00       	add	r0,r0
8000211e:	0a 3e       	cp.w	lr,r5

80002120 <sd_mmc_spi_read_close_PDCA>:
80002120:	d4 01       	pushm	lr
80002122:	e0 6b 00 ff 	mov	r11,255
80002126:	fe 7c 28 00 	mov	r12,-55296
8000212a:	f0 1f 00 0e 	mcall	80002160 <sd_mmc_spi_read_close_PDCA+0x40>
8000212e:	e0 6b 00 ff 	mov	r11,255
80002132:	fe 7c 28 00 	mov	r12,-55296
80002136:	f0 1f 00 0b 	mcall	80002160 <sd_mmc_spi_read_close_PDCA+0x40>
8000213a:	e0 6b 00 ff 	mov	r11,255
8000213e:	fe 7c 28 00 	mov	r12,-55296
80002142:	f0 1f 00 08 	mcall	80002160 <sd_mmc_spi_read_close_PDCA+0x40>
80002146:	e0 6b 00 ff 	mov	r11,255
8000214a:	fe 7c 28 00 	mov	r12,-55296
8000214e:	f0 1f 00 05 	mcall	80002160 <sd_mmc_spi_read_close_PDCA+0x40>
80002152:	30 1b       	mov	r11,1
80002154:	fe 7c 28 00 	mov	r12,-55296
80002158:	f0 1f 00 03 	mcall	80002164 <sd_mmc_spi_read_close_PDCA+0x44>
8000215c:	d8 02       	popm	pc
8000215e:	00 00       	add	r0,r0
80002160:	80 00       	ld.sh	r0,r0[0x0]
80002162:	30 ae       	mov	lr,10
80002164:	80 00       	ld.sh	r0,r0[0x0]
80002166:	2f ca       	sub	r10,-4

80002168 <sd_mmc_spi_send_and_read>:
80002168:	d4 01       	pushm	lr
8000216a:	20 1d       	sub	sp,4
8000216c:	18 9b       	mov	r11,r12
8000216e:	fe 7c 28 00 	mov	r12,-55296
80002172:	f0 1f 00 09 	mcall	80002194 <sd_mmc_spi_send_and_read+0x2c>
80002176:	fa cb ff fe 	sub	r11,sp,-2
8000217a:	fe 7c 28 00 	mov	r12,-55296
8000217e:	f0 1f 00 07 	mcall	80002198 <sd_mmc_spi_send_and_read+0x30>
80002182:	58 1c       	cp.w	r12,1
80002184:	c0 41       	brne	8000218c <sd_mmc_spi_send_and_read+0x24>
80002186:	e0 6c 00 ff 	mov	r12,255
8000218a:	c0 28       	rjmp	8000218e <sd_mmc_spi_send_and_read+0x26>
8000218c:	1b bc       	ld.ub	r12,sp[0x3]
8000218e:	2f fd       	sub	sp,-4
80002190:	d8 02       	popm	pc
80002192:	00 00       	add	r0,r0
80002194:	80 00       	ld.sh	r0,r0[0x0]
80002196:	30 ae       	mov	lr,10
80002198:	80 00       	ld.sh	r0,r0[0x0]
8000219a:	30 ca       	mov	r10,12

8000219c <sd_mmc_spi_wait_not_busy>:
8000219c:	d4 21       	pushm	r4-r7,lr
8000219e:	30 1b       	mov	r11,1
800021a0:	fe 7c 28 00 	mov	r12,-55296
800021a4:	f0 1f 00 10 	mcall	800021e4 <sd_mmc_spi_wait_not_busy+0x48>
800021a8:	30 07       	mov	r7,0
800021aa:	e0 65 00 ff 	mov	r5,255
800021ae:	48 f4       	lddpc	r4,800021e8 <sd_mmc_spi_wait_not_busy+0x4c>
800021b0:	3f f6       	mov	r6,-1
800021b2:	c0 b8       	rjmp	800021c8 <sd_mmc_spi_wait_not_busy+0x2c>
800021b4:	2f f7       	sub	r7,-1
800021b6:	e2 57 0d 40 	cp.w	r7,200000
800021ba:	c0 71       	brne	800021c8 <sd_mmc_spi_wait_not_busy+0x2c>
800021bc:	30 1b       	mov	r11,1
800021be:	fe 7c 28 00 	mov	r12,-55296
800021c2:	f0 1f 00 0b 	mcall	800021ec <sd_mmc_spi_wait_not_busy+0x50>
800021c6:	d8 2a       	popm	r4-r7,pc,r12=0
800021c8:	0a 9c       	mov	r12,r5
800021ca:	f0 1f 00 0a 	mcall	800021f0 <sd_mmc_spi_wait_not_busy+0x54>
800021ce:	a8 8c       	st.b	r4[0x0],r12
800021d0:	ec 0c 18 00 	cp.b	r12,r6
800021d4:	cf 01       	brne	800021b4 <sd_mmc_spi_wait_not_busy+0x18>
800021d6:	30 1b       	mov	r11,1
800021d8:	fe 7c 28 00 	mov	r12,-55296
800021dc:	f0 1f 00 04 	mcall	800021ec <sd_mmc_spi_wait_not_busy+0x50>
800021e0:	da 2a       	popm	r4-r7,pc,r12=1
800021e2:	00 00       	add	r0,r0
800021e4:	80 00       	ld.sh	r0,r0[0x0]
800021e6:	2f 7e       	sub	lr,-9
800021e8:	00 00       	add	r0,r0
800021ea:	0a 58       	eor	r8,r5
800021ec:	80 00       	ld.sh	r0,r0[0x0]
800021ee:	2f ca       	sub	r10,-4
800021f0:	80 00       	ld.sh	r0,r0[0x0]
800021f2:	21 68       	sub	r8,22

800021f4 <sd_mmc_spi_command>:
800021f4:	eb cd 40 f8 	pushm	r3-r7,lr
800021f8:	18 96       	mov	r6,r12
800021fa:	16 97       	mov	r7,r11
800021fc:	e0 6b 00 ff 	mov	r11,255
80002200:	fe 7c 28 00 	mov	r12,-55296
80002204:	f0 1f 00 2b 	mcall	800022b0 <sd_mmc_spi_command+0xbc>
80002208:	0c 9b       	mov	r11,r6
8000220a:	a7 ab       	sbr	r11,0x6
8000220c:	5c 5b       	castu.b	r11
8000220e:	fe 7c 28 00 	mov	r12,-55296
80002212:	f0 1f 00 28 	mcall	800022b0 <sd_mmc_spi_command+0xbc>
80002216:	ee 0b 16 18 	lsr	r11,r7,0x18
8000221a:	fe 7c 28 00 	mov	r12,-55296
8000221e:	f0 1f 00 25 	mcall	800022b0 <sd_mmc_spi_command+0xbc>
80002222:	ee 0b 16 10 	lsr	r11,r7,0x10
80002226:	fe 7c 28 00 	mov	r12,-55296
8000222a:	f0 1f 00 22 	mcall	800022b0 <sd_mmc_spi_command+0xbc>
8000222e:	f7 d7 c1 10 	bfextu	r11,r7,0x8,0x10
80002232:	fe 7c 28 00 	mov	r12,-55296
80002236:	f0 1f 00 1f 	mcall	800022b0 <sd_mmc_spi_command+0xbc>
8000223a:	0e 9b       	mov	r11,r7
8000223c:	5c 7b       	castu.h	r11
8000223e:	fe 7c 28 00 	mov	r12,-55296
80002242:	f0 1f 00 1c 	mcall	800022b0 <sd_mmc_spi_command+0xbc>
80002246:	30 08       	mov	r8,0
80002248:	f0 06 18 00 	cp.b	r6,r8
8000224c:	c0 60       	breq	80002258 <sd_mmc_spi_command+0x64>
8000224e:	30 88       	mov	r8,8
80002250:	f0 06 18 00 	cp.b	r6,r8
80002254:	c1 01       	brne	80002274 <sd_mmc_spi_command+0x80>
80002256:	c0 88       	rjmp	80002266 <sd_mmc_spi_command+0x72>
80002258:	e0 6b 00 95 	mov	r11,149
8000225c:	fe 7c 28 00 	mov	r12,-55296
80002260:	f0 1f 00 14 	mcall	800022b0 <sd_mmc_spi_command+0xbc>
80002264:	c0 e8       	rjmp	80002280 <sd_mmc_spi_command+0x8c>
80002266:	e0 6b 00 87 	mov	r11,135
8000226a:	fe 7c 28 00 	mov	r12,-55296
8000226e:	f0 1f 00 11 	mcall	800022b0 <sd_mmc_spi_command+0xbc>
80002272:	c0 78       	rjmp	80002280 <sd_mmc_spi_command+0x8c>
80002274:	e0 6b 00 ff 	mov	r11,255
80002278:	fe 7c 28 00 	mov	r12,-55296
8000227c:	f0 1f 00 0d 	mcall	800022b0 <sd_mmc_spi_command+0xbc>
80002280:	3f f9       	mov	r9,-1
80002282:	48 d8       	lddpc	r8,800022b4 <sd_mmc_spi_command+0xc0>
80002284:	b0 89       	st.b	r8[0x0],r9
80002286:	30 07       	mov	r7,0
80002288:	e0 64 00 ff 	mov	r4,255
8000228c:	10 93       	mov	r3,r8
8000228e:	12 96       	mov	r6,r9
80002290:	30 b5       	mov	r5,11
80002292:	c0 68       	rjmp	8000229e <sd_mmc_spi_command+0xaa>
80002294:	2f f7       	sub	r7,-1
80002296:	5c 57       	castu.b	r7
80002298:	ea 07 18 00 	cp.b	r7,r5
8000229c:	c0 80       	breq	800022ac <sd_mmc_spi_command+0xb8>
8000229e:	08 9c       	mov	r12,r4
800022a0:	f0 1f 00 06 	mcall	800022b8 <sd_mmc_spi_command+0xc4>
800022a4:	a6 8c       	st.b	r3[0x0],r12
800022a6:	ec 0c 18 00 	cp.b	r12,r6
800022aa:	cf 50       	breq	80002294 <sd_mmc_spi_command+0xa0>
800022ac:	e3 cd 80 f8 	ldm	sp++,r3-r7,pc
800022b0:	80 00       	ld.sh	r0,r0[0x0]
800022b2:	30 ae       	mov	lr,10
800022b4:	00 00       	add	r0,r0
800022b6:	0a 58       	eor	r8,r5
800022b8:	80 00       	ld.sh	r0,r0[0x0]
800022ba:	21 68       	sub	r8,22

800022bc <sd_mmc_spi_send_command>:
800022bc:	eb cd 40 c0 	pushm	r6-r7,lr
800022c0:	18 97       	mov	r7,r12
800022c2:	16 96       	mov	r6,r11
800022c4:	30 1b       	mov	r11,1
800022c6:	fe 7c 28 00 	mov	r12,-55296
800022ca:	f0 1f 00 09 	mcall	800022ec <sd_mmc_spi_send_command+0x30>
800022ce:	0c 9b       	mov	r11,r6
800022d0:	0e 9c       	mov	r12,r7
800022d2:	f0 1f 00 08 	mcall	800022f0 <sd_mmc_spi_send_command+0x34>
800022d6:	48 87       	lddpc	r7,800022f4 <sd_mmc_spi_send_command+0x38>
800022d8:	ae 8c       	st.b	r7[0x0],r12
800022da:	30 1b       	mov	r11,1
800022dc:	fe 7c 28 00 	mov	r12,-55296
800022e0:	f0 1f 00 06 	mcall	800022f8 <sd_mmc_spi_send_command+0x3c>
800022e4:	0f 8c       	ld.ub	r12,r7[0x0]
800022e6:	e3 cd 80 c0 	ldm	sp++,r6-r7,pc
800022ea:	00 00       	add	r0,r0
800022ec:	80 00       	ld.sh	r0,r0[0x0]
800022ee:	2f 7e       	sub	lr,-9
800022f0:	80 00       	ld.sh	r0,r0[0x0]
800022f2:	21 f4       	sub	r4,31
800022f4:	00 00       	add	r0,r0
800022f6:	0a 58       	eor	r8,r5
800022f8:	80 00       	ld.sh	r0,r0[0x0]
800022fa:	2f ca       	sub	r10,-4

800022fc <sd_mmc_spi_check_presence>:
800022fc:	eb cd 40 fe 	pushm	r1-r7,lr
80002300:	49 a8       	lddpc	r8,80002368 <sd_mmc_spi_check_presence+0x6c>
80002302:	11 89       	ld.ub	r9,r8[0x0]
80002304:	30 08       	mov	r8,0
80002306:	f0 09 18 00 	cp.b	r9,r8
8000230a:	c1 f1       	brne	80002348 <sd_mmc_spi_check_presence+0x4c>
8000230c:	30 07       	mov	r7,0
8000230e:	0e 94       	mov	r4,r7
80002310:	49 73       	lddpc	r3,8000236c <sd_mmc_spi_check_presence+0x70>
80002312:	30 16       	mov	r6,1
80002314:	e0 62 00 ff 	mov	r2,255
80002318:	fe 71 28 00 	mov	r1,-55296
8000231c:	30 b5       	mov	r5,11
8000231e:	c0 c8       	rjmp	80002336 <sd_mmc_spi_check_presence+0x3a>
80002320:	04 9b       	mov	r11,r2
80002322:	02 9c       	mov	r12,r1
80002324:	f0 1f 00 13 	mcall	80002370 <sd_mmc_spi_check_presence+0x74>
80002328:	2f f7       	sub	r7,-1
8000232a:	5c 87       	casts.h	r7
8000232c:	ea 07 19 00 	cp.h	r7,r5
80002330:	c0 31       	brne	80002336 <sd_mmc_spi_check_presence+0x3a>
80002332:	e3 cf 80 fe 	ldm	sp++,r1-r7,pc,r12=0
80002336:	08 9b       	mov	r11,r4
80002338:	08 9c       	mov	r12,r4
8000233a:	f0 1f 00 0f 	mcall	80002374 <sd_mmc_spi_check_presence+0x78>
8000233e:	a6 8c       	st.b	r3[0x0],r12
80002340:	ec 0c 18 00 	cp.b	r12,r6
80002344:	ce e1       	brne	80002320 <sd_mmc_spi_check_presence+0x24>
80002346:	c0 e8       	rjmp	80002362 <sd_mmc_spi_check_presence+0x66>
80002348:	30 0b       	mov	r11,0
8000234a:	33 bc       	mov	r12,59
8000234c:	f0 1f 00 0a 	mcall	80002374 <sd_mmc_spi_check_presence+0x78>
80002350:	48 78       	lddpc	r8,8000236c <sd_mmc_spi_check_presence+0x70>
80002352:	b0 8c       	st.b	r8[0x0],r12
80002354:	58 0c       	cp.w	r12,0
80002356:	c0 60       	breq	80002362 <sd_mmc_spi_check_presence+0x66>
80002358:	30 09       	mov	r9,0
8000235a:	48 48       	lddpc	r8,80002368 <sd_mmc_spi_check_presence+0x6c>
8000235c:	b0 89       	st.b	r8[0x0],r9
8000235e:	e3 cf 80 fe 	ldm	sp++,r1-r7,pc,r12=0
80002362:	e3 cf 90 fe 	ldm	sp++,r1-r7,pc,r12=1
80002366:	00 00       	add	r0,r0
80002368:	00 00       	add	r0,r0
8000236a:	06 f4       	st.b	--r3,r4
8000236c:	00 00       	add	r0,r0
8000236e:	0a 58       	eor	r8,r5
80002370:	80 00       	ld.sh	r0,r0[0x0]
80002372:	30 ae       	mov	lr,10
80002374:	80 00       	ld.sh	r0,r0[0x0]
80002376:	22 bc       	sub	r12,43

80002378 <sd_mmc_spi_read_open_PDCA>:
80002378:	d4 21       	pushm	r4-r7,lr
8000237a:	4a e8       	lddpc	r8,80002430 <sd_mmc_spi_read_open_PDCA+0xb8>
8000237c:	f8 09 16 17 	lsr	r9,r12,0x17
80002380:	91 09       	st.w	r8[0x0],r9
80002382:	a9 7c       	lsl	r12,0x9
80002384:	91 1c       	st.w	r8[0x4],r12
80002386:	f0 1f 00 2c 	mcall	80002434 <sd_mmc_spi_read_open_PDCA+0xbc>
8000238a:	c5 20       	breq	8000242e <sd_mmc_spi_read_open_PDCA+0xb6>
8000238c:	30 1b       	mov	r11,1
8000238e:	fe 7c 28 00 	mov	r12,-55296
80002392:	f0 1f 00 2a 	mcall	80002438 <sd_mmc_spi_read_open_PDCA+0xc0>
80002396:	4a a8       	lddpc	r8,8000243c <sd_mmc_spi_read_open_PDCA+0xc4>
80002398:	11 89       	ld.ub	r9,r8[0x0]
8000239a:	30 38       	mov	r8,3
8000239c:	f0 09 18 00 	cp.b	r9,r8
800023a0:	c0 d1       	brne	800023ba <sd_mmc_spi_read_open_PDCA+0x42>
800023a2:	4a 48       	lddpc	r8,80002430 <sd_mmc_spi_read_open_PDCA+0xb8>
800023a4:	70 0b       	ld.w	r11,r8[0x0]
800023a6:	70 18       	ld.w	r8,r8[0x4]
800023a8:	a9 98       	lsr	r8,0x9
800023aa:	f1 eb 11 7b 	or	r11,r8,r11<<0x17
800023ae:	31 1c       	mov	r12,17
800023b0:	f0 1f 00 24 	mcall	80002440 <sd_mmc_spi_read_open_PDCA+0xc8>
800023b4:	4a 48       	lddpc	r8,80002444 <sd_mmc_spi_read_open_PDCA+0xcc>
800023b6:	b0 8c       	st.b	r8[0x0],r12
800023b8:	c0 88       	rjmp	800023c8 <sd_mmc_spi_read_open_PDCA+0x50>
800023ba:	49 e8       	lddpc	r8,80002430 <sd_mmc_spi_read_open_PDCA+0xb8>
800023bc:	70 1b       	ld.w	r11,r8[0x4]
800023be:	31 1c       	mov	r12,17
800023c0:	f0 1f 00 20 	mcall	80002440 <sd_mmc_spi_read_open_PDCA+0xc8>
800023c4:	4a 08       	lddpc	r8,80002444 <sd_mmc_spi_read_open_PDCA+0xcc>
800023c6:	b0 8c       	st.b	r8[0x0],r12
800023c8:	49 f8       	lddpc	r8,80002444 <sd_mmc_spi_read_open_PDCA+0xcc>
800023ca:	11 89       	ld.ub	r9,r8[0x0]
800023cc:	30 08       	mov	r8,0
800023ce:	f0 09 18 00 	cp.b	r9,r8
800023d2:	c1 00       	breq	800023f2 <sd_mmc_spi_read_open_PDCA+0x7a>
800023d4:	30 1b       	mov	r11,1
800023d6:	fe 7c 28 00 	mov	r12,-55296
800023da:	f0 1f 00 1c 	mcall	80002448 <sd_mmc_spi_read_open_PDCA+0xd0>
800023de:	d8 2a       	popm	r4-r7,pc,r12=0
800023e0:	20 17       	sub	r7,1
800023e2:	5c 87       	casts.h	r7
800023e4:	c0 d1       	brne	800023fe <sd_mmc_spi_read_open_PDCA+0x86>
800023e6:	30 1b       	mov	r11,1
800023e8:	fe 7c 28 00 	mov	r12,-55296
800023ec:	f0 1f 00 17 	mcall	80002448 <sd_mmc_spi_read_open_PDCA+0xd0>
800023f0:	d8 2a       	popm	r4-r7,pc,r12=0
800023f2:	e0 67 75 30 	mov	r7,30000
800023f6:	e0 65 00 ff 	mov	r5,255
800023fa:	49 34       	lddpc	r4,80002444 <sd_mmc_spi_read_open_PDCA+0xcc>
800023fc:	3f f6       	mov	r6,-1
800023fe:	0a 9c       	mov	r12,r5
80002400:	f0 1f 00 13 	mcall	8000244c <sd_mmc_spi_read_open_PDCA+0xd4>
80002404:	a8 8c       	st.b	r4[0x0],r12
80002406:	ec 0c 18 00 	cp.b	r12,r6
8000240a:	ce b0       	breq	800023e0 <sd_mmc_spi_read_open_PDCA+0x68>
8000240c:	3f e8       	mov	r8,-2
8000240e:	f0 0c 18 00 	cp.b	r12,r8
80002412:	c0 21       	brne	80002416 <sd_mmc_spi_read_open_PDCA+0x9e>
80002414:	da 2a       	popm	r4-r7,pc,r12=1
80002416:	e0 6b 00 ff 	mov	r11,255
8000241a:	fe 7c 28 00 	mov	r12,-55296
8000241e:	f0 1f 00 0d 	mcall	80002450 <sd_mmc_spi_read_open_PDCA+0xd8>
80002422:	30 1b       	mov	r11,1
80002424:	fe 7c 28 00 	mov	r12,-55296
80002428:	f0 1f 00 08 	mcall	80002448 <sd_mmc_spi_read_open_PDCA+0xd0>
8000242c:	30 0c       	mov	r12,0
8000242e:	d8 22       	popm	r4-r7,pc
80002430:	00 00       	add	r0,r0
80002432:	06 d8       	st.w	--r3,r8
80002434:	80 00       	ld.sh	r0,r0[0x0]
80002436:	21 9c       	sub	r12,25
80002438:	80 00       	ld.sh	r0,r0[0x0]
8000243a:	2f 7e       	sub	lr,-9
8000243c:	00 00       	add	r0,r0
8000243e:	0a 46       	or	r6,r5
80002440:	80 00       	ld.sh	r0,r0[0x0]
80002442:	21 f4       	sub	r4,31
80002444:	00 00       	add	r0,r0
80002446:	0a 58       	eor	r8,r5
80002448:	80 00       	ld.sh	r0,r0[0x0]
8000244a:	2f ca       	sub	r10,-4
8000244c:	80 00       	ld.sh	r0,r0[0x0]
8000244e:	21 68       	sub	r8,22
80002450:	80 00       	ld.sh	r0,r0[0x0]
80002452:	30 ae       	mov	lr,10

80002454 <sd_mmc_spi_check_hc>:
80002454:	eb cd 40 c0 	pushm	r6-r7,lr
80002458:	f0 1f 00 1c 	mcall	800024c8 <sd_mmc_spi_check_hc+0x74>
8000245c:	c0 31       	brne	80002462 <sd_mmc_spi_check_hc+0xe>
8000245e:	e3 cf c0 c0 	ldm	sp++,r6-r7,pc,r12=-1
80002462:	30 1b       	mov	r11,1
80002464:	fe 7c 28 00 	mov	r12,-55296
80002468:	f0 1f 00 19 	mcall	800024cc <sd_mmc_spi_check_hc+0x78>
8000246c:	30 0b       	mov	r11,0
8000246e:	33 ac       	mov	r12,58
80002470:	f0 1f 00 18 	mcall	800024d0 <sd_mmc_spi_check_hc+0x7c>
80002474:	49 88       	lddpc	r8,800024d4 <sd_mmc_spi_check_hc+0x80>
80002476:	b0 8c       	st.b	r8[0x0],r12
80002478:	58 0c       	cp.w	r12,0
8000247a:	c0 80       	breq	8000248a <sd_mmc_spi_check_hc+0x36>
8000247c:	30 1b       	mov	r11,1
8000247e:	fe 7c 28 00 	mov	r12,-55296
80002482:	f0 1f 00 16 	mcall	800024d8 <sd_mmc_spi_check_hc+0x84>
80002486:	e3 cf c0 c0 	ldm	sp++,r6-r7,pc,r12=-1
8000248a:	e0 6c 00 ff 	mov	r12,255
8000248e:	f0 1f 00 14 	mcall	800024dc <sd_mmc_spi_check_hc+0x88>
80002492:	18 96       	mov	r6,r12
80002494:	e0 6c 00 ff 	mov	r12,255
80002498:	f0 1f 00 11 	mcall	800024dc <sd_mmc_spi_check_hc+0x88>
8000249c:	48 e7       	lddpc	r7,800024d4 <sd_mmc_spi_check_hc+0x80>
8000249e:	ae 8c       	st.b	r7[0x0],r12
800024a0:	e0 6c 00 ff 	mov	r12,255
800024a4:	f0 1f 00 0e 	mcall	800024dc <sd_mmc_spi_check_hc+0x88>
800024a8:	ae 8c       	st.b	r7[0x0],r12
800024aa:	e0 6c 00 ff 	mov	r12,255
800024ae:	f0 1f 00 0c 	mcall	800024dc <sd_mmc_spi_check_hc+0x88>
800024b2:	ae 8c       	st.b	r7[0x0],r12
800024b4:	30 1b       	mov	r11,1
800024b6:	fe 7c 28 00 	mov	r12,-55296
800024ba:	f0 1f 00 08 	mcall	800024d8 <sd_mmc_spi_check_hc+0x84>
800024be:	f9 d6 c0 c1 	bfextu	r12,r6,0x6,0x1
800024c2:	e3 cd 80 c0 	ldm	sp++,r6-r7,pc
800024c6:	00 00       	add	r0,r0
800024c8:	80 00       	ld.sh	r0,r0[0x0]
800024ca:	21 9c       	sub	r12,25
800024cc:	80 00       	ld.sh	r0,r0[0x0]
800024ce:	2f 7e       	sub	lr,-9
800024d0:	80 00       	ld.sh	r0,r0[0x0]
800024d2:	21 f4       	sub	r4,31
800024d4:	00 00       	add	r0,r0
800024d6:	0a 58       	eor	r8,r5
800024d8:	80 00       	ld.sh	r0,r0[0x0]
800024da:	2f ca       	sub	r10,-4
800024dc:	80 00       	ld.sh	r0,r0[0x0]
800024de:	21 68       	sub	r8,22

800024e0 <sd_mmc_spi_get_if>:
800024e0:	eb cd 40 80 	pushm	r7,lr
800024e4:	f0 1f 00 27 	mcall	80002580 <sd_mmc_spi_get_if+0xa0>
800024e8:	c0 31       	brne	800024ee <sd_mmc_spi_get_if+0xe>
800024ea:	e3 cf c0 80 	ldm	sp++,r7,pc,r12=-1
800024ee:	30 1b       	mov	r11,1
800024f0:	fe 7c 28 00 	mov	r12,-55296
800024f4:	f0 1f 00 24 	mcall	80002584 <sd_mmc_spi_get_if+0xa4>
800024f8:	e0 6b 01 aa 	mov	r11,426
800024fc:	30 8c       	mov	r12,8
800024fe:	f0 1f 00 23 	mcall	80002588 <sd_mmc_spi_get_if+0xa8>
80002502:	4a 38       	lddpc	r8,8000258c <sd_mmc_spi_get_if+0xac>
80002504:	b0 8c       	st.b	r8[0x0],r12
80002506:	e2 1c 00 04 	andl	r12,0x4,COH
8000250a:	c0 80       	breq	8000251a <sd_mmc_spi_get_if+0x3a>
8000250c:	30 1b       	mov	r11,1
8000250e:	fe 7c 28 00 	mov	r12,-55296
80002512:	f0 1f 00 20 	mcall	80002590 <sd_mmc_spi_get_if+0xb0>
80002516:	e3 cf 80 80 	ldm	sp++,r7,pc,r12=0
8000251a:	e0 6c 00 ff 	mov	r12,255
8000251e:	f0 1f 00 1e 	mcall	80002594 <sd_mmc_spi_get_if+0xb4>
80002522:	49 b7       	lddpc	r7,8000258c <sd_mmc_spi_get_if+0xac>
80002524:	ae 8c       	st.b	r7[0x0],r12
80002526:	e0 6c 00 ff 	mov	r12,255
8000252a:	f0 1f 00 1b 	mcall	80002594 <sd_mmc_spi_get_if+0xb4>
8000252e:	ae 8c       	st.b	r7[0x0],r12
80002530:	e0 6c 00 ff 	mov	r12,255
80002534:	f0 1f 00 18 	mcall	80002594 <sd_mmc_spi_get_if+0xb4>
80002538:	ae 8c       	st.b	r7[0x0],r12
8000253a:	f9 dc c0 01 	bfextu	r12,r12,0x0,0x1
8000253e:	c0 81       	brne	8000254e <sd_mmc_spi_get_if+0x6e>
80002540:	30 1b       	mov	r11,1
80002542:	fe 7c 28 00 	mov	r12,-55296
80002546:	f0 1f 00 13 	mcall	80002590 <sd_mmc_spi_get_if+0xb0>
8000254a:	e3 cf c0 80 	ldm	sp++,r7,pc,r12=-1
8000254e:	e0 6c 00 ff 	mov	r12,255
80002552:	f0 1f 00 11 	mcall	80002594 <sd_mmc_spi_get_if+0xb4>
80002556:	48 e8       	lddpc	r8,8000258c <sd_mmc_spi_get_if+0xac>
80002558:	b0 8c       	st.b	r8[0x0],r12
8000255a:	3a a8       	mov	r8,-86
8000255c:	f0 0c 18 00 	cp.b	r12,r8
80002560:	c0 80       	breq	80002570 <sd_mmc_spi_get_if+0x90>
80002562:	30 1b       	mov	r11,1
80002564:	fe 7c 28 00 	mov	r12,-55296
80002568:	f0 1f 00 0a 	mcall	80002590 <sd_mmc_spi_get_if+0xb0>
8000256c:	e3 cf c0 80 	ldm	sp++,r7,pc,r12=-1
80002570:	30 1b       	mov	r11,1
80002572:	fe 7c 28 00 	mov	r12,-55296
80002576:	f0 1f 00 07 	mcall	80002590 <sd_mmc_spi_get_if+0xb0>
8000257a:	e3 cf 90 80 	ldm	sp++,r7,pc,r12=1
8000257e:	00 00       	add	r0,r0
80002580:	80 00       	ld.sh	r0,r0[0x0]
80002582:	21 9c       	sub	r12,25
80002584:	80 00       	ld.sh	r0,r0[0x0]
80002586:	2f 7e       	sub	lr,-9
80002588:	80 00       	ld.sh	r0,r0[0x0]
8000258a:	21 f4       	sub	r4,31
8000258c:	00 00       	add	r0,r0
8000258e:	0a 58       	eor	r8,r5
80002590:	80 00       	ld.sh	r0,r0[0x0]
80002592:	2f ca       	sub	r10,-4
80002594:	80 00       	ld.sh	r0,r0[0x0]
80002596:	21 68       	sub	r8,22

80002598 <sd_mmc_spi_get_csd>:
80002598:	eb cd 40 fc 	pushm	r2-r7,lr
8000259c:	20 1d       	sub	sp,4
8000259e:	18 92       	mov	r2,r12
800025a0:	f0 1f 00 32 	mcall	80002668 <sd_mmc_spi_get_csd+0xd0>
800025a4:	c5 f0       	breq	80002662 <sd_mmc_spi_get_csd+0xca>
800025a6:	30 1b       	mov	r11,1
800025a8:	fe 7c 28 00 	mov	r12,-55296
800025ac:	f0 1f 00 30 	mcall	8000266c <sd_mmc_spi_get_csd+0xd4>
800025b0:	30 0b       	mov	r11,0
800025b2:	30 9c       	mov	r12,9
800025b4:	f0 1f 00 2f 	mcall	80002670 <sd_mmc_spi_get_csd+0xd8>
800025b8:	4a f8       	lddpc	r8,80002674 <sd_mmc_spi_get_csd+0xdc>
800025ba:	b0 8c       	st.b	r8[0x0],r12
800025bc:	58 0c       	cp.w	r12,0
800025be:	c0 81       	brne	800025ce <sd_mmc_spi_get_csd+0x36>
800025c0:	30 07       	mov	r7,0
800025c2:	e0 64 00 ff 	mov	r4,255
800025c6:	10 93       	mov	r3,r8
800025c8:	3f e6       	mov	r6,-2
800025ca:	30 95       	mov	r5,9
800025cc:	c1 78       	rjmp	800025fa <sd_mmc_spi_get_csd+0x62>
800025ce:	30 1b       	mov	r11,1
800025d0:	fe 7c 28 00 	mov	r12,-55296
800025d4:	f0 1f 00 29 	mcall	80002678 <sd_mmc_spi_get_csd+0xe0>
800025d8:	30 09       	mov	r9,0
800025da:	4a 98       	lddpc	r8,8000267c <sd_mmc_spi_get_csd+0xe4>
800025dc:	b0 89       	st.b	r8[0x0],r9
800025de:	30 0c       	mov	r12,0
800025e0:	c4 18       	rjmp	80002662 <sd_mmc_spi_get_csd+0xca>
800025e2:	ea 07 18 00 	cp.b	r7,r5
800025e6:	c0 81       	brne	800025f6 <sd_mmc_spi_get_csd+0x5e>
800025e8:	30 1b       	mov	r11,1
800025ea:	fe 7c 28 00 	mov	r12,-55296
800025ee:	f0 1f 00 23 	mcall	80002678 <sd_mmc_spi_get_csd+0xe0>
800025f2:	30 0c       	mov	r12,0
800025f4:	c3 78       	rjmp	80002662 <sd_mmc_spi_get_csd+0xca>
800025f6:	2f f7       	sub	r7,-1
800025f8:	5c 57       	castu.b	r7
800025fa:	08 9c       	mov	r12,r4
800025fc:	f0 1f 00 21 	mcall	80002680 <sd_mmc_spi_get_csd+0xe8>
80002600:	a6 8c       	st.b	r3[0x0],r12
80002602:	ec 0c 18 00 	cp.b	r12,r6
80002606:	ce e1       	brne	800025e2 <sd_mmc_spi_get_csd+0x4a>
80002608:	30 07       	mov	r7,0
8000260a:	e0 65 00 ff 	mov	r5,255
8000260e:	fe 76 28 00 	mov	r6,-55296
80002612:	fa c4 ff fe 	sub	r4,sp,-2
80002616:	0a 9b       	mov	r11,r5
80002618:	0c 9c       	mov	r12,r6
8000261a:	f0 1f 00 1b 	mcall	80002684 <sd_mmc_spi_get_csd+0xec>
8000261e:	08 9b       	mov	r11,r4
80002620:	0c 9c       	mov	r12,r6
80002622:	f0 1f 00 1a 	mcall	80002688 <sd_mmc_spi_get_csd+0xf0>
80002626:	9a 18       	ld.sh	r8,sp[0x2]
80002628:	e4 07 0b 08 	st.b	r2[r7],r8
8000262c:	2f f7       	sub	r7,-1
8000262e:	59 07       	cp.w	r7,16
80002630:	cf 31       	brne	80002616 <sd_mmc_spi_get_csd+0x7e>
80002632:	e0 6b 00 ff 	mov	r11,255
80002636:	fe 7c 28 00 	mov	r12,-55296
8000263a:	f0 1f 00 13 	mcall	80002684 <sd_mmc_spi_get_csd+0xec>
8000263e:	e0 6b 00 ff 	mov	r11,255
80002642:	fe 7c 28 00 	mov	r12,-55296
80002646:	f0 1f 00 10 	mcall	80002684 <sd_mmc_spi_get_csd+0xec>
8000264a:	e0 6b 00 ff 	mov	r11,255
8000264e:	fe 7c 28 00 	mov	r12,-55296
80002652:	f0 1f 00 0d 	mcall	80002684 <sd_mmc_spi_get_csd+0xec>
80002656:	30 1b       	mov	r11,1
80002658:	fe 7c 28 00 	mov	r12,-55296
8000265c:	f0 1f 00 07 	mcall	80002678 <sd_mmc_spi_get_csd+0xe0>
80002660:	30 1c       	mov	r12,1
80002662:	2f fd       	sub	sp,-4
80002664:	e3 cd 80 fc 	ldm	sp++,r2-r7,pc
80002668:	80 00       	ld.sh	r0,r0[0x0]
8000266a:	21 9c       	sub	r12,25
8000266c:	80 00       	ld.sh	r0,r0[0x0]
8000266e:	2f 7e       	sub	lr,-9
80002670:	80 00       	ld.sh	r0,r0[0x0]
80002672:	21 f4       	sub	r4,31
80002674:	00 00       	add	r0,r0
80002676:	0a 58       	eor	r8,r5
80002678:	80 00       	ld.sh	r0,r0[0x0]
8000267a:	2f ca       	sub	r10,-4
8000267c:	00 00       	add	r0,r0
8000267e:	06 f4       	st.b	--r3,r4
80002680:	80 00       	ld.sh	r0,r0[0x0]
80002682:	21 68       	sub	r8,22
80002684:	80 00       	ld.sh	r0,r0[0x0]
80002686:	30 ae       	mov	lr,10
80002688:	80 00       	ld.sh	r0,r0[0x0]
8000268a:	30 ca       	mov	r10,12

8000268c <sd_mmc_spi_internal_init>:
8000268c:	d4 31       	pushm	r0-r7,lr
8000268e:	fe fb 02 66 	ld.w	r11,pc[614]
80002692:	e6 68 1a 80 	mov	r8,400000
80002696:	97 18       	st.w	r11[0x4],r8
80002698:	fe f8 02 60 	ld.w	r8,pc[608]
8000269c:	70 0a       	ld.w	r10,r8[0x0]
8000269e:	fe 7c 28 00 	mov	r12,-55296
800026a2:	f0 1f 00 97 	mcall	800028fc <sd_mmc_spi_internal_init+0x270>
800026a6:	30 1b       	mov	r11,1
800026a8:	fe 7c 28 00 	mov	r12,-55296
800026ac:	f0 1f 00 95 	mcall	80002900 <sd_mmc_spi_internal_init+0x274>
800026b0:	30 07       	mov	r7,0
800026b2:	e0 66 00 ff 	mov	r6,255
800026b6:	fe 75 28 00 	mov	r5,-55296
800026ba:	0c 9b       	mov	r11,r6
800026bc:	0a 9c       	mov	r12,r5
800026be:	f0 1f 00 92 	mcall	80002904 <sd_mmc_spi_internal_init+0x278>
800026c2:	2f f7       	sub	r7,-1
800026c4:	58 a7       	cp.w	r7,10
800026c6:	cf a1       	brne	800026ba <sd_mmc_spi_internal_init+0x2e>
800026c8:	30 1b       	mov	r11,1
800026ca:	fe 7c 28 00 	mov	r12,-55296
800026ce:	f0 1f 00 8f 	mcall	80002908 <sd_mmc_spi_internal_init+0x27c>
800026d2:	30 08       	mov	r8,0
800026d4:	fe f9 02 38 	ld.w	r9,pc[568]
800026d8:	b2 88       	st.b	r9[0x0],r8
800026da:	fe f9 02 36 	ld.w	r9,pc[566]
800026de:	b2 88       	st.b	r9[0x0],r8
800026e0:	30 0b       	mov	r11,0
800026e2:	16 9c       	mov	r12,r11
800026e4:	f0 1f 00 8c 	mcall	80002914 <sd_mmc_spi_internal_init+0x288>
800026e8:	fe f8 02 30 	ld.w	r8,pc[560]
800026ec:	b0 8c       	st.b	r8[0x0],r12
800026ee:	e0 6b 00 ff 	mov	r11,255
800026f2:	fe 7c 28 00 	mov	r12,-55296
800026f6:	f0 1f 00 84 	mcall	80002904 <sd_mmc_spi_internal_init+0x278>
800026fa:	30 17       	mov	r7,1
800026fc:	fe f6 02 1c 	ld.w	r6,pc[540]
80002700:	30 15       	mov	r5,1
80002702:	30 03       	mov	r3,0
80002704:	e0 62 00 ff 	mov	r2,255
80002708:	fe 71 28 00 	mov	r1,-55296
8000270c:	36 54       	mov	r4,101
8000270e:	c1 08       	rjmp	8000272e <sd_mmc_spi_internal_init+0xa2>
80002710:	06 9b       	mov	r11,r3
80002712:	06 9c       	mov	r12,r3
80002714:	f0 1f 00 80 	mcall	80002914 <sd_mmc_spi_internal_init+0x288>
80002718:	ac 8c       	st.b	r6[0x0],r12
8000271a:	04 9b       	mov	r11,r2
8000271c:	02 9c       	mov	r12,r1
8000271e:	f0 1f 00 7a 	mcall	80002904 <sd_mmc_spi_internal_init+0x278>
80002722:	2f f7       	sub	r7,-1
80002724:	5c 87       	casts.h	r7
80002726:	e8 07 19 00 	cp.h	r7,r4
8000272a:	e0 80 00 e4 	breq	800028f2 <sd_mmc_spi_internal_init+0x266>
8000272e:	0d 88       	ld.ub	r8,r6[0x0]
80002730:	ea 08 18 00 	cp.b	r8,r5
80002734:	ce e1       	brne	80002710 <sd_mmc_spi_internal_init+0x84>
80002736:	f0 1f 00 7a 	mcall	8000291c <sd_mmc_spi_internal_init+0x290>
8000273a:	5b fc       	cp.w	r12,-1
8000273c:	e0 80 00 db 	breq	800028f2 <sd_mmc_spi_internal_init+0x266>
80002740:	58 1c       	cp.w	r12,1
80002742:	c0 51       	brne	8000274c <sd_mmc_spi_internal_init+0xc0>
80002744:	30 29       	mov	r9,2
80002746:	4f 38       	lddpc	r8,80002910 <sd_mmc_spi_internal_init+0x284>
80002748:	b0 89       	st.b	r8[0x0],r9
8000274a:	c4 c8       	rjmp	800027e2 <sd_mmc_spi_internal_init+0x156>
8000274c:	30 0b       	mov	r11,0
8000274e:	33 7c       	mov	r12,55
80002750:	f0 1f 00 71 	mcall	80002914 <sd_mmc_spi_internal_init+0x288>
80002754:	4f 17       	lddpc	r7,80002918 <sd_mmc_spi_internal_init+0x28c>
80002756:	ae 8c       	st.b	r7[0x0],r12
80002758:	e0 6b 00 ff 	mov	r11,255
8000275c:	fe 7c 28 00 	mov	r12,-55296
80002760:	f0 1f 00 69 	mcall	80002904 <sd_mmc_spi_internal_init+0x278>
80002764:	30 0b       	mov	r11,0
80002766:	32 9c       	mov	r12,41
80002768:	f0 1f 00 6b 	mcall	80002914 <sd_mmc_spi_internal_init+0x288>
8000276c:	ae 8c       	st.b	r7[0x0],r12
8000276e:	e0 6b 00 ff 	mov	r11,255
80002772:	fe 7c 28 00 	mov	r12,-55296
80002776:	f0 1f 00 64 	mcall	80002904 <sd_mmc_spi_internal_init+0x278>
8000277a:	0f 88       	ld.ub	r8,r7[0x0]
8000277c:	e2 18 00 fe 	andl	r8,0xfe,COH
80002780:	c0 51       	brne	8000278a <sd_mmc_spi_internal_init+0xfe>
80002782:	30 19       	mov	r9,1
80002784:	4e 38       	lddpc	r8,80002910 <sd_mmc_spi_internal_init+0x284>
80002786:	b0 89       	st.b	r8[0x0],r9
80002788:	c2 d8       	rjmp	800027e2 <sd_mmc_spi_internal_init+0x156>
8000278a:	30 09       	mov	r9,0
8000278c:	4e 18       	lddpc	r8,80002910 <sd_mmc_spi_internal_init+0x284>
8000278e:	b0 89       	st.b	r8[0x0],r9
80002790:	30 0b       	mov	r11,0
80002792:	16 9c       	mov	r12,r11
80002794:	f0 1f 00 60 	mcall	80002914 <sd_mmc_spi_internal_init+0x288>
80002798:	4e 08       	lddpc	r8,80002918 <sd_mmc_spi_internal_init+0x28c>
8000279a:	b0 8c       	st.b	r8[0x0],r12
8000279c:	e0 6b 00 ff 	mov	r11,255
800027a0:	fe 7c 28 00 	mov	r12,-55296
800027a4:	f0 1f 00 58 	mcall	80002904 <sd_mmc_spi_internal_init+0x278>
800027a8:	30 17       	mov	r7,1
800027aa:	4d c6       	lddpc	r6,80002918 <sd_mmc_spi_internal_init+0x28c>
800027ac:	30 15       	mov	r5,1
800027ae:	30 03       	mov	r3,0
800027b0:	e0 62 00 ff 	mov	r2,255
800027b4:	fe 71 28 00 	mov	r1,-55296
800027b8:	36 54       	mov	r4,101
800027ba:	c1 08       	rjmp	800027da <sd_mmc_spi_internal_init+0x14e>
800027bc:	06 9b       	mov	r11,r3
800027be:	06 9c       	mov	r12,r3
800027c0:	f0 1f 00 55 	mcall	80002914 <sd_mmc_spi_internal_init+0x288>
800027c4:	ac 8c       	st.b	r6[0x0],r12
800027c6:	04 9b       	mov	r11,r2
800027c8:	02 9c       	mov	r12,r1
800027ca:	f0 1f 00 4f 	mcall	80002904 <sd_mmc_spi_internal_init+0x278>
800027ce:	2f f7       	sub	r7,-1
800027d0:	5c 87       	casts.h	r7
800027d2:	e8 07 19 00 	cp.h	r7,r4
800027d6:	e0 80 00 8e 	breq	800028f2 <sd_mmc_spi_internal_init+0x266>
800027da:	0d 88       	ld.ub	r8,r6[0x0]
800027dc:	ea 08 18 00 	cp.b	r8,r5
800027e0:	ce e1       	brne	800027bc <sd_mmc_spi_internal_init+0x130>
800027e2:	30 07       	mov	r7,0
800027e4:	4c b4       	lddpc	r4,80002910 <sd_mmc_spi_internal_init+0x284>
800027e6:	30 15       	mov	r5,1
800027e8:	0e 93       	mov	r3,r7
800027ea:	33 70       	mov	r0,55
800027ec:	4c b6       	lddpc	r6,80002918 <sd_mmc_spi_internal_init+0x28c>
800027ee:	e0 62 00 ff 	mov	r2,255
800027f2:	fe 71 28 00 	mov	r1,-55296
800027f6:	09 88       	ld.ub	r8,r4[0x0]
800027f8:	ea 08 18 00 	cp.b	r8,r5
800027fc:	c1 10       	breq	8000281e <sd_mmc_spi_internal_init+0x192>
800027fe:	c0 63       	brcs	8000280a <sd_mmc_spi_internal_init+0x17e>
80002800:	30 29       	mov	r9,2
80002802:	f2 08 18 00 	cp.b	r8,r9
80002806:	c2 81       	brne	80002856 <sd_mmc_spi_internal_init+0x1ca>
80002808:	c1 98       	rjmp	8000283a <sd_mmc_spi_internal_init+0x1ae>
8000280a:	06 9b       	mov	r11,r3
8000280c:	30 1c       	mov	r12,1
8000280e:	f0 1f 00 42 	mcall	80002914 <sd_mmc_spi_internal_init+0x288>
80002812:	ac 8c       	st.b	r6[0x0],r12
80002814:	04 9b       	mov	r11,r2
80002816:	02 9c       	mov	r12,r1
80002818:	f0 1f 00 3b 	mcall	80002904 <sd_mmc_spi_internal_init+0x278>
8000281c:	c1 d8       	rjmp	80002856 <sd_mmc_spi_internal_init+0x1ca>
8000281e:	06 9b       	mov	r11,r3
80002820:	00 9c       	mov	r12,r0
80002822:	f0 1f 00 3d 	mcall	80002914 <sd_mmc_spi_internal_init+0x288>
80002826:	06 9b       	mov	r11,r3
80002828:	32 9c       	mov	r12,41
8000282a:	f0 1f 00 3b 	mcall	80002914 <sd_mmc_spi_internal_init+0x288>
8000282e:	ac 8c       	st.b	r6[0x0],r12
80002830:	04 9b       	mov	r11,r2
80002832:	02 9c       	mov	r12,r1
80002834:	f0 1f 00 34 	mcall	80002904 <sd_mmc_spi_internal_init+0x278>
80002838:	c0 f8       	rjmp	80002856 <sd_mmc_spi_internal_init+0x1ca>
8000283a:	06 9b       	mov	r11,r3
8000283c:	00 9c       	mov	r12,r0
8000283e:	f0 1f 00 36 	mcall	80002914 <sd_mmc_spi_internal_init+0x288>
80002842:	fc 1b 40 00 	movh	r11,0x4000
80002846:	32 9c       	mov	r12,41
80002848:	f0 1f 00 33 	mcall	80002914 <sd_mmc_spi_internal_init+0x288>
8000284c:	ac 8c       	st.b	r6[0x0],r12
8000284e:	04 9b       	mov	r11,r2
80002850:	02 9c       	mov	r12,r1
80002852:	f0 1f 00 2d 	mcall	80002904 <sd_mmc_spi_internal_init+0x278>
80002856:	2f f7       	sub	r7,-1
80002858:	5c 87       	casts.h	r7
8000285a:	fe 78 c3 50 	mov	r8,-15536
8000285e:	f0 07 19 00 	cp.h	r7,r8
80002862:	c4 80       	breq	800028f2 <sd_mmc_spi_internal_init+0x266>
80002864:	0d 89       	ld.ub	r9,r6[0x0]
80002866:	30 08       	mov	r8,0
80002868:	f0 09 18 00 	cp.b	r9,r8
8000286c:	cc 51       	brne	800027f6 <sd_mmc_spi_internal_init+0x16a>
8000286e:	4a 98       	lddpc	r8,80002910 <sd_mmc_spi_internal_init+0x284>
80002870:	11 89       	ld.ub	r9,r8[0x0]
80002872:	30 28       	mov	r8,2
80002874:	f0 09 18 00 	cp.b	r9,r8
80002878:	c0 a1       	brne	8000288c <sd_mmc_spi_internal_init+0x200>
8000287a:	f0 1f 00 2a 	mcall	80002920 <sd_mmc_spi_internal_init+0x294>
8000287e:	5b fc       	cp.w	r12,-1
80002880:	c3 90       	breq	800028f2 <sd_mmc_spi_internal_init+0x266>
80002882:	58 1c       	cp.w	r12,1
80002884:	c0 41       	brne	8000288c <sd_mmc_spi_internal_init+0x200>
80002886:	30 39       	mov	r9,3
80002888:	4a 28       	lddpc	r8,80002910 <sd_mmc_spi_internal_init+0x284>
8000288a:	b0 89       	st.b	r8[0x0],r9
8000288c:	30 0b       	mov	r11,0
8000288e:	33 bc       	mov	r12,59
80002890:	f0 1f 00 21 	mcall	80002914 <sd_mmc_spi_internal_init+0x288>
80002894:	4a 17       	lddpc	r7,80002918 <sd_mmc_spi_internal_init+0x28c>
80002896:	ae 8c       	st.b	r7[0x0],r12
80002898:	e0 6b 00 ff 	mov	r11,255
8000289c:	fe 7c 28 00 	mov	r12,-55296
800028a0:	f0 1f 00 19 	mcall	80002904 <sd_mmc_spi_internal_init+0x278>
800028a4:	e0 6b 02 00 	mov	r11,512
800028a8:	31 0c       	mov	r12,16
800028aa:	f0 1f 00 1b 	mcall	80002914 <sd_mmc_spi_internal_init+0x288>
800028ae:	ae 8c       	st.b	r7[0x0],r12
800028b0:	e0 6b 00 ff 	mov	r11,255
800028b4:	fe 7c 28 00 	mov	r12,-55296
800028b8:	f0 1f 00 13 	mcall	80002904 <sd_mmc_spi_internal_init+0x278>
800028bc:	0f 89       	ld.ub	r9,r7[0x0]
800028be:	30 08       	mov	r8,0
800028c0:	f0 09 18 00 	cp.b	r9,r8
800028c4:	c1 71       	brne	800028f2 <sd_mmc_spi_internal_init+0x266>
800028c6:	49 8c       	lddpc	r12,80002924 <sd_mmc_spi_internal_init+0x298>
800028c8:	f0 1f 00 18 	mcall	80002928 <sd_mmc_spi_internal_init+0x29c>
800028cc:	c1 30       	breq	800028f2 <sd_mmc_spi_internal_init+0x266>
800028ce:	f0 1f 00 18 	mcall	8000292c <sd_mmc_spi_internal_init+0x2a0>
800028d2:	30 19       	mov	r9,1
800028d4:	48 e8       	lddpc	r8,8000290c <sd_mmc_spi_internal_init+0x280>
800028d6:	b0 89       	st.b	r8[0x0],r9
800028d8:	48 7b       	lddpc	r11,800028f4 <sd_mmc_spi_internal_init+0x268>
800028da:	e0 68 1b 00 	mov	r8,6912
800028de:	ea 18 00 b7 	orh	r8,0xb7
800028e2:	97 18       	st.w	r11[0x4],r8
800028e4:	48 58       	lddpc	r8,800028f8 <sd_mmc_spi_internal_init+0x26c>
800028e6:	70 0a       	ld.w	r10,r8[0x0]
800028e8:	fe 7c 28 00 	mov	r12,-55296
800028ec:	f0 1f 00 04 	mcall	800028fc <sd_mmc_spi_internal_init+0x270>
800028f0:	da 3a       	popm	r0-r7,pc,r12=1
800028f2:	d8 3a       	popm	r0-r7,pc,r12=0
800028f4:	00 00       	add	r0,r0
800028f6:	06 e0       	st.h	--r3,r0
800028f8:	00 00       	add	r0,r0
800028fa:	06 f0       	st.b	--r3,r0
800028fc:	80 00       	ld.sh	r0,r0[0x0]
800028fe:	2f f0       	sub	r0,-1
80002900:	80 00       	ld.sh	r0,r0[0x0]
80002902:	2f 7e       	sub	lr,-9
80002904:	80 00       	ld.sh	r0,r0[0x0]
80002906:	30 ae       	mov	lr,10
80002908:	80 00       	ld.sh	r0,r0[0x0]
8000290a:	2f ca       	sub	r10,-4
8000290c:	00 00       	add	r0,r0
8000290e:	06 f4       	st.b	--r3,r4
80002910:	00 00       	add	r0,r0
80002912:	0a 46       	or	r6,r5
80002914:	80 00       	ld.sh	r0,r0[0x0]
80002916:	22 bc       	sub	r12,43
80002918:	00 00       	add	r0,r0
8000291a:	0a 58       	eor	r8,r5
8000291c:	80 00       	ld.sh	r0,r0[0x0]
8000291e:	24 e0       	sub	r0,78
80002920:	80 00       	ld.sh	r0,r0[0x0]
80002922:	24 54       	sub	r4,69
80002924:	00 00       	add	r0,r0
80002926:	0a 48       	or	r8,r5
80002928:	80 00       	ld.sh	r0,r0[0x0]
8000292a:	25 98       	sub	r8,89
8000292c:	80 00       	ld.sh	r0,r0[0x0]
8000292e:	20 04       	sub	r4,0

80002930 <sd_mmc_spi_init>:
80002930:	eb cd 40 10 	pushm	r4,lr
80002934:	fa c4 ff f8 	sub	r4,sp,-8
80002938:	48 88       	lddpc	r8,80002958 <sd_mmc_spi_init+0x28>
8000293a:	91 0c       	st.w	r8[0x0],r12
8000293c:	48 88       	lddpc	r8,8000295c <sd_mmc_spi_init+0x2c>
8000293e:	e8 ea 00 00 	ld.d	r10,r4[0]
80002942:	f0 eb 00 00 	st.d	r8[0],r10
80002946:	e8 ea 00 08 	ld.d	r10,r4[8]
8000294a:	f0 eb 00 08 	st.d	r8[8],r10
8000294e:	f0 1f 00 05 	mcall	80002960 <sd_mmc_spi_init+0x30>
80002952:	e3 cd 80 10 	ldm	sp++,r4,pc
80002956:	00 00       	add	r0,r0
80002958:	00 00       	add	r0,r0
8000295a:	06 f0       	st.b	--r3,r0
8000295c:	00 00       	add	r0,r0
8000295e:	06 e0       	st.h	--r3,r0
80002960:	80 00       	ld.sh	r0,r0[0x0]
80002962:	26 8c       	sub	r12,104

80002964 <flashc_set_wait_state>:
80002964:	fe 68 14 00 	mov	r8,-125952
80002968:	70 09       	ld.w	r9,r8[0x0]
8000296a:	f3 dc d0 c1 	bfins	r9,r12,0x6,0x1
8000296e:	91 09       	st.w	r8[0x0],r9
80002970:	5e fc       	retal	r12

80002972 <gpio_enable_module_pin>:
80002972:	f8 08 16 05 	lsr	r8,r12,0x5
80002976:	a9 68       	lsl	r8,0x8
80002978:	e0 28 f0 00 	sub	r8,61440
8000297c:	58 1b       	cp.w	r11,1
8000297e:	c0 d0       	breq	80002998 <gpio_enable_module_pin+0x26>
80002980:	c0 63       	brcs	8000298c <gpio_enable_module_pin+0x1a>
80002982:	58 2b       	cp.w	r11,2
80002984:	c1 00       	breq	800029a4 <gpio_enable_module_pin+0x32>
80002986:	58 3b       	cp.w	r11,3
80002988:	c1 40       	breq	800029b0 <gpio_enable_module_pin+0x3e>
8000298a:	5e ff       	retal	1
8000298c:	30 19       	mov	r9,1
8000298e:	f2 0c 09 49 	lsl	r9,r9,r12
80002992:	91 69       	st.w	r8[0x18],r9
80002994:	91 a9       	st.w	r8[0x28],r9
80002996:	c1 28       	rjmp	800029ba <gpio_enable_module_pin+0x48>
80002998:	30 19       	mov	r9,1
8000299a:	f2 0c 09 49 	lsl	r9,r9,r12
8000299e:	91 59       	st.w	r8[0x14],r9
800029a0:	91 a9       	st.w	r8[0x28],r9
800029a2:	c0 c8       	rjmp	800029ba <gpio_enable_module_pin+0x48>
800029a4:	30 19       	mov	r9,1
800029a6:	f2 0c 09 49 	lsl	r9,r9,r12
800029aa:	91 69       	st.w	r8[0x18],r9
800029ac:	91 99       	st.w	r8[0x24],r9
800029ae:	c0 68       	rjmp	800029ba <gpio_enable_module_pin+0x48>
800029b0:	30 19       	mov	r9,1
800029b2:	f2 0c 09 49 	lsl	r9,r9,r12
800029b6:	91 59       	st.w	r8[0x14],r9
800029b8:	91 99       	st.w	r8[0x24],r9
800029ba:	30 19       	mov	r9,1
800029bc:	f2 0c 09 4c 	lsl	r12,r9,r12
800029c0:	91 2c       	st.w	r8[0x8],r12
800029c2:	5e fd       	retal	0

800029c4 <gpio_enable_module>:
800029c4:	d4 21       	pushm	r4-r7,lr
800029c6:	18 97       	mov	r7,r12
800029c8:	16 94       	mov	r4,r11
800029ca:	58 0b       	cp.w	r11,0
800029cc:	c0 31       	brne	800029d2 <gpio_enable_module+0xe>
800029ce:	30 05       	mov	r5,0
800029d0:	c0 d8       	rjmp	800029ea <gpio_enable_module+0x26>
800029d2:	30 06       	mov	r6,0
800029d4:	0c 95       	mov	r5,r6
800029d6:	6e 1b       	ld.w	r11,r7[0x4]
800029d8:	6e 0c       	ld.w	r12,r7[0x0]
800029da:	f0 1f 00 06 	mcall	800029f0 <gpio_enable_module+0x2c>
800029de:	18 45       	or	r5,r12
800029e0:	2f 87       	sub	r7,-8
800029e2:	2f f6       	sub	r6,-1
800029e4:	0c 34       	cp.w	r4,r6
800029e6:	fe 9b ff f8 	brhi	800029d6 <gpio_enable_module+0x12>
800029ea:	0a 9c       	mov	r12,r5
800029ec:	d8 22       	popm	r4-r7,pc
800029ee:	00 00       	add	r0,r0
800029f0:	80 00       	ld.sh	r0,r0[0x0]
800029f2:	29 72       	sub	r2,-105

800029f4 <gpio_enable_pin_pull_up>:
800029f4:	f8 08 16 05 	lsr	r8,r12,0x5
800029f8:	a9 68       	lsl	r8,0x8
800029fa:	e0 28 f0 00 	sub	r8,61440
800029fe:	30 19       	mov	r9,1
80002a00:	f2 0c 09 4c 	lsl	r12,r9,r12
80002a04:	f1 4c 00 74 	st.w	r8[116],r12
80002a08:	5e fc       	retal	r12

80002a0a <gpio_set_gpio_pin>:
80002a0a:	f8 08 16 05 	lsr	r8,r12,0x5
80002a0e:	a9 68       	lsl	r8,0x8
80002a10:	e0 28 f0 00 	sub	r8,61440
80002a14:	30 19       	mov	r9,1
80002a16:	f2 0c 09 4c 	lsl	r12,r9,r12
80002a1a:	f1 4c 00 54 	st.w	r8[84],r12
80002a1e:	f1 4c 00 44 	st.w	r8[68],r12
80002a22:	91 1c       	st.w	r8[0x4],r12
80002a24:	5e fc       	retal	r12

80002a26 <gpio_clr_gpio_pin>:
80002a26:	f8 08 16 05 	lsr	r8,r12,0x5
80002a2a:	a9 68       	lsl	r8,0x8
80002a2c:	e0 28 f0 00 	sub	r8,61440
80002a30:	30 19       	mov	r9,1
80002a32:	f2 0c 09 4c 	lsl	r12,r9,r12
80002a36:	f1 4c 00 58 	st.w	r8[88],r12
80002a3a:	f1 4c 00 44 	st.w	r8[68],r12
80002a3e:	91 1c       	st.w	r8[0x4],r12
80002a40:	5e fc       	retal	r12

80002a42 <gpio_enable_pin_glitch_filter>:
80002a42:	f8 08 16 05 	lsr	r8,r12,0x5
80002a46:	a9 68       	lsl	r8,0x8
80002a48:	e0 28 f0 00 	sub	r8,61440
80002a4c:	30 19       	mov	r9,1
80002a4e:	f2 0c 09 4c 	lsl	r12,r9,r12
80002a52:	f1 4c 00 c4 	st.w	r8[196],r12
80002a56:	5e fc       	retal	r12

80002a58 <gpio_enable_pin_interrupt>:
80002a58:	f8 08 16 05 	lsr	r8,r12,0x5
80002a5c:	a9 68       	lsl	r8,0x8
80002a5e:	e0 28 f0 00 	sub	r8,61440
80002a62:	30 19       	mov	r9,1
80002a64:	f2 0c 09 4c 	lsl	r12,r9,r12
80002a68:	f1 4c 00 c4 	st.w	r8[196],r12
80002a6c:	12 3b       	cp.w	r11,r9
80002a6e:	c0 a0       	breq	80002a82 <gpio_enable_pin_interrupt+0x2a>
80002a70:	c0 43       	brcs	80002a78 <gpio_enable_pin_interrupt+0x20>
80002a72:	58 2b       	cp.w	r11,2
80002a74:	c1 11       	brne	80002a96 <gpio_enable_pin_interrupt+0x3e>
80002a76:	c0 b8       	rjmp	80002a8c <gpio_enable_pin_interrupt+0x34>
80002a78:	f1 4c 00 a8 	st.w	r8[168],r12
80002a7c:	f1 4c 00 b8 	st.w	r8[184],r12
80002a80:	c0 c8       	rjmp	80002a98 <gpio_enable_pin_interrupt+0x40>
80002a82:	f1 4c 00 a4 	st.w	r8[164],r12
80002a86:	f1 4c 00 b8 	st.w	r8[184],r12
80002a8a:	c0 78       	rjmp	80002a98 <gpio_enable_pin_interrupt+0x40>
80002a8c:	f1 4c 00 a8 	st.w	r8[168],r12
80002a90:	f1 4c 00 b4 	st.w	r8[180],r12
80002a94:	c0 28       	rjmp	80002a98 <gpio_enable_pin_interrupt+0x40>
80002a96:	5e ff       	retal	1
80002a98:	f1 4c 00 94 	st.w	r8[148],r12
80002a9c:	5e fd       	retal	0

80002a9e <gpio_disable_pin_interrupt>:
80002a9e:	f8 08 16 05 	lsr	r8,r12,0x5
80002aa2:	a9 68       	lsl	r8,0x8
80002aa4:	e0 28 f0 00 	sub	r8,61440
80002aa8:	30 19       	mov	r9,1
80002aaa:	f2 0c 09 4c 	lsl	r12,r9,r12
80002aae:	f1 4c 00 98 	st.w	r8[152],r12
80002ab2:	5e fc       	retal	r12

80002ab4 <gpio_get_pin_interrupt_flag>:
80002ab4:	f8 08 16 05 	lsr	r8,r12,0x5
80002ab8:	a9 68       	lsl	r8,0x8
80002aba:	e0 28 f0 00 	sub	r8,61440
80002abe:	f0 f8 00 d0 	ld.w	r8,r8[208]
80002ac2:	f0 0c 0a 4c 	lsr	r12,r8,r12
80002ac6:	f9 dc c0 01 	bfextu	r12,r12,0x0,0x1
80002aca:	5e fc       	retal	r12

80002acc <gpio_clear_pin_interrupt_flag>:
80002acc:	f8 08 16 05 	lsr	r8,r12,0x5
80002ad0:	a9 68       	lsl	r8,0x8
80002ad2:	e0 28 f0 00 	sub	r8,61440
80002ad6:	30 19       	mov	r9,1
80002ad8:	f2 0c 09 4c 	lsl	r12,r9,r12
80002adc:	f1 4c 00 d8 	st.w	r8[216],r12
80002ae0:	5e fc       	retal	r12

80002ae2 <_unhandled_interrupt>:
80002ae2:	c0 08       	rjmp	80002ae2 <_unhandled_interrupt>

80002ae4 <INTC_register_interrupt>:
80002ae4:	f6 08 16 05 	lsr	r8,r11,0x5
80002ae8:	49 99       	lddpc	r9,80002b4c <INTC_register_interrupt+0x68>
80002aea:	f2 08 00 39 	add	r9,r9,r8<<0x3
80002aee:	f7 db c0 05 	bfextu	r11,r11,0x0,0x5
80002af2:	72 19       	ld.w	r9,r9[0x4]
80002af4:	f2 0b 09 2c 	st.w	r9[r11<<0x2],r12
80002af8:	58 0a       	cp.w	r10,0
80002afa:	c0 91       	brne	80002b0c <INTC_register_interrupt+0x28>
80002afc:	49 59       	lddpc	r9,80002b50 <INTC_register_interrupt+0x6c>
80002afe:	49 6a       	lddpc	r10,80002b54 <INTC_register_interrupt+0x70>
80002b00:	12 1a       	sub	r10,r9
80002b02:	fe 79 08 00 	mov	r9,-63488
80002b06:	f2 08 09 2a 	st.w	r9[r8<<0x2],r10
80002b0a:	5e fc       	retal	r12
80002b0c:	58 1a       	cp.w	r10,1
80002b0e:	c0 a1       	brne	80002b22 <INTC_register_interrupt+0x3e>
80002b10:	49 09       	lddpc	r9,80002b50 <INTC_register_interrupt+0x6c>
80002b12:	49 2a       	lddpc	r10,80002b58 <INTC_register_interrupt+0x74>
80002b14:	12 1a       	sub	r10,r9
80002b16:	bf aa       	sbr	r10,0x1e
80002b18:	fe 79 08 00 	mov	r9,-63488
80002b1c:	f2 08 09 2a 	st.w	r9[r8<<0x2],r10
80002b20:	5e fc       	retal	r12
80002b22:	58 2a       	cp.w	r10,2
80002b24:	c0 a1       	brne	80002b38 <INTC_register_interrupt+0x54>
80002b26:	48 b9       	lddpc	r9,80002b50 <INTC_register_interrupt+0x6c>
80002b28:	48 da       	lddpc	r10,80002b5c <INTC_register_interrupt+0x78>
80002b2a:	12 1a       	sub	r10,r9
80002b2c:	bf ba       	sbr	r10,0x1f
80002b2e:	fe 79 08 00 	mov	r9,-63488
80002b32:	f2 08 09 2a 	st.w	r9[r8<<0x2],r10
80002b36:	5e fc       	retal	r12
80002b38:	48 69       	lddpc	r9,80002b50 <INTC_register_interrupt+0x6c>
80002b3a:	48 aa       	lddpc	r10,80002b60 <INTC_register_interrupt+0x7c>
80002b3c:	12 1a       	sub	r10,r9
80002b3e:	ea 1a c0 00 	orh	r10,0xc000
80002b42:	fe 79 08 00 	mov	r9,-63488
80002b46:	f2 08 09 2a 	st.w	r9[r8<<0x2],r10
80002b4a:	5e fc       	retal	r12
80002b4c:	80 00       	ld.sh	r0,r0[0x0]
80002b4e:	7a 00       	ld.w	r0,sp[0x0]
80002b50:	80 00       	ld.sh	r0,r0[0x0]
80002b52:	78 00       	ld.w	r0,r12[0x0]
80002b54:	80 00       	ld.sh	r0,r0[0x0]
80002b56:	79 04       	ld.w	r4,r12[0x40]
80002b58:	80 00       	ld.sh	r0,r0[0x0]
80002b5a:	79 12       	ld.w	r2,r12[0x44]
80002b5c:	80 00       	ld.sh	r0,r0[0x0]
80002b5e:	79 20       	ld.w	r0,r12[0x48]
80002b60:	80 00       	ld.sh	r0,r0[0x0]
80002b62:	79 2e       	ld.w	lr,r12[0x48]

80002b64 <INTC_init_interrupts>:
80002b64:	d4 21       	pushm	r4-r7,lr
80002b66:	49 18       	lddpc	r8,80002ba8 <INTC_init_interrupts+0x44>
80002b68:	e3 b8 00 01 	mtsr	0x4,r8
80002b6c:	49 0e       	lddpc	lr,80002bac <INTC_init_interrupts+0x48>
80002b6e:	30 07       	mov	r7,0
80002b70:	0e 94       	mov	r4,r7
80002b72:	49 0c       	lddpc	r12,80002bb0 <INTC_init_interrupts+0x4c>
80002b74:	49 05       	lddpc	r5,80002bb4 <INTC_init_interrupts+0x50>
80002b76:	10 15       	sub	r5,r8
80002b78:	fe 76 08 00 	mov	r6,-63488
80002b7c:	c1 08       	rjmp	80002b9c <INTC_init_interrupts+0x38>
80002b7e:	08 98       	mov	r8,r4
80002b80:	7c 1b       	ld.w	r11,lr[0x4]
80002b82:	7c 0a       	ld.w	r10,lr[0x0]
80002b84:	f6 08 09 2c 	st.w	r11[r8<<0x2],r12
80002b88:	2f f8       	sub	r8,-1
80002b8a:	10 3a       	cp.w	r10,r8
80002b8c:	fe 9b ff fc 	brhi	80002b84 <INTC_init_interrupts+0x20>
80002b90:	ec 07 09 25 	st.w	r6[r7<<0x2],r5
80002b94:	2f f7       	sub	r7,-1
80002b96:	2f 8e       	sub	lr,-8
80002b98:	59 47       	cp.w	r7,20
80002b9a:	c0 50       	breq	80002ba4 <INTC_init_interrupts+0x40>
80002b9c:	7c 08       	ld.w	r8,lr[0x0]
80002b9e:	58 08       	cp.w	r8,0
80002ba0:	ce f1       	brne	80002b7e <INTC_init_interrupts+0x1a>
80002ba2:	cf 7b       	rjmp	80002b90 <INTC_init_interrupts+0x2c>
80002ba4:	d8 22       	popm	r4-r7,pc
80002ba6:	00 00       	add	r0,r0
80002ba8:	80 00       	ld.sh	r0,r0[0x0]
80002baa:	78 00       	ld.w	r0,r12[0x0]
80002bac:	80 00       	ld.sh	r0,r0[0x0]
80002bae:	7a 00       	ld.w	r0,sp[0x0]
80002bb0:	80 00       	ld.sh	r0,r0[0x0]
80002bb2:	2a e2       	sub	r2,-82
80002bb4:	80 00       	ld.sh	r0,r0[0x0]
80002bb6:	79 04       	ld.w	r4,r12[0x40]

80002bb8 <_get_interrupt_handler>:
80002bb8:	fe 78 08 00 	mov	r8,-63488
80002bbc:	e0 69 00 83 	mov	r9,131
80002bc0:	f2 0c 01 0c 	sub	r12,r9,r12
80002bc4:	f0 0c 03 29 	ld.w	r9,r8[r12<<0x2]
80002bc8:	f2 ca ff c0 	sub	r10,r9,-64
80002bcc:	f0 0a 03 28 	ld.w	r8,r8[r10<<0x2]
80002bd0:	58 08       	cp.w	r8,0
80002bd2:	c0 21       	brne	80002bd6 <_get_interrupt_handler+0x1e>
80002bd4:	5e fd       	retal	0
80002bd6:	f0 08 12 00 	clz	r8,r8
80002bda:	48 5a       	lddpc	r10,80002bec <_get_interrupt_handler+0x34>
80002bdc:	f4 09 00 39 	add	r9,r10,r9<<0x3
80002be0:	f0 08 11 1f 	rsub	r8,r8,31
80002be4:	72 19       	ld.w	r9,r9[0x4]
80002be6:	f2 08 03 2c 	ld.w	r12,r9[r8<<0x2]
80002bea:	5e fc       	retal	r12
80002bec:	80 00       	ld.sh	r0,r0[0x0]
80002bee:	7a 00       	ld.w	r0,sp[0x0]

80002bf0 <pdca_get_handler>:
80002bf0:	30 e8       	mov	r8,14
80002bf2:	f0 0c 18 00 	cp.b	r12,r8
80002bf6:	e0 88 00 03 	brls	80002bfc <pdca_get_handler+0xc>
80002bfa:	5e fe       	retal	-1
80002bfc:	a7 6c       	lsl	r12,0x6
80002bfe:	e0 3c 00 00 	sub	r12,65536
80002c02:	5e fc       	retal	r12

80002c04 <pdca_disable>:
80002c04:	d4 01       	pushm	lr
80002c06:	f0 1f 00 03 	mcall	80002c10 <pdca_disable+0xc>
80002c0a:	30 28       	mov	r8,2
80002c0c:	99 58       	st.w	r12[0x14],r8
80002c0e:	d8 02       	popm	pc
80002c10:	80 00       	ld.sh	r0,r0[0x0]
80002c12:	2b f0       	sub	r0,-65

80002c14 <pdca_enable>:
80002c14:	d4 01       	pushm	lr
80002c16:	f0 1f 00 03 	mcall	80002c20 <pdca_enable+0xc>
80002c1a:	30 18       	mov	r8,1
80002c1c:	99 58       	st.w	r12[0x14],r8
80002c1e:	d8 02       	popm	pc
80002c20:	80 00       	ld.sh	r0,r0[0x0]
80002c22:	2b f0       	sub	r0,-65

80002c24 <pdca_enable_interrupt_transfer_complete>:
80002c24:	d4 01       	pushm	lr
80002c26:	f0 1f 00 03 	mcall	80002c30 <pdca_enable_interrupt_transfer_complete+0xc>
80002c2a:	30 28       	mov	r8,2
80002c2c:	99 88       	st.w	r12[0x20],r8
80002c2e:	d8 02       	popm	pc
80002c30:	80 00       	ld.sh	r0,r0[0x0]
80002c32:	2b f0       	sub	r0,-65

80002c34 <pdca_disable_interrupt_reload_counter_zero>:
80002c34:	d4 01       	pushm	lr
80002c36:	20 1d       	sub	sp,4
80002c38:	f0 1f 00 08 	mcall	80002c58 <pdca_disable_interrupt_reload_counter_zero+0x24>
80002c3c:	e1 b8 00 00 	mfsr	r8,0x0
80002c40:	50 08       	stdsp	sp[0x0],r8
80002c42:	d3 03       	ssrf	0x10
80002c44:	40 08       	lddsp	r8,sp[0x0]
80002c46:	30 19       	mov	r9,1
80002c48:	99 99       	st.w	r12[0x24],r9
80002c4a:	78 b9       	ld.w	r9,r12[0x2c]
80002c4c:	e6 18 00 01 	andh	r8,0x1,COH
80002c50:	c0 21       	brne	80002c54 <pdca_disable_interrupt_reload_counter_zero+0x20>
80002c52:	d5 03       	csrf	0x10
80002c54:	2f fd       	sub	sp,-4
80002c56:	d8 02       	popm	pc
80002c58:	80 00       	ld.sh	r0,r0[0x0]
80002c5a:	2b f0       	sub	r0,-65

80002c5c <pdca_disable_interrupt_transfer_complete>:
80002c5c:	d4 01       	pushm	lr
80002c5e:	20 1d       	sub	sp,4
80002c60:	f0 1f 00 08 	mcall	80002c80 <pdca_disable_interrupt_transfer_complete+0x24>
80002c64:	e1 b8 00 00 	mfsr	r8,0x0
80002c68:	50 08       	stdsp	sp[0x0],r8
80002c6a:	d3 03       	ssrf	0x10
80002c6c:	40 08       	lddsp	r8,sp[0x0]
80002c6e:	30 29       	mov	r9,2
80002c70:	99 99       	st.w	r12[0x24],r9
80002c72:	78 b9       	ld.w	r9,r12[0x2c]
80002c74:	e6 18 00 01 	andh	r8,0x1,COH
80002c78:	c0 21       	brne	80002c7c <pdca_disable_interrupt_transfer_complete+0x20>
80002c7a:	d5 03       	csrf	0x10
80002c7c:	2f fd       	sub	sp,-4
80002c7e:	d8 02       	popm	pc
80002c80:	80 00       	ld.sh	r0,r0[0x0]
80002c82:	2b f0       	sub	r0,-65

80002c84 <pdca_load_channel>:
80002c84:	eb cd 40 c0 	pushm	r6-r7,lr
80002c88:	20 1d       	sub	sp,4
80002c8a:	16 96       	mov	r6,r11
80002c8c:	14 97       	mov	r7,r10
80002c8e:	f0 1f 00 0b 	mcall	80002cb8 <pdca_load_channel+0x34>
80002c92:	e1 b8 00 00 	mfsr	r8,0x0
80002c96:	50 08       	stdsp	sp[0x0],r8
80002c98:	d3 03       	ssrf	0x10
80002c9a:	40 08       	lddsp	r8,sp[0x0]
80002c9c:	99 06       	st.w	r12[0x0],r6
80002c9e:	99 27       	st.w	r12[0x8],r7
80002ca0:	e0 69 01 00 	mov	r9,256
80002ca4:	99 59       	st.w	r12[0x14],r9
80002ca6:	78 b9       	ld.w	r9,r12[0x2c]
80002ca8:	e6 18 00 01 	andh	r8,0x1,COH
80002cac:	c0 21       	brne	80002cb0 <pdca_load_channel+0x2c>
80002cae:	d5 03       	csrf	0x10
80002cb0:	2f fd       	sub	sp,-4
80002cb2:	e3 cd 80 c0 	ldm	sp++,r6-r7,pc
80002cb6:	00 00       	add	r0,r0
80002cb8:	80 00       	ld.sh	r0,r0[0x0]
80002cba:	2b f0       	sub	r0,-65

80002cbc <pdca_init_channel>:
80002cbc:	eb cd 40 e0 	pushm	r5-r7,lr
80002cc0:	20 1d       	sub	sp,4
80002cc2:	18 95       	mov	r5,r12
80002cc4:	16 96       	mov	r6,r11
80002cc6:	f0 1f 00 13 	mcall	80002d10 <pdca_init_channel+0x54>
80002cca:	18 97       	mov	r7,r12
80002ccc:	0a 9c       	mov	r12,r5
80002cce:	f0 1f 00 12 	mcall	80002d14 <pdca_init_channel+0x58>
80002cd2:	0a 9c       	mov	r12,r5
80002cd4:	f0 1f 00 11 	mcall	80002d18 <pdca_init_channel+0x5c>
80002cd8:	e1 b8 00 00 	mfsr	r8,0x0
80002cdc:	50 08       	stdsp	sp[0x0],r8
80002cde:	d3 03       	ssrf	0x10
80002ce0:	40 08       	lddsp	r8,sp[0x0]
80002ce2:	6c 09       	ld.w	r9,r6[0x0]
80002ce4:	8f 09       	st.w	r7[0x0],r9
80002ce6:	6c 19       	ld.w	r9,r6[0x4]
80002ce8:	8f 29       	st.w	r7[0x8],r9
80002cea:	6c 49       	ld.w	r9,r6[0x10]
80002cec:	8f 19       	st.w	r7[0x4],r9
80002cee:	6c 29       	ld.w	r9,r6[0x8]
80002cf0:	8f 39       	st.w	r7[0xc],r9
80002cf2:	6c 39       	ld.w	r9,r6[0xc]
80002cf4:	8f 49       	st.w	r7[0x10],r9
80002cf6:	6c 59       	ld.w	r9,r6[0x14]
80002cf8:	8f 69       	st.w	r7[0x18],r9
80002cfa:	e0 69 01 00 	mov	r9,256
80002cfe:	8f 59       	st.w	r7[0x14],r9
80002d00:	6e b9       	ld.w	r9,r7[0x2c]
80002d02:	e6 18 00 01 	andh	r8,0x1,COH
80002d06:	c0 21       	brne	80002d0a <pdca_init_channel+0x4e>
80002d08:	d5 03       	csrf	0x10
80002d0a:	2f fd       	sub	sp,-4
80002d0c:	e3 cf 80 e0 	ldm	sp++,r5-r7,pc,r12=0
80002d10:	80 00       	ld.sh	r0,r0[0x0]
80002d12:	2b f0       	sub	r0,-65
80002d14:	80 00       	ld.sh	r0,r0[0x0]
80002d16:	2c 5c       	sub	r12,-59
80002d18:	80 00       	ld.sh	r0,r0[0x0]
80002d1a:	2c 34       	sub	r4,-61

80002d1c <pm_set_osc0_mode>:
80002d1c:	78 a8       	ld.w	r8,r12[0x28]
80002d1e:	f1 db d0 03 	bfins	r8,r11,0x0,0x3
80002d22:	99 a8       	st.w	r12[0x28],r8
80002d24:	5e fc       	retal	r12
80002d26:	d7 03       	nop

80002d28 <pm_enable_osc0_crystal>:
80002d28:	d4 01       	pushm	lr
80002d2a:	ec 5b bb 9f 	cp.w	r11,899999
80002d2e:	e0 8b 00 04 	brhi	80002d36 <pm_enable_osc0_crystal+0xe>
80002d32:	30 4b       	mov	r11,4
80002d34:	c1 38       	rjmp	80002d5a <pm_enable_osc0_crystal+0x32>
80002d36:	e0 68 c6 bf 	mov	r8,50879
80002d3a:	ea 18 00 2d 	orh	r8,0x2d
80002d3e:	10 3b       	cp.w	r11,r8
80002d40:	e0 8b 00 04 	brhi	80002d48 <pm_enable_osc0_crystal+0x20>
80002d44:	30 5b       	mov	r11,5
80002d46:	c0 a8       	rjmp	80002d5a <pm_enable_osc0_crystal+0x32>
80002d48:	e0 68 12 00 	mov	r8,4608
80002d4c:	ea 18 00 7a 	orh	r8,0x7a
80002d50:	10 3b       	cp.w	r11,r8
80002d52:	f9 bb 03 06 	movlo	r11,6
80002d56:	f9 bb 02 07 	movhs	r11,7
80002d5a:	f0 1f 00 02 	mcall	80002d60 <pm_enable_osc0_crystal+0x38>
80002d5e:	d8 02       	popm	pc
80002d60:	80 00       	ld.sh	r0,r0[0x0]
80002d62:	2d 1c       	sub	r12,-47

80002d64 <pm_enable_clk0_no_wait>:
80002d64:	78 a8       	ld.w	r8,r12[0x28]
80002d66:	f1 db d1 03 	bfins	r8,r11,0x8,0x3
80002d6a:	99 a8       	st.w	r12[0x28],r8
80002d6c:	78 08       	ld.w	r8,r12[0x0]
80002d6e:	a3 a8       	sbr	r8,0x2
80002d70:	99 08       	st.w	r12[0x0],r8
80002d72:	5e fc       	retal	r12

80002d74 <pm_wait_for_clk0_ready>:
80002d74:	79 58       	ld.w	r8,r12[0x54]
80002d76:	e2 18 00 80 	andl	r8,0x80,COH
80002d7a:	cf d0       	breq	80002d74 <pm_wait_for_clk0_ready>
80002d7c:	5e fc       	retal	r12
80002d7e:	d7 03       	nop

80002d80 <pm_enable_clk0>:
80002d80:	eb cd 40 80 	pushm	r7,lr
80002d84:	18 97       	mov	r7,r12
80002d86:	f0 1f 00 04 	mcall	80002d94 <pm_enable_clk0+0x14>
80002d8a:	0e 9c       	mov	r12,r7
80002d8c:	f0 1f 00 03 	mcall	80002d98 <pm_enable_clk0+0x18>
80002d90:	e3 cd 80 80 	ldm	sp++,r7,pc
80002d94:	80 00       	ld.sh	r0,r0[0x0]
80002d96:	2d 64       	sub	r4,-42
80002d98:	80 00       	ld.sh	r0,r0[0x0]
80002d9a:	2d 74       	sub	r4,-41

80002d9c <pm_cksel>:
80002d9c:	eb cd 40 d0 	pushm	r4,r6-r7,lr
80002da0:	fa c4 ff f0 	sub	r4,sp,-16
80002da4:	30 0e       	mov	lr,0
80002da6:	09 f7       	ld.ub	r7,r4[0x7]
80002da8:	ef d7 c0 03 	bfextu	r7,r7,0x0,0x3
80002dac:	fd d7 d0 03 	bfins	lr,r7,0x0,0x3
80002db0:	09 b4       	ld.ub	r4,r4[0x3]
80002db2:	08 96       	mov	r6,r4
80002db4:	e9 d4 c0 01 	bfextu	r4,r4,0x0,0x1
80002db8:	fd d4 d0 e1 	bfins	lr,r4,0x7,0x1
80002dbc:	fd d7 d1 03 	bfins	lr,r7,0x8,0x3
80002dc0:	fd d4 d1 e1 	bfins	lr,r4,0xf,0x1
80002dc4:	fd da d2 03 	bfins	lr,r10,0x10,0x3
80002dc8:	fd db d2 e1 	bfins	lr,r11,0x17,0x1
80002dcc:	fd d8 d3 03 	bfins	lr,r8,0x18,0x3
80002dd0:	fd d9 d3 e1 	bfins	lr,r9,0x1f,0x1
80002dd4:	99 1e       	st.w	r12[0x4],lr
80002dd6:	79 58       	ld.w	r8,r12[0x54]
80002dd8:	e2 18 00 20 	andl	r8,0x20,COH
80002ddc:	cf d0       	breq	80002dd6 <pm_cksel+0x3a>
80002dde:	e3 cd 80 d0 	ldm	sp++,r4,r6-r7,pc

80002de2 <pm_pll_setup>:
80002de2:	eb cd 40 80 	pushm	r7,lr
80002de6:	40 27       	lddsp	r7,sp[0x8]
80002de8:	30 0e       	mov	lr,0
80002dea:	fd d8 d0 21 	bfins	lr,r8,0x1,0x1
80002dee:	fd d9 d1 04 	bfins	lr,r9,0x8,0x4
80002df2:	fd da d2 04 	bfins	lr,r10,0x10,0x4
80002df6:	fd d7 d3 06 	bfins	lr,r7,0x18,0x6
80002dfa:	2f 8b       	sub	r11,-8
80002dfc:	f8 0b 09 2e 	st.w	r12[r11<<0x2],lr
80002e00:	e3 cd 80 80 	ldm	sp++,r7,pc

80002e04 <pm_pll_set_option>:
80002e04:	d4 01       	pushm	lr
80002e06:	2f 8b       	sub	r11,-8
80002e08:	f8 0b 03 2e 	ld.w	lr,r12[r11<<0x2]
80002e0c:	f5 e9 10 19 	or	r9,r10,r9<<0x1
80002e10:	f3 e8 10 28 	or	r8,r9,r8<<0x2
80002e14:	fd d8 d0 43 	bfins	lr,r8,0x2,0x3
80002e18:	f8 0b 09 2e 	st.w	r12[r11<<0x2],lr
80002e1c:	d8 02       	popm	pc

80002e1e <pm_pll_enable>:
80002e1e:	2f 8b       	sub	r11,-8
80002e20:	f8 0b 03 28 	ld.w	r8,r12[r11<<0x2]
80002e24:	a1 a8       	sbr	r8,0x0
80002e26:	f8 0b 09 28 	st.w	r12[r11<<0x2],r8
80002e2a:	5e fc       	retal	r12

80002e2c <pm_wait_for_pll0_locked>:
80002e2c:	79 58       	ld.w	r8,r12[0x54]
80002e2e:	f1 d8 c0 01 	bfextu	r8,r8,0x0,0x1
80002e32:	cf d0       	breq	80002e2c <pm_wait_for_pll0_locked>
80002e34:	5e fc       	retal	r12

80002e36 <pm_switch_to_clock>:
80002e36:	78 08       	ld.w	r8,r12[0x0]
80002e38:	f1 db d0 02 	bfins	r8,r11,0x0,0x2
80002e3c:	99 08       	st.w	r12[0x0],r8
80002e3e:	5e fc       	retal	r12

80002e40 <pm_switch_to_osc0>:
80002e40:	eb cd 40 c0 	pushm	r6-r7,lr
80002e44:	18 97       	mov	r7,r12
80002e46:	14 96       	mov	r6,r10
80002e48:	f0 1f 00 06 	mcall	80002e60 <pm_switch_to_osc0+0x20>
80002e4c:	0c 9b       	mov	r11,r6
80002e4e:	0e 9c       	mov	r12,r7
80002e50:	f0 1f 00 05 	mcall	80002e64 <pm_switch_to_osc0+0x24>
80002e54:	30 1b       	mov	r11,1
80002e56:	0e 9c       	mov	r12,r7
80002e58:	f0 1f 00 04 	mcall	80002e68 <pm_switch_to_osc0+0x28>
80002e5c:	e3 cd 80 c0 	ldm	sp++,r6-r7,pc
80002e60:	80 00       	ld.sh	r0,r0[0x0]
80002e62:	2d 28       	sub	r8,-46
80002e64:	80 00       	ld.sh	r0,r0[0x0]
80002e66:	2d 80       	sub	r0,-40
80002e68:	80 00       	ld.sh	r0,r0[0x0]
80002e6a:	2e 36       	sub	r6,-29

80002e6c <pwm_channel_init>:
80002e6c:	58 0b       	cp.w	r11,0
80002e6e:	c1 90       	breq	80002ea0 <pwm_channel_init+0x34>
80002e70:	58 6c       	cp.w	r12,6
80002e72:	e0 8b 00 17 	brhi	80002ea0 <pwm_channel_init+0x34>
80002e76:	76 0a       	ld.w	r10,r11[0x0]
80002e78:	fe 78 30 00 	mov	r8,-53248
80002e7c:	f8 c9 ff f0 	sub	r9,r12,-16
80002e80:	a5 79       	lsl	r9,0x5
80002e82:	f0 09 00 09 	add	r9,r8,r9
80002e86:	93 0a       	st.w	r9[0x0],r10
80002e88:	76 19       	ld.w	r9,r11[0x4]
80002e8a:	a5 7c       	lsl	r12,0x5
80002e8c:	f0 0c 00 0c 	add	r12,r8,r12
80002e90:	f8 c8 fd fc 	sub	r8,r12,-516
80002e94:	91 09       	st.w	r8[0x0],r9
80002e96:	76 28       	ld.w	r8,r11[0x8]
80002e98:	f8 cc fd f8 	sub	r12,r12,-520
80002e9c:	99 08       	st.w	r12[0x0],r8
80002e9e:	5e fd       	retal	0
80002ea0:	5e ff       	retal	1

80002ea2 <pwm_start_channels>:
80002ea2:	18 98       	mov	r8,r12
80002ea4:	e0 18 ff 80 	andl	r8,0xff80
80002ea8:	c0 20       	breq	80002eac <pwm_start_channels+0xa>
80002eaa:	5e ff       	retal	1
80002eac:	fe 78 30 00 	mov	r8,-53248
80002eb0:	91 1c       	st.w	r8[0x4],r12
80002eb2:	5e fd       	retal	0

80002eb4 <pwm_init>:
80002eb4:	e1 b8 00 00 	mfsr	r8,0x0
80002eb8:	58 0c       	cp.w	r12,0
80002eba:	c0 21       	brne	80002ebe <pwm_init+0xa>
80002ebc:	5e ff       	retal	1
80002ebe:	e6 18 00 01 	andh	r8,0x1,COH
80002ec2:	c0 91       	brne	80002ed4 <pwm_init+0x20>
80002ec4:	d3 03       	ssrf	0x10
80002ec6:	fe 78 30 00 	mov	r8,-53248
80002eca:	37 f9       	mov	r9,127
80002ecc:	91 59       	st.w	r8[0x14],r9
80002ece:	70 78       	ld.w	r8,r8[0x1c]
80002ed0:	d5 03       	csrf	0x10
80002ed2:	c0 68       	rjmp	80002ede <pwm_init+0x2a>
80002ed4:	fe 78 30 00 	mov	r8,-53248
80002ed8:	37 f9       	mov	r9,127
80002eda:	91 59       	st.w	r8[0x14],r9
80002edc:	70 78       	ld.w	r8,r8[0x1c]
80002ede:	78 08       	ld.w	r8,r12[0x0]
80002ee0:	78 39       	ld.w	r9,r12[0xc]
80002ee2:	a9 69       	lsl	r9,0x8
80002ee4:	f3 e8 11 09 	or	r9,r9,r8<<0x10
80002ee8:	78 18       	ld.w	r8,r12[0x4]
80002eea:	10 49       	or	r9,r8
80002eec:	78 28       	ld.w	r8,r12[0x8]
80002eee:	f3 e8 11 89 	or	r9,r9,r8<<0x18
80002ef2:	fe 78 30 00 	mov	r8,-53248
80002ef6:	91 09       	st.w	r8[0x0],r9
80002ef8:	5e fd       	retal	0

80002efa <getBaudDiv>:
80002efa:	f8 c8 00 01 	sub	r8,r12,1
80002efe:	f0 0b 00 0b 	add	r11,r8,r11
80002f02:	f6 0c 0d 0a 	divu	r10,r11,r12
80002f06:	14 9c       	mov	r12,r10
80002f08:	f4 c8 00 01 	sub	r8,r10,1
80002f0c:	e0 48 00 fe 	cp.w	r8,254
80002f10:	e0 88 00 03 	brls	80002f16 <getBaudDiv+0x1c>
80002f14:	5e fe       	retal	-1
80002f16:	5c 8c       	casts.h	r12
80002f18:	5e fc       	retal	r12

80002f1a <spi_initMaster>:
80002f1a:	f7 39 00 0d 	ld.ub	r9,r11[13]
80002f1e:	30 18       	mov	r8,1
80002f20:	f0 09 18 00 	cp.b	r9,r8
80002f24:	e0 88 00 04 	brls	80002f2c <spi_initMaster+0x12>
80002f28:	30 2c       	mov	r12,2
80002f2a:	5e fc       	retal	r12
80002f2c:	e0 68 00 80 	mov	r8,128
80002f30:	99 08       	st.w	r12[0x0],r8
80002f32:	78 18       	ld.w	r8,r12[0x4]
80002f34:	30 19       	mov	r9,1
80002f36:	f1 d9 d0 01 	bfins	r8,r9,0x0,0x1
80002f3a:	f7 39 00 0d 	ld.ub	r9,r11[13]
80002f3e:	f1 d9 d0 81 	bfins	r8,r9,0x4,0x1
80002f42:	30 09       	mov	r9,0
80002f44:	f1 d9 d0 e1 	bfins	r8,r9,0x7,0x1
80002f48:	30 fa       	mov	r10,15
80002f4a:	f1 da d2 04 	bfins	r8,r10,0x10,0x4
80002f4e:	99 18       	st.w	r12[0x4],r8
80002f50:	5e f9       	retal	r9

80002f52 <spi_selectionMode>:
80002f52:	d4 01       	pushm	lr
80002f54:	30 18       	mov	r8,1
80002f56:	f0 0b 18 00 	cp.b	r11,r8
80002f5a:	5f be       	srhi	lr
80002f5c:	f0 0a 18 00 	cp.b	r10,r8
80002f60:	5f b8       	srhi	r8
80002f62:	fd e8 10 08 	or	r8,lr,r8
80002f66:	c0 30       	breq	80002f6c <spi_selectionMode+0x1a>
80002f68:	30 2c       	mov	r12,2
80002f6a:	d8 02       	popm	pc
80002f6c:	78 18       	ld.w	r8,r12[0x4]
80002f6e:	f1 db d0 21 	bfins	r8,r11,0x1,0x1
80002f72:	f1 da d0 41 	bfins	r8,r10,0x2,0x1
80002f76:	f1 d9 d3 08 	bfins	r8,r9,0x18,0x8
80002f7a:	99 18       	st.w	r12[0x4],r8
80002f7c:	d8 0a       	popm	pc,r12=0

80002f7e <spi_selectChip>:
80002f7e:	78 18       	ld.w	r8,r12[0x4]
80002f80:	ea 18 00 0f 	orh	r8,0xf
80002f84:	99 18       	st.w	r12[0x4],r8
80002f86:	78 18       	ld.w	r8,r12[0x4]
80002f88:	e2 18 00 04 	andl	r8,0x4,COH
80002f8c:	c0 f0       	breq	80002faa <spi_selectChip+0x2c>
80002f8e:	30 e8       	mov	r8,14
80002f90:	f0 0b 18 00 	cp.b	r11,r8
80002f94:	e0 8b 00 19 	brhi	80002fc6 <spi_selectChip+0x48>
80002f98:	78 18       	ld.w	r8,r12[0x4]
80002f9a:	b1 6b       	lsl	r11,0x10
80002f9c:	ea 1b ff f0 	orh	r11,0xfff0
80002fa0:	e8 1b ff ff 	orl	r11,0xffff
80002fa4:	10 6b       	and	r11,r8
80002fa6:	99 1b       	st.w	r12[0x4],r11
80002fa8:	5e fd       	retal	0
80002faa:	30 38       	mov	r8,3
80002fac:	f0 0b 18 00 	cp.b	r11,r8
80002fb0:	e0 8b 00 0b 	brhi	80002fc6 <spi_selectChip+0x48>
80002fb4:	78 18       	ld.w	r8,r12[0x4]
80002fb6:	2f 0b       	sub	r11,-16
80002fb8:	30 19       	mov	r9,1
80002fba:	f2 0b 09 4b 	lsl	r11,r9,r11
80002fbe:	5c db       	com	r11
80002fc0:	10 6b       	and	r11,r8
80002fc2:	99 1b       	st.w	r12[0x4],r11
80002fc4:	5e fd       	retal	0
80002fc6:	30 2c       	mov	r12,2
80002fc8:	5e fc       	retal	r12

80002fca <spi_unselectChip>:
80002fca:	e0 68 3a 98 	mov	r8,15000
80002fce:	c0 58       	rjmp	80002fd8 <spi_unselectChip+0xe>
80002fd0:	58 08       	cp.w	r8,0
80002fd2:	c0 21       	brne	80002fd6 <spi_unselectChip+0xc>
80002fd4:	5e ff       	retal	1
80002fd6:	20 18       	sub	r8,1
80002fd8:	78 49       	ld.w	r9,r12[0x10]
80002fda:	e2 19 02 00 	andl	r9,0x200,COH
80002fde:	cf 90       	breq	80002fd0 <spi_unselectChip+0x6>
80002fe0:	78 18       	ld.w	r8,r12[0x4]
80002fe2:	ea 18 00 0f 	orh	r8,0xf
80002fe6:	99 18       	st.w	r12[0x4],r8
80002fe8:	fc 18 01 00 	movh	r8,0x100
80002fec:	99 08       	st.w	r12[0x0],r8
80002fee:	5e fd       	retal	0

80002ff0 <spi_setupChipReg>:
80002ff0:	eb cd 40 f8 	pushm	r3-r7,lr
80002ff4:	18 95       	mov	r5,r12
80002ff6:	16 97       	mov	r7,r11
80002ff8:	f7 36 00 0c 	ld.ub	r6,r11[12]
80002ffc:	30 38       	mov	r8,3
80002ffe:	f0 06 18 00 	cp.b	r6,r8
80003002:	e0 8b 00 4d 	brhi	8000309c <spi_setupChipReg+0xac>
80003006:	f7 34 00 0b 	ld.ub	r4,r11[11]
8000300a:	30 18       	mov	r8,1
8000300c:	f0 04 18 00 	cp.b	r4,r8
80003010:	e0 8b 00 46 	brhi	8000309c <spi_setupChipReg+0xac>
80003014:	f7 33 00 08 	ld.ub	r3,r11[8]
80003018:	30 78       	mov	r8,7
8000301a:	f0 03 18 00 	cp.b	r3,r8
8000301e:	e0 88 00 3f 	brls	8000309c <spi_setupChipReg+0xac>
80003022:	31 08       	mov	r8,16
80003024:	f0 03 18 00 	cp.b	r3,r8
80003028:	e0 8b 00 3a 	brhi	8000309c <spi_setupChipReg+0xac>
8000302c:	14 9b       	mov	r11,r10
8000302e:	6e 1c       	ld.w	r12,r7[0x4]
80003030:	f0 1f 00 1d 	mcall	800030a4 <spi_setupChipReg+0xb4>
80003034:	c3 45       	brlt	8000309c <spi_setupChipReg+0xac>
80003036:	30 08       	mov	r8,0
80003038:	ec 09 16 01 	lsr	r9,r6,0x1
8000303c:	f1 d9 d0 01 	bfins	r8,r9,0x0,0x1
80003040:	ec 16 00 01 	eorl	r6,0x1
80003044:	f1 d6 d0 21 	bfins	r8,r6,0x1,0x1
80003048:	f1 d4 d0 61 	bfins	r8,r4,0x3,0x1
8000304c:	20 83       	sub	r3,8
8000304e:	f1 d3 d0 84 	bfins	r8,r3,0x4,0x4
80003052:	f1 dc d1 08 	bfins	r8,r12,0x8,0x8
80003056:	ef 39 00 09 	ld.ub	r9,r7[9]
8000305a:	f1 d9 d2 08 	bfins	r8,r9,0x10,0x8
8000305e:	ef 39 00 0a 	ld.ub	r9,r7[10]
80003062:	f1 d9 d3 08 	bfins	r8,r9,0x18,0x8
80003066:	0f 89       	ld.ub	r9,r7[0x0]
80003068:	30 1a       	mov	r10,1
8000306a:	f4 09 18 00 	cp.b	r9,r10
8000306e:	c0 e0       	breq	8000308a <spi_setupChipReg+0x9a>
80003070:	c0 a3       	brcs	80003084 <spi_setupChipReg+0x94>
80003072:	30 2a       	mov	r10,2
80003074:	f4 09 18 00 	cp.b	r9,r10
80003078:	c0 c0       	breq	80003090 <spi_setupChipReg+0xa0>
8000307a:	30 3a       	mov	r10,3
8000307c:	f4 09 18 00 	cp.b	r9,r10
80003080:	c0 e1       	brne	8000309c <spi_setupChipReg+0xac>
80003082:	c0 a8       	rjmp	80003096 <spi_setupChipReg+0xa6>
80003084:	8b c8       	st.w	r5[0x30],r8
80003086:	e3 cf 80 f8 	ldm	sp++,r3-r7,pc,r12=0
8000308a:	8b d8       	st.w	r5[0x34],r8
8000308c:	e3 cf 80 f8 	ldm	sp++,r3-r7,pc,r12=0
80003090:	8b e8       	st.w	r5[0x38],r8
80003092:	e3 cf 80 f8 	ldm	sp++,r3-r7,pc,r12=0
80003096:	8b f8       	st.w	r5[0x3c],r8
80003098:	e3 cf 80 f8 	ldm	sp++,r3-r7,pc,r12=0
8000309c:	30 2c       	mov	r12,2
8000309e:	e3 cd 80 f8 	ldm	sp++,r3-r7,pc
800030a2:	00 00       	add	r0,r0
800030a4:	80 00       	ld.sh	r0,r0[0x0]
800030a6:	2e fa       	sub	r10,-17

800030a8 <spi_enable>:
800030a8:	30 18       	mov	r8,1
800030aa:	99 08       	st.w	r12[0x0],r8
800030ac:	5e fc       	retal	r12

800030ae <spi_write>:
800030ae:	e0 68 3a 98 	mov	r8,15000
800030b2:	c0 58       	rjmp	800030bc <spi_write+0xe>
800030b4:	58 08       	cp.w	r8,0
800030b6:	c0 21       	brne	800030ba <spi_write+0xc>
800030b8:	5e ff       	retal	1
800030ba:	20 18       	sub	r8,1
800030bc:	78 49       	ld.w	r9,r12[0x10]
800030be:	e2 19 00 02 	andl	r9,0x2,COH
800030c2:	cf 90       	breq	800030b4 <spi_write+0x6>
800030c4:	5c 7b       	castu.h	r11
800030c6:	99 3b       	st.w	r12[0xc],r11
800030c8:	5e fd       	retal	0

800030ca <spi_read>:
800030ca:	e0 68 3a 98 	mov	r8,15000
800030ce:	c0 58       	rjmp	800030d8 <spi_read+0xe>
800030d0:	58 08       	cp.w	r8,0
800030d2:	c0 21       	brne	800030d6 <spi_read+0xc>
800030d4:	5e ff       	retal	1
800030d6:	20 18       	sub	r8,1
800030d8:	78 49       	ld.w	r9,r12[0x10]
800030da:	e2 19 02 01 	andl	r9,0x201,COH
800030de:	e0 49 02 01 	cp.w	r9,513
800030e2:	cf 71       	brne	800030d0 <spi_read+0x6>
800030e4:	78 28       	ld.w	r8,r12[0x8]
800030e6:	b6 08       	st.h	r11[0x0],r8
800030e8:	5e fd       	retal	0

800030ea <tc_init_waveform>:
800030ea:	76 09       	ld.w	r9,r11[0x0]
800030ec:	58 29       	cp.w	r9,2
800030ee:	e0 88 00 03 	brls	800030f4 <tc_init_waveform+0xa>
800030f2:	5e fe       	retal	-1
800030f4:	76 18       	ld.w	r8,r11[0x4]
800030f6:	f5 d8 c0 03 	bfextu	r10,r8,0x0,0x3
800030fa:	af ba       	sbr	r10,0xf
800030fc:	10 9b       	mov	r11,r8
800030fe:	e6 1b c0 00 	andh	r11,0xc000,COH
80003102:	16 4a       	or	r10,r11
80003104:	10 9b       	mov	r11,r8
80003106:	e6 1b 30 00 	andh	r11,0x3000,COH
8000310a:	16 4a       	or	r10,r11
8000310c:	10 9b       	mov	r11,r8
8000310e:	e6 1b 0c 00 	andh	r11,0xc00,COH
80003112:	16 4a       	or	r10,r11
80003114:	10 9b       	mov	r11,r8
80003116:	e6 1b 03 00 	andh	r11,0x300,COH
8000311a:	16 4a       	or	r10,r11
8000311c:	10 9b       	mov	r11,r8
8000311e:	e6 1b 00 c0 	andh	r11,0xc0,COH
80003122:	16 4a       	or	r10,r11
80003124:	10 9b       	mov	r11,r8
80003126:	e6 1b 00 30 	andh	r11,0x30,COH
8000312a:	16 4a       	or	r10,r11
8000312c:	10 9b       	mov	r11,r8
8000312e:	e6 1b 00 0c 	andh	r11,0xc,COH
80003132:	16 4a       	or	r10,r11
80003134:	10 9b       	mov	r11,r8
80003136:	e6 1b 00 03 	andh	r11,0x3,COH
8000313a:	16 4a       	or	r10,r11
8000313c:	10 9b       	mov	r11,r8
8000313e:	e2 1b 60 00 	andl	r11,0x6000,COH
80003142:	16 4a       	or	r10,r11
80003144:	f7 d8 c1 81 	bfextu	r11,r8,0xc,0x1
80003148:	f5 eb 10 ca 	or	r10,r10,r11<<0xc
8000314c:	10 9b       	mov	r11,r8
8000314e:	e2 1b 0c 00 	andl	r11,0xc00,COH
80003152:	16 4a       	or	r10,r11
80003154:	10 9b       	mov	r11,r8
80003156:	e2 1b 03 00 	andl	r11,0x300,COH
8000315a:	16 4a       	or	r10,r11
8000315c:	f7 d8 c0 e1 	bfextu	r11,r8,0x7,0x1
80003160:	f5 eb 10 7a 	or	r10,r10,r11<<0x7
80003164:	f7 d8 c0 c1 	bfextu	r11,r8,0x6,0x1
80003168:	f5 eb 10 6a 	or	r10,r10,r11<<0x6
8000316c:	10 9b       	mov	r11,r8
8000316e:	e2 1b 00 30 	andl	r11,0x30,COH
80003172:	16 4a       	or	r10,r11
80003174:	f1 d8 c0 61 	bfextu	r8,r8,0x3,0x1
80003178:	f5 e8 10 38 	or	r8,r10,r8<<0x3
8000317c:	a5 69       	lsl	r9,0x4
8000317e:	2f f9       	sub	r9,-1
80003180:	f8 09 09 28 	st.w	r12[r9<<0x2],r8
80003184:	5e fd       	retal	0

80003186 <tc_start>:
80003186:	58 2b       	cp.w	r11,2
80003188:	e0 88 00 03 	brls	8000318e <tc_start+0x8>
8000318c:	5e fe       	retal	-1
8000318e:	a7 6b       	lsl	r11,0x6
80003190:	16 0c       	add	r12,r11
80003192:	30 58       	mov	r8,5
80003194:	99 08       	st.w	r12[0x0],r8
80003196:	5e fd       	retal	0

80003198 <tc_stop>:
80003198:	58 2b       	cp.w	r11,2
8000319a:	e0 88 00 03 	brls	800031a0 <tc_stop+0x8>
8000319e:	5e fe       	retal	-1
800031a0:	a7 6b       	lsl	r11,0x6
800031a2:	16 0c       	add	r12,r11
800031a4:	30 28       	mov	r8,2
800031a6:	99 08       	st.w	r12[0x0],r8
800031a8:	5e fd       	retal	0

800031aa <tc_write_rc>:
800031aa:	58 2b       	cp.w	r11,2
800031ac:	e0 88 00 03 	brls	800031b2 <tc_write_rc+0x8>
800031b0:	5e fe       	retal	-1
800031b2:	f6 08 15 04 	lsl	r8,r11,0x4
800031b6:	2f f8       	sub	r8,-1
800031b8:	f8 08 03 28 	ld.w	r8,r12[r8<<0x2]
800031bc:	e2 18 80 00 	andl	r8,0x8000,COH
800031c0:	c0 c0       	breq	800031d8 <tc_write_rc+0x2e>
800031c2:	a7 6b       	lsl	r11,0x6
800031c4:	16 0c       	add	r12,r11
800031c6:	2e 4c       	sub	r12,-28
800031c8:	78 08       	ld.w	r8,r12[0x0]
800031ca:	f3 da c0 10 	bfextu	r9,r10,0x0,0x10
800031ce:	e0 18 00 00 	andl	r8,0x0
800031d2:	f3 e8 10 08 	or	r8,r9,r8
800031d6:	99 08       	st.w	r12[0x0],r8
800031d8:	f9 da c0 10 	bfextu	r12,r10,0x0,0x10
800031dc:	5e fc       	retal	r12

800031de <tc_configure_interrupts>:
800031de:	eb cd 40 fc 	pushm	r2-r7,lr
800031e2:	e1 b9 00 00 	mfsr	r9,0x0
800031e6:	58 2b       	cp.w	r11,2
800031e8:	e0 88 00 04 	brls	800031f0 <tc_configure_interrupts+0x12>
800031ec:	e3 cf c0 fc 	ldm	sp++,r2-r7,pc,r12=-1
800031f0:	ee 19 00 01 	eorh	r9,0x1
800031f4:	f3 d9 c2 01 	bfextu	r9,r9,0x10,0x1
800031f8:	74 08       	ld.w	r8,r10[0x0]
800031fa:	ef d8 c0 e1 	bfextu	r7,r8,0x7,0x1
800031fe:	fd d8 c0 c1 	bfextu	lr,r8,0x6,0x1
80003202:	a7 6e       	lsl	lr,0x6
80003204:	fd e7 10 7e 	or	lr,lr,r7<<0x7
80003208:	ef d8 c0 01 	bfextu	r7,r8,0x0,0x1
8000320c:	0e 4e       	or	lr,r7
8000320e:	ef d8 c0 a1 	bfextu	r7,r8,0x5,0x1
80003212:	fd e7 10 5e 	or	lr,lr,r7<<0x5
80003216:	ef d8 c0 81 	bfextu	r7,r8,0x4,0x1
8000321a:	fd e7 10 4e 	or	lr,lr,r7<<0x4
8000321e:	ef d8 c0 61 	bfextu	r7,r8,0x3,0x1
80003222:	fd e7 10 3e 	or	lr,lr,r7<<0x3
80003226:	ef d8 c0 41 	bfextu	r7,r8,0x2,0x1
8000322a:	fd e7 10 2e 	or	lr,lr,r7<<0x2
8000322e:	f1 d8 c0 21 	bfextu	r8,r8,0x1,0x1
80003232:	fd e8 10 18 	or	r8,lr,r8<<0x1
80003236:	f6 0e 15 06 	lsl	lr,r11,0x6
8000323a:	f8 0e 00 0e 	add	lr,r12,lr
8000323e:	2d ce       	sub	lr,-36
80003240:	9d 08       	st.w	lr[0x0],r8
80003242:	58 09       	cp.w	r9,0
80003244:	c0 20       	breq	80003248 <tc_configure_interrupts+0x6a>
80003246:	d3 03       	ssrf	0x10
80003248:	74 08       	ld.w	r8,r10[0x0]
8000324a:	f1 d8 c0 e1 	bfextu	r8,r8,0x7,0x1
8000324e:	e0 65 00 80 	mov	r5,128
80003252:	f9 b5 01 00 	movne	r5,0
80003256:	74 08       	ld.w	r8,r10[0x0]
80003258:	f1 d8 c0 c1 	bfextu	r8,r8,0x6,0x1
8000325c:	f9 b4 00 40 	moveq	r4,64
80003260:	f9 b4 01 00 	movne	r4,0
80003264:	74 08       	ld.w	r8,r10[0x0]
80003266:	f1 d8 c0 a1 	bfextu	r8,r8,0x5,0x1
8000326a:	f9 b3 00 20 	moveq	r3,32
8000326e:	f9 b3 01 00 	movne	r3,0
80003272:	74 08       	ld.w	r8,r10[0x0]
80003274:	f1 d8 c0 81 	bfextu	r8,r8,0x4,0x1
80003278:	f9 b2 00 10 	moveq	r2,16
8000327c:	f9 b2 01 00 	movne	r2,0
80003280:	74 08       	ld.w	r8,r10[0x0]
80003282:	f1 d8 c0 61 	bfextu	r8,r8,0x3,0x1
80003286:	f9 b6 00 08 	moveq	r6,8
8000328a:	f9 b6 01 00 	movne	r6,0
8000328e:	74 08       	ld.w	r8,r10[0x0]
80003290:	f1 d8 c0 41 	bfextu	r8,r8,0x2,0x1
80003294:	f9 b7 00 04 	moveq	r7,4
80003298:	f9 b7 01 00 	movne	r7,0
8000329c:	74 08       	ld.w	r8,r10[0x0]
8000329e:	f1 d8 c0 21 	bfextu	r8,r8,0x1,0x1
800032a2:	f9 be 00 02 	moveq	lr,2
800032a6:	f9 be 01 00 	movne	lr,0
800032aa:	74 08       	ld.w	r8,r10[0x0]
800032ac:	ec 18 00 01 	eorl	r8,0x1
800032b0:	f1 d8 c0 01 	bfextu	r8,r8,0x0,0x1
800032b4:	eb e8 10 08 	or	r8,r5,r8
800032b8:	08 48       	or	r8,r4
800032ba:	06 48       	or	r8,r3
800032bc:	04 48       	or	r8,r2
800032be:	0c 48       	or	r8,r6
800032c0:	0e 48       	or	r8,r7
800032c2:	1c 48       	or	r8,lr
800032c4:	f6 0a 15 06 	lsl	r10,r11,0x6
800032c8:	f8 0a 00 0a 	add	r10,r12,r10
800032cc:	2d 8a       	sub	r10,-40
800032ce:	95 08       	st.w	r10[0x0],r8
800032d0:	a7 6b       	lsl	r11,0x6
800032d2:	2e 0b       	sub	r11,-32
800032d4:	16 0c       	add	r12,r11
800032d6:	78 08       	ld.w	r8,r12[0x0]
800032d8:	58 09       	cp.w	r9,0
800032da:	c0 31       	brne	800032e0 <tc_configure_interrupts+0x102>
800032dc:	e3 cf 80 fc 	ldm	sp++,r2-r7,pc,r12=0
800032e0:	d5 03       	csrf	0x10
800032e2:	e3 cf 80 fc 	ldm	sp++,r2-r7,pc,r12=0
800032e6:	d7 03       	nop

800032e8 <twi_master_interrupt_handler>:
800032e8:	4a 78       	lddpc	r8,80003384 <twi_master_interrupt_handler+0x9c>
800032ea:	70 08       	ld.w	r8,r8[0x0]
800032ec:	70 89       	ld.w	r9,r8[0x20]
800032ee:	4a 7a       	lddpc	r10,80003388 <twi_master_interrupt_handler+0xa0>
800032f0:	74 0a       	ld.w	r10,r10[0x0]
800032f2:	f5 e9 00 09 	and	r9,r10,r9
800032f6:	12 9a       	mov	r10,r9
800032f8:	e2 1a 01 00 	andl	r10,0x100,COH
800032fc:	c3 91       	brne	8000336e <twi_master_interrupt_handler+0x86>
800032fe:	12 9a       	mov	r10,r9
80003300:	e2 1a 00 02 	andl	r10,0x2,COH
80003304:	c1 70       	breq	80003332 <twi_master_interrupt_handler+0x4a>
80003306:	4a 29       	lddpc	r9,8000338c <twi_master_interrupt_handler+0xa4>
80003308:	72 0a       	ld.w	r10,r9[0x0]
8000330a:	70 cb       	ld.w	r11,r8[0x30]
8000330c:	b4 8b       	st.b	r10[0x0],r11
8000330e:	72 0a       	ld.w	r10,r9[0x0]
80003310:	2f fa       	sub	r10,-1
80003312:	93 0a       	st.w	r9[0x0],r10
80003314:	49 f9       	lddpc	r9,80003390 <twi_master_interrupt_handler+0xa8>
80003316:	72 0a       	ld.w	r10,r9[0x0]
80003318:	20 1a       	sub	r10,1
8000331a:	93 0a       	st.w	r9[0x0],r10
8000331c:	72 09       	ld.w	r9,r9[0x0]
8000331e:	58 19       	cp.w	r9,1
80003320:	f9 b9 00 02 	moveq	r9,2
80003324:	f1 f9 0a 00 	st.weq	r8[0x0],r9
80003328:	49 a9       	lddpc	r9,80003390 <twi_master_interrupt_handler+0xa8>
8000332a:	72 09       	ld.w	r9,r9[0x0]
8000332c:	58 09       	cp.w	r9,0
8000332e:	c2 30       	breq	80003374 <twi_master_interrupt_handler+0x8c>
80003330:	d6 03       	rete
80003332:	12 9a       	mov	r10,r9
80003334:	e2 1a 00 04 	andl	r10,0x4,COH
80003338:	c1 70       	breq	80003366 <twi_master_interrupt_handler+0x7e>
8000333a:	49 79       	lddpc	r9,80003394 <twi_master_interrupt_handler+0xac>
8000333c:	72 0a       	ld.w	r10,r9[0x0]
8000333e:	20 1a       	sub	r10,1
80003340:	93 0a       	st.w	r9[0x0],r10
80003342:	72 09       	ld.w	r9,r9[0x0]
80003344:	58 09       	cp.w	r9,0
80003346:	e0 89 00 0a 	brgt	8000335a <twi_master_interrupt_handler+0x72>
8000334a:	49 09       	lddpc	r9,80003388 <twi_master_interrupt_handler+0xa0>
8000334c:	30 1a       	mov	r10,1
8000334e:	93 0a       	st.w	r9[0x0],r10
80003350:	3f fa       	mov	r10,-1
80003352:	91 aa       	st.w	r8[0x28],r10
80003354:	72 09       	ld.w	r9,r9[0x0]
80003356:	91 99       	st.w	r8[0x24],r9
80003358:	d6 03       	rete
8000335a:	49 0a       	lddpc	r10,80003398 <twi_master_interrupt_handler+0xb0>
8000335c:	74 09       	ld.w	r9,r10[0x0]
8000335e:	13 3b       	ld.ub	r11,r9++
80003360:	91 db       	st.w	r8[0x34],r11
80003362:	95 09       	st.w	r10[0x0],r9
80003364:	d6 03       	rete
80003366:	f3 d9 c0 01 	bfextu	r9,r9,0x0,0x1
8000336a:	c0 51       	brne	80003374 <twi_master_interrupt_handler+0x8c>
8000336c:	d6 03       	rete
8000336e:	30 1a       	mov	r10,1
80003370:	48 b9       	lddpc	r9,8000339c <twi_master_interrupt_handler+0xb4>
80003372:	b2 8a       	st.b	r9[0x0],r10
80003374:	3f f9       	mov	r9,-1
80003376:	91 a9       	st.w	r8[0x28],r9
80003378:	70 88       	ld.w	r8,r8[0x20]
8000337a:	30 09       	mov	r9,0
8000337c:	48 98       	lddpc	r8,800033a0 <twi_master_interrupt_handler+0xb8>
8000337e:	b0 89       	st.b	r8[0x0],r9
80003380:	d6 03       	rete
80003382:	00 00       	add	r0,r0
80003384:	00 00       	add	r0,r0
80003386:	07 dc       	ld.ub	r12,r3[0x5]
80003388:	00 00       	add	r0,r0
8000338a:	07 d8       	ld.ub	r8,r3[0x5]
8000338c:	00 00       	add	r0,r0
8000338e:	07 e8       	ld.ub	r8,r3[0x6]
80003390:	00 00       	add	r0,r0
80003392:	07 e4       	ld.ub	r4,r3[0x6]
80003394:	00 00       	add	r0,r0
80003396:	07 d4       	ld.ub	r4,r3[0x5]
80003398:	00 00       	add	r0,r0
8000339a:	07 e0       	ld.ub	r0,r3[0x6]
8000339c:	00 00       	add	r0,r0
8000339e:	07 d1       	ld.ub	r1,r3[0x5]
800033a0:	00 00       	add	r0,r0
800033a2:	07 d0       	ld.ub	r0,r3[0x5]

800033a4 <twi_mk_addr>:
800033a4:	18 98       	mov	r8,r12
800033a6:	58 0b       	cp.w	r11,0
800033a8:	c0 21       	brne	800033ac <twi_mk_addr+0x8>
800033aa:	5e fd       	retal	0
800033ac:	19 8c       	ld.ub	r12,r12[0x0]
800033ae:	58 1b       	cp.w	r11,1
800033b0:	e0 8a 00 05 	brle	800033ba <twi_mk_addr+0x16>
800033b4:	11 99       	ld.ub	r9,r8[0x1]
800033b6:	f3 ec 10 8c 	or	r12,r9,r12<<0x8
800033ba:	58 2b       	cp.w	r11,2
800033bc:	5e ac       	retle	r12
800033be:	11 a8       	ld.ub	r8,r8[0x2]
800033c0:	f1 ec 10 8c 	or	r12,r8,r12<<0x8
800033c4:	5e fc       	retal	r12
800033c6:	d7 03       	nop

800033c8 <twi_is_busy>:
800033c8:	48 28       	lddpc	r8,800033d0 <twi_is_busy+0x8>
800033ca:	11 8c       	ld.ub	r12,r8[0x0]
800033cc:	5e fc       	retal	r12
800033ce:	00 00       	add	r0,r0
800033d0:	00 00       	add	r0,r0
800033d2:	07 d0       	ld.ub	r0,r3[0x5]

800033d4 <twi_master_write>:
800033d4:	eb cd 40 c0 	pushm	r6-r7,lr
800033d8:	18 96       	mov	r6,r12
800033da:	16 97       	mov	r7,r11
800033dc:	76 38       	ld.w	r8,r11[0xc]
800033de:	58 08       	cp.w	r8,0
800033e0:	c0 51       	brne	800033ea <twi_master_write+0x16>
800033e2:	e3 cf c0 c0 	ldm	sp++,r6-r7,pc,r12=-1
800033e6:	fe cf ff fc 	sub	pc,pc,-4
800033ea:	f0 1f 00 1f 	mcall	80003464 <twi_master_write+0x90>
800033ee:	cf c1       	brne	800033e6 <twi_master_write+0x12>
800033f0:	30 09       	mov	r9,0
800033f2:	49 e8       	lddpc	r8,80003468 <twi_master_write+0x94>
800033f4:	b0 89       	st.b	r8[0x0],r9
800033f6:	30 19       	mov	r9,1
800033f8:	49 d8       	lddpc	r8,8000346c <twi_master_write+0x98>
800033fa:	b0 89       	st.b	r8[0x0],r9
800033fc:	32 48       	mov	r8,36
800033fe:	8d 08       	st.w	r6[0x0],r8
80003400:	6e 18       	ld.w	r8,r7[0x4]
80003402:	a9 68       	lsl	r8,0x8
80003404:	e2 18 03 00 	andl	r8,0x300,COH
80003408:	0f 89       	ld.ub	r9,r7[0x0]
8000340a:	f1 e9 11 08 	or	r8,r8,r9<<0x10
8000340e:	8d 18       	st.w	r6[0x4],r8
80003410:	49 88       	lddpc	r8,80003470 <twi_master_write+0x9c>
80003412:	91 06       	st.w	r8[0x0],r6
80003414:	6e 1b       	ld.w	r11,r7[0x4]
80003416:	ee cc ff ff 	sub	r12,r7,-1
8000341a:	f0 1f 00 17 	mcall	80003474 <twi_master_write+0xa0>
8000341e:	8d 3c       	st.w	r6[0xc],r12
80003420:	6e 29       	ld.w	r9,r7[0x8]
80003422:	49 68       	lddpc	r8,80003478 <twi_master_write+0xa4>
80003424:	91 09       	st.w	r8[0x0],r9
80003426:	6e 3a       	ld.w	r10,r7[0xc]
80003428:	49 59       	lddpc	r9,8000347c <twi_master_write+0xa8>
8000342a:	93 0a       	st.w	r9[0x0],r10
8000342c:	70 09       	ld.w	r9,r8[0x0]
8000342e:	13 3a       	ld.ub	r10,r9++
80003430:	8d da       	st.w	r6[0x34],r10
80003432:	91 09       	st.w	r8[0x0],r9
80003434:	49 38       	lddpc	r8,80003480 <twi_master_write+0xac>
80003436:	e0 69 01 04 	mov	r9,260
8000343a:	91 09       	st.w	r8[0x0],r9
8000343c:	70 08       	ld.w	r8,r8[0x0]
8000343e:	8d 98       	st.w	r6[0x24],r8
80003440:	c0 38       	rjmp	80003446 <twi_master_write+0x72>
80003442:	fe cf ff fc 	sub	pc,pc,-4
80003446:	f0 1f 00 08 	mcall	80003464 <twi_master_write+0x90>
8000344a:	cf c1       	brne	80003442 <twi_master_write+0x6e>
8000344c:	30 88       	mov	r8,8
8000344e:	8d 08       	st.w	r6[0x0],r8
80003450:	48 68       	lddpc	r8,80003468 <twi_master_write+0x94>
80003452:	11 8c       	ld.ub	r12,r8[0x0]
80003454:	58 0c       	cp.w	r12,0
80003456:	f9 bc 01 fb 	movne	r12,-5
8000345a:	f9 bc 00 00 	moveq	r12,0
8000345e:	e3 cd 80 c0 	ldm	sp++,r6-r7,pc
80003462:	00 00       	add	r0,r0
80003464:	80 00       	ld.sh	r0,r0[0x0]
80003466:	33 c8       	mov	r8,60
80003468:	00 00       	add	r0,r0
8000346a:	07 d1       	ld.ub	r1,r3[0x5]
8000346c:	00 00       	add	r0,r0
8000346e:	07 d0       	ld.ub	r0,r3[0x5]
80003470:	00 00       	add	r0,r0
80003472:	07 dc       	ld.ub	r12,r3[0x5]
80003474:	80 00       	ld.sh	r0,r0[0x0]
80003476:	33 a4       	mov	r4,58
80003478:	00 00       	add	r0,r0
8000347a:	07 e0       	ld.ub	r0,r3[0x6]
8000347c:	00 00       	add	r0,r0
8000347e:	07 d4       	ld.ub	r4,r3[0x5]
80003480:	00 00       	add	r0,r0
80003482:	07 d8       	ld.ub	r8,r3[0x5]

80003484 <twi_master_read>:
80003484:	eb cd 40 c0 	pushm	r6-r7,lr
80003488:	18 96       	mov	r6,r12
8000348a:	16 97       	mov	r7,r11
8000348c:	76 38       	ld.w	r8,r11[0xc]
8000348e:	58 08       	cp.w	r8,0
80003490:	c0 51       	brne	8000349a <twi_master_read+0x16>
80003492:	e3 cf c0 c0 	ldm	sp++,r6-r7,pc,r12=-1
80003496:	fe cf ff fc 	sub	pc,pc,-4
8000349a:	f0 1f 00 21 	mcall	8000351c <twi_master_read+0x98>
8000349e:	cf c1       	brne	80003496 <twi_master_read+0x12>
800034a0:	30 09       	mov	r9,0
800034a2:	4a 08       	lddpc	r8,80003520 <twi_master_read+0x9c>
800034a4:	b0 89       	st.b	r8[0x0],r9
800034a6:	30 19       	mov	r9,1
800034a8:	49 f8       	lddpc	r8,80003524 <twi_master_read+0xa0>
800034aa:	b0 89       	st.b	r8[0x0],r9
800034ac:	0f 89       	ld.ub	r9,r7[0x0]
800034ae:	6e 18       	ld.w	r8,r7[0x4]
800034b0:	a9 68       	lsl	r8,0x8
800034b2:	e2 18 03 00 	andl	r8,0x300,COH
800034b6:	f1 e9 11 08 	or	r8,r8,r9<<0x10
800034ba:	ad a8       	sbr	r8,0xc
800034bc:	8d 18       	st.w	r6[0x4],r8
800034be:	49 b8       	lddpc	r8,80003528 <twi_master_read+0xa4>
800034c0:	91 06       	st.w	r8[0x0],r6
800034c2:	6e 1b       	ld.w	r11,r7[0x4]
800034c4:	ee cc ff ff 	sub	r12,r7,-1
800034c8:	f0 1f 00 19 	mcall	8000352c <twi_master_read+0xa8>
800034cc:	8d 3c       	st.w	r6[0xc],r12
800034ce:	6e 29       	ld.w	r9,r7[0x8]
800034d0:	49 88       	lddpc	r8,80003530 <twi_master_read+0xac>
800034d2:	91 09       	st.w	r8[0x0],r9
800034d4:	6e 39       	ld.w	r9,r7[0xc]
800034d6:	49 88       	lddpc	r8,80003534 <twi_master_read+0xb0>
800034d8:	91 09       	st.w	r8[0x0],r9
800034da:	30 49       	mov	r9,4
800034dc:	8d 09       	st.w	r6[0x0],r9
800034de:	30 19       	mov	r9,1
800034e0:	8d 09       	st.w	r6[0x0],r9
800034e2:	70 08       	ld.w	r8,r8[0x0]
800034e4:	12 38       	cp.w	r8,r9
800034e6:	f9 b8 00 02 	moveq	r8,2
800034ea:	ed f8 0a 00 	st.weq	r6[0x0],r8
800034ee:	49 38       	lddpc	r8,80003538 <twi_master_read+0xb4>
800034f0:	e0 69 01 02 	mov	r9,258
800034f4:	91 09       	st.w	r8[0x0],r9
800034f6:	70 08       	ld.w	r8,r8[0x0]
800034f8:	8d 98       	st.w	r6[0x24],r8
800034fa:	c0 38       	rjmp	80003500 <twi_master_read+0x7c>
800034fc:	fe cf ff fc 	sub	pc,pc,-4
80003500:	f0 1f 00 07 	mcall	8000351c <twi_master_read+0x98>
80003504:	cf c1       	brne	800034fc <twi_master_read+0x78>
80003506:	30 88       	mov	r8,8
80003508:	8d 08       	st.w	r6[0x0],r8
8000350a:	48 68       	lddpc	r8,80003520 <twi_master_read+0x9c>
8000350c:	11 8c       	ld.ub	r12,r8[0x0]
8000350e:	58 0c       	cp.w	r12,0
80003510:	f9 bc 01 fb 	movne	r12,-5
80003514:	f9 bc 00 00 	moveq	r12,0
80003518:	e3 cd 80 c0 	ldm	sp++,r6-r7,pc
8000351c:	80 00       	ld.sh	r0,r0[0x0]
8000351e:	33 c8       	mov	r8,60
80003520:	00 00       	add	r0,r0
80003522:	07 d1       	ld.ub	r1,r3[0x5]
80003524:	00 00       	add	r0,r0
80003526:	07 d0       	ld.ub	r0,r3[0x5]
80003528:	00 00       	add	r0,r0
8000352a:	07 dc       	ld.ub	r12,r3[0x5]
8000352c:	80 00       	ld.sh	r0,r0[0x0]
8000352e:	33 a4       	mov	r4,58
80003530:	00 00       	add	r0,r0
80003532:	07 e8       	ld.ub	r8,r3[0x6]
80003534:	00 00       	add	r0,r0
80003536:	07 e4       	ld.ub	r4,r3[0x6]
80003538:	00 00       	add	r0,r0
8000353a:	07 d8       	ld.ub	r8,r3[0x5]

8000353c <twi_master_init>:
8000353c:	eb cd 40 e0 	pushm	r5-r7,lr
80003540:	20 1d       	sub	sp,4
80003542:	18 97       	mov	r7,r12
80003544:	16 95       	mov	r5,r11
80003546:	e1 b8 00 00 	mfsr	r8,0x0
8000354a:	4a 19       	lddpc	r9,800035cc <twi_master_init+0x90>
8000354c:	93 0c       	st.w	r9[0x0],r12
8000354e:	d3 03       	ssrf	0x10
80003550:	3f f9       	mov	r9,-1
80003552:	99 a9       	st.w	r12[0x28],r9
80003554:	78 89       	ld.w	r9,r12[0x20]
80003556:	e0 69 00 80 	mov	r9,128
8000355a:	99 09       	st.w	r12[0x0],r9
8000355c:	e6 18 00 01 	andh	r8,0x1,COH
80003560:	c0 21       	brne	80003564 <twi_master_init+0x28>
80003562:	d5 03       	csrf	0x10
80003564:	6e 88       	ld.w	r8,r7[0x20]
80003566:	e1 b8 00 00 	mfsr	r8,0x0
8000356a:	50 08       	stdsp	sp[0x0],r8
8000356c:	d3 03       	ssrf	0x10
8000356e:	40 06       	lddsp	r6,sp[0x0]
80003570:	30 3a       	mov	r10,3
80003572:	e0 6b 01 60 	mov	r11,352
80003576:	49 7c       	lddpc	r12,800035d0 <twi_master_init+0x94>
80003578:	f0 1f 00 17 	mcall	800035d4 <twi_master_init+0x98>
8000357c:	e6 16 00 01 	andh	r6,0x1,COH
80003580:	c0 21       	brne	80003584 <twi_master_init+0x48>
80003582:	d5 03       	csrf	0x10
80003584:	6a 19       	ld.w	r9,r5[0x4]
80003586:	a1 79       	lsl	r9,0x1
80003588:	6a 08       	ld.w	r8,r5[0x0]
8000358a:	f0 09 0d 08 	divu	r8,r8,r9
8000358e:	20 48       	sub	r8,4
80003590:	e0 48 00 ff 	cp.w	r8,255
80003594:	e0 8b 00 04 	brhi	8000359c <twi_master_init+0x60>
80003598:	30 09       	mov	r9,0
8000359a:	c0 f8       	rjmp	800035b8 <twi_master_init+0x7c>
8000359c:	30 09       	mov	r9,0
8000359e:	30 0c       	mov	r12,0
800035a0:	2f f9       	sub	r9,-1
800035a2:	a1 98       	lsr	r8,0x1
800035a4:	e0 48 00 ff 	cp.w	r8,255
800035a8:	5f bb       	srhi	r11
800035aa:	58 69       	cp.w	r9,6
800035ac:	5f 8a       	srls	r10
800035ae:	f7 ea 00 0a 	and	r10,r11,r10
800035b2:	f8 0a 18 00 	cp.b	r10,r12
800035b6:	cf 51       	brne	800035a0 <twi_master_init+0x64>
800035b8:	b1 69       	lsl	r9,0x10
800035ba:	f3 e8 10 89 	or	r9,r9,r8<<0x8
800035be:	f3 e8 10 08 	or	r8,r9,r8
800035c2:	8f 48       	st.w	r7[0x10],r8
800035c4:	2f fd       	sub	sp,-4
800035c6:	e3 cf 80 e0 	ldm	sp++,r5-r7,pc,r12=0
800035ca:	00 00       	add	r0,r0
800035cc:	00 00       	add	r0,r0
800035ce:	07 dc       	ld.ub	r12,r3[0x5]
800035d0:	80 00       	ld.sh	r0,r0[0x0]
800035d2:	32 e8       	mov	r8,46
800035d4:	80 00       	ld.sh	r0,r0[0x0]
800035d6:	2a e4       	sub	r4,-82

800035d8 <usart_set_async_baudrate>:
800035d8:	d4 01       	pushm	lr
800035da:	f6 08 15 04 	lsl	r8,r11,0x4
800035de:	14 38       	cp.w	r8,r10
800035e0:	f9 b8 08 10 	movls	r8,16
800035e4:	f9 b8 0b 08 	movhi	r8,8
800035e8:	f0 0b 02 4b 	mul	r11,r8,r11
800035ec:	f6 09 16 01 	lsr	r9,r11,0x1
800035f0:	f2 0a 00 3a 	add	r10,r9,r10<<0x3
800035f4:	f4 0b 0d 0a 	divu	r10,r10,r11
800035f8:	f4 09 16 03 	lsr	r9,r10,0x3
800035fc:	f2 cb 00 01 	sub	r11,r9,1
80003600:	e0 4b ff fe 	cp.w	r11,65534
80003604:	e0 88 00 03 	brls	8000360a <usart_set_async_baudrate+0x32>
80003608:	da 0a       	popm	pc,r12=1
8000360a:	78 1b       	ld.w	r11,r12[0x4]
8000360c:	e8 6e 00 00 	mov	lr,524288
80003610:	59 08       	cp.w	r8,16
80003612:	fc 08 17 10 	movne	r8,lr
80003616:	f9 b8 00 00 	moveq	r8,0
8000361a:	e4 1b ff f7 	andh	r11,0xfff7
8000361e:	e0 1b fe cf 	andl	r11,0xfecf
80003622:	16 48       	or	r8,r11
80003624:	99 18       	st.w	r12[0x4],r8
80003626:	f5 da c0 03 	bfextu	r10,r10,0x0,0x3
8000362a:	f3 ea 11 09 	or	r9,r9,r10<<0x10
8000362e:	99 89       	st.w	r12[0x20],r9
80003630:	d8 0a       	popm	pc,r12=0

80003632 <usart_write_char>:
80003632:	78 58       	ld.w	r8,r12[0x14]
80003634:	e2 18 00 02 	andl	r8,0x2,COH
80003638:	c0 31       	brne	8000363e <usart_write_char+0xc>
8000363a:	30 2c       	mov	r12,2
8000363c:	5e fc       	retal	r12
8000363e:	f7 db c0 09 	bfextu	r11,r11,0x0,0x9
80003642:	99 7b       	st.w	r12[0x1c],r11
80003644:	5e fd       	retal	0
80003646:	d7 03       	nop

80003648 <usart_putchar>:
80003648:	eb cd 40 e0 	pushm	r5-r7,lr
8000364c:	18 96       	mov	r6,r12
8000364e:	16 95       	mov	r5,r11
80003650:	e0 67 27 0f 	mov	r7,9999
80003654:	c0 68       	rjmp	80003660 <usart_putchar+0x18>
80003656:	58 07       	cp.w	r7,0
80003658:	c0 31       	brne	8000365e <usart_putchar+0x16>
8000365a:	e3 cf c0 e0 	ldm	sp++,r5-r7,pc,r12=-1
8000365e:	20 17       	sub	r7,1
80003660:	0a 9b       	mov	r11,r5
80003662:	0c 9c       	mov	r12,r6
80003664:	f0 1f 00 03 	mcall	80003670 <usart_putchar+0x28>
80003668:	cf 71       	brne	80003656 <usart_putchar+0xe>
8000366a:	e3 cd 80 e0 	ldm	sp++,r5-r7,pc
8000366e:	00 00       	add	r0,r0
80003670:	80 00       	ld.sh	r0,r0[0x0]
80003672:	36 32       	mov	r2,99

80003674 <usart_reset>:
80003674:	e1 b8 00 00 	mfsr	r8,0x0
80003678:	e6 18 00 01 	andh	r8,0x1,COH
8000367c:	c0 71       	brne	8000368a <usart_reset+0x16>
8000367e:	d3 03       	ssrf	0x10
80003680:	3f f8       	mov	r8,-1
80003682:	99 38       	st.w	r12[0xc],r8
80003684:	78 58       	ld.w	r8,r12[0x14]
80003686:	d5 03       	csrf	0x10
80003688:	c0 48       	rjmp	80003690 <usart_reset+0x1c>
8000368a:	3f f8       	mov	r8,-1
8000368c:	99 38       	st.w	r12[0xc],r8
8000368e:	78 58       	ld.w	r8,r12[0x14]
80003690:	30 08       	mov	r8,0
80003692:	99 18       	st.w	r12[0x4],r8
80003694:	99 98       	st.w	r12[0x24],r8
80003696:	99 a8       	st.w	r12[0x28],r8
80003698:	ea 68 61 0c 	mov	r8,680204
8000369c:	99 08       	st.w	r12[0x0],r8
8000369e:	5e fc       	retal	r12

800036a0 <usart_init_rs232>:
800036a0:	eb cd 40 e0 	pushm	r5-r7,lr
800036a4:	18 96       	mov	r6,r12
800036a6:	16 97       	mov	r7,r11
800036a8:	14 95       	mov	r5,r10
800036aa:	f0 1f 00 2f 	mcall	80003764 <usart_init_rs232+0xc4>
800036ae:	58 07       	cp.w	r7,0
800036b0:	c5 80       	breq	80003760 <usart_init_rs232+0xc0>
800036b2:	0f c8       	ld.ub	r8,r7[0x4]
800036b4:	30 49       	mov	r9,4
800036b6:	f2 08 18 00 	cp.b	r8,r9
800036ba:	e0 88 00 53 	brls	80003760 <usart_init_rs232+0xc0>
800036be:	30 99       	mov	r9,9
800036c0:	f2 08 18 00 	cp.b	r8,r9
800036c4:	e0 8b 00 4e 	brhi	80003760 <usart_init_rs232+0xc0>
800036c8:	0f d9       	ld.ub	r9,r7[0x5]
800036ca:	30 78       	mov	r8,7
800036cc:	f0 09 18 00 	cp.b	r9,r8
800036d0:	e0 8b 00 48 	brhi	80003760 <usart_init_rs232+0xc0>
800036d4:	8e 39       	ld.sh	r9,r7[0x6]
800036d6:	e0 68 01 01 	mov	r8,257
800036da:	f0 09 19 00 	cp.h	r9,r8
800036de:	e0 8b 00 41 	brhi	80003760 <usart_init_rs232+0xc0>
800036e2:	ef 39 00 08 	ld.ub	r9,r7[8]
800036e6:	30 38       	mov	r8,3
800036e8:	f0 09 18 00 	cp.b	r9,r8
800036ec:	e0 8b 00 3a 	brhi	80003760 <usart_init_rs232+0xc0>
800036f0:	0a 9a       	mov	r10,r5
800036f2:	6e 0b       	ld.w	r11,r7[0x0]
800036f4:	0c 9c       	mov	r12,r6
800036f6:	f0 1f 00 1d 	mcall	80003768 <usart_init_rs232+0xc8>
800036fa:	58 1c       	cp.w	r12,1
800036fc:	c3 20       	breq	80003760 <usart_init_rs232+0xc0>
800036fe:	0f c8       	ld.ub	r8,r7[0x4]
80003700:	30 99       	mov	r9,9
80003702:	f2 08 18 00 	cp.b	r8,r9
80003706:	c0 51       	brne	80003710 <usart_init_rs232+0x70>
80003708:	6c 18       	ld.w	r8,r6[0x4]
8000370a:	b1 b8       	sbr	r8,0x11
8000370c:	8d 18       	st.w	r6[0x4],r8
8000370e:	c0 68       	rjmp	8000371a <usart_init_rs232+0x7a>
80003710:	6c 19       	ld.w	r9,r6[0x4]
80003712:	20 58       	sub	r8,5
80003714:	f3 e8 10 68 	or	r8,r9,r8<<0x6
80003718:	8d 18       	st.w	r6[0x4],r8
8000371a:	6c 19       	ld.w	r9,r6[0x4]
8000371c:	ef 3a 00 08 	ld.ub	r10,r7[8]
80003720:	0f d8       	ld.ub	r8,r7[0x5]
80003722:	a9 78       	lsl	r8,0x9
80003724:	f1 ea 10 e8 	or	r8,r8,r10<<0xe
80003728:	12 48       	or	r8,r9
8000372a:	8d 18       	st.w	r6[0x4],r8
8000372c:	8e 38       	ld.sh	r8,r7[0x6]
8000372e:	30 29       	mov	r9,2
80003730:	f2 08 19 00 	cp.h	r8,r9
80003734:	e0 88 00 09 	brls	80003746 <usart_init_rs232+0xa6>
80003738:	6c 18       	ld.w	r8,r6[0x4]
8000373a:	ad b8       	sbr	r8,0xd
8000373c:	8d 18       	st.w	r6[0x4],r8
8000373e:	8e b8       	ld.uh	r8,r7[0x6]
80003740:	20 28       	sub	r8,2
80003742:	8d a8       	st.w	r6[0x28],r8
80003744:	c0 68       	rjmp	80003750 <usart_init_rs232+0xb0>
80003746:	6c 19       	ld.w	r9,r6[0x4]
80003748:	5c 78       	castu.h	r8
8000374a:	f3 e8 10 c8 	or	r8,r9,r8<<0xc
8000374e:	8d 18       	st.w	r6[0x4],r8
80003750:	6c 18       	ld.w	r8,r6[0x4]
80003752:	e0 18 ff f0 	andl	r8,0xfff0
80003756:	8d 18       	st.w	r6[0x4],r8
80003758:	35 08       	mov	r8,80
8000375a:	8d 08       	st.w	r6[0x0],r8
8000375c:	e3 cf 80 e0 	ldm	sp++,r5-r7,pc,r12=0
80003760:	e3 cf 90 e0 	ldm	sp++,r5-r7,pc,r12=1
80003764:	80 00       	ld.sh	r0,r0[0x0]
80003766:	36 74       	mov	r4,103
80003768:	80 00       	ld.sh	r0,r0[0x0]
8000376a:	35 d8       	mov	r8,93

8000376c <_stext>:
8000376c:	e0 7d 00 00 	mov	sp,65536
80003770:	fe c0 bf 70 	sub	r0,pc,-16528
80003774:	e3 b0 00 01 	mtsr	0x4,r0
80003778:	d5 53       	csrf	0x15
8000377a:	30 40       	mov	r0,4
8000377c:	e0 61 06 d8 	mov	r1,1752
80003780:	02 30       	cp.w	r0,r1
80003782:	c0 72       	brcc	80003790 <idata_load_loop_end>
80003784:	fe c2 87 8c 	sub	r2,pc,-30836

80003788 <idata_load_loop>:
80003788:	a5 05       	ld.d	r4,r2++
8000378a:	a1 24       	st.d	r0++,r4
8000378c:	02 30       	cp.w	r0,r1
8000378e:	cf d3       	brcs	80003788 <idata_load_loop>

80003790 <idata_load_loop_end>:
80003790:	e0 60 06 d8 	mov	r0,1752
80003794:	e0 61 19 a8 	mov	r1,6568
80003798:	02 30       	cp.w	r0,r1
8000379a:	c0 62       	brcc	800037a6 <udata_clear_loop_end>
8000379c:	30 02       	mov	r2,0
8000379e:	30 03       	mov	r3,0

800037a0 <udata_clear_loop>:
800037a0:	a1 22       	st.d	r0++,r2
800037a2:	02 30       	cp.w	r0,r1
800037a4:	cf e3       	brcs	800037a0 <udata_clear_loop>

800037a6 <udata_clear_loop_end>:
800037a6:	fe cf c1 16 	sub	pc,pc,-16106
800037aa:	d7 03       	nop

800037ac <_setOutput>:
 * Last modified 23.11.17 MLN
 */
void _setOutput (uint16_t inputA, uint16_t inputB){
	
	// Selecting chip
	AVR32_GPIO.port[1].ovrc = 1 << (DAC_CS_PIN & 0x1F);
800037ac:	fe 78 10 00 	mov	r8,-61440
800037b0:	e0 69 10 00 	mov	r9,4096
800037b4:	f1 49 01 58 	st.w	r8[344],r9
	// Writing parallel input (10-bit)
	AVR32_GPIO.port[1].ovrs = (0x000003FF & inputB);
800037b8:	5c 7b       	castu.h	r11
800037ba:	f5 db c0 0a 	bfextu	r10,r11,0x0,0xa
800037be:	f1 4a 01 54 	st.w	r8[340],r10
	AVR32_GPIO.port[1].ovrc = (0x000003FF & ~(inputB));
800037c2:	5c db       	com	r11
800037c4:	f7 db c0 0a 	bfextu	r11,r11,0x0,0xa
800037c8:	f1 4b 01 58 	st.w	r8[344],r11
	// Writing input registers B
	AVR32_GPIO.port[1].ovrc = 1 << (DAC_WR_PIN & 0x1F);
800037cc:	e0 6a 20 00 	mov	r10,8192
800037d0:	f1 4a 01 58 	st.w	r8[344],r10
	AVR32_GPIO.port[1].ovrs = 1 << (DAC_WR_PIN & 0x1F);
800037d4:	f1 4a 01 54 	st.w	r8[340],r10
	// Writing parallel input (10-bit)
	AVR32_GPIO.port[1].ovrs = (0x000003FF & inputA);
800037d8:	5c 7c       	castu.h	r12
800037da:	f7 dc c0 0a 	bfextu	r11,r12,0x0,0xa
800037de:	f1 4b 01 54 	st.w	r8[340],r11
	AVR32_GPIO.port[1].ovrc = (0x000003FF & ~(inputA));
800037e2:	5c dc       	com	r12
800037e4:	f9 dc c0 0a 	bfextu	r12,r12,0x0,0xa
800037e8:	f1 4c 01 58 	st.w	r8[344],r12
	// Selecting channel A
	AVR32_GPIO.port[1].ovrs = 1 << (DAC_A0_PIN & 0x1F);
800037ec:	e0 6b 08 00 	mov	r11,2048
800037f0:	f1 4b 01 54 	st.w	r8[340],r11
	// Writing input register A
	AVR32_GPIO.port[1].ovrc = 1 << (DAC_WR_PIN & 0x1F);
800037f4:	f1 4a 01 58 	st.w	r8[344],r10
	AVR32_GPIO.port[1].ovrs = 1 << (DAC_WR_PIN & 0x1F);
800037f8:	f1 4a 01 54 	st.w	r8[340],r10
	// Selecting channel B
	AVR32_GPIO.port[1].ovrc = 1 << (DAC_A0_PIN & 0x1F);
800037fc:	f1 4b 01 58 	st.w	r8[344],r11
	// Loading data from input to output registers
	AVR32_GPIO.port[1].ovrc = 1 << (DAC_LDAC_PIN & 0x1F);
80003800:	e0 6a 40 00 	mov	r10,16384
80003804:	f1 4a 01 58 	st.w	r8[344],r10
	AVR32_GPIO.port[1].ovrs = 1 << (DAC_LDAC_PIN & 0x1F);
80003808:	f1 4a 01 54 	st.w	r8[340],r10
	// De-selecting chip
	AVR32_GPIO.port[1].ovrs = 1 << (DAC_CS_PIN & 0x1F);
8000380c:	f1 49 01 54 	st.w	r8[340],r9
	
}
80003810:	5e fc       	retal	r12
80003812:	d7 03       	nop

80003814 <_fileVerification>:
 * Returns program-wide error codes as defined in audio.h
 *
 * Created 17.11.17 MLN
 * Last modified 20.11.17 MLN
 */
uint8_t _fileVerification(){
80003814:	eb cd 40 f8 	pushm	r3-r7,lr
	uint16_t headerIndex = 8;
	uint16_t i = 0;
	// Verifying file format ID in RIFF header
	if (wavData1[headerIndex] != 'W' || wavData1[headerIndex + 1] != 'A' || wavData1[headerIndex + 2] != 'V' || wavData1[headerIndex + 3] != 'E'){
80003818:	fe f8 03 68 	ld.w	r8,pc[872]
8000381c:	f1 39 00 08 	ld.ub	r9,r8[8]
80003820:	35 78       	mov	r8,87
80003822:	f0 09 18 00 	cp.b	r9,r8
80003826:	e0 81 01 a6 	brne	80003b72 <_fileVerification+0x35e>
8000382a:	fe f8 03 56 	ld.w	r8,pc[854]
8000382e:	f1 39 00 09 	ld.ub	r9,r8[9]
80003832:	34 18       	mov	r8,65
80003834:	f0 09 18 00 	cp.b	r9,r8
80003838:	e0 81 01 9d 	brne	80003b72 <_fileVerification+0x35e>
8000383c:	fe f8 03 44 	ld.w	r8,pc[836]
80003840:	f1 39 00 0a 	ld.ub	r9,r8[10]
80003844:	35 68       	mov	r8,86
80003846:	f0 09 18 00 	cp.b	r9,r8
8000384a:	e0 81 01 94 	brne	80003b72 <_fileVerification+0x35e>
8000384e:	fe f8 03 32 	ld.w	r8,pc[818]
80003852:	f1 39 00 0b 	ld.ub	r9,r8[11]
80003856:	34 58       	mov	r8,69
80003858:	f0 09 18 00 	cp.b	r9,r8
8000385c:	e0 81 01 8b 	brne	80003b72 <_fileVerification+0x35e>
80003860:	fe f8 03 20 	ld.w	r8,pc[800]
80003864:	2f 88       	sub	r8,-8
80003866:	30 89       	mov	r9,8
	
	
	// Beginning fetch AudioInfo routine
	
	// Finding "fmt " subchunk in header, then jumping to next relevant block
	while (wavData1[headerIndex] != 'f' && wavData1[headerIndex + 1] != 'm' && wavData1[headerIndex + 2] != 't' && wavData1[headerIndex + 3] != ' ') {
80003868:	36 6b       	mov	r11,102
8000386a:	36 dc       	mov	r12,109
8000386c:	37 4e       	mov	lr,116
8000386e:	32 07       	mov	r7,32
		headerIndex++;
		if (headerIndex > SECTOR_SIZE){
80003870:	e0 66 02 01 	mov	r6,513
80003874:	c0 a8       	rjmp	80003888 <_fileVerification+0x74>
	
	// Beginning fetch AudioInfo routine
	
	// Finding "fmt " subchunk in header, then jumping to next relevant block
	while (wavData1[headerIndex] != 'f' && wavData1[headerIndex + 1] != 'm' && wavData1[headerIndex + 2] != 't' && wavData1[headerIndex + 3] != ' ') {
		headerIndex++;
80003876:	2f f9       	sub	r9,-1
80003878:	5c 89       	casts.h	r9
8000387a:	2f f8       	sub	r8,-1
		if (headerIndex > SECTOR_SIZE){
8000387c:	ec 09 19 00 	cp.h	r9,r6
80003880:	c0 41       	brne	80003888 <_fileVerification+0x74>
80003882:	30 6c       	mov	r12,6
80003884:	e3 cd 80 f8 	ldm	sp++,r3-r7,pc
	
	
	// Beginning fetch AudioInfo routine
	
	// Finding "fmt " subchunk in header, then jumping to next relevant block
	while (wavData1[headerIndex] != 'f' && wavData1[headerIndex + 1] != 'm' && wavData1[headerIndex + 2] != 't' && wavData1[headerIndex + 3] != ' ') {
80003888:	11 8a       	ld.ub	r10,r8[0x0]
8000388a:	f6 0a 18 00 	cp.b	r10,r11
8000388e:	c0 d0       	breq	800038a8 <_fileVerification+0x94>
80003890:	11 9a       	ld.ub	r10,r8[0x1]
80003892:	f8 0a 18 00 	cp.b	r10,r12
80003896:	c0 90       	breq	800038a8 <_fileVerification+0x94>
80003898:	11 aa       	ld.ub	r10,r8[0x2]
8000389a:	fc 0a 18 00 	cp.b	r10,lr
8000389e:	c0 50       	breq	800038a8 <_fileVerification+0x94>
800038a0:	11 ba       	ld.ub	r10,r8[0x3]
800038a2:	ee 0a 18 00 	cp.b	r10,r7
800038a6:	ce 81       	brne	80003876 <_fileVerification+0x62>
		}
	}
	// Jumps to Subchunk1Size block
	headerIndex += 4;
	// Jumps to AudioFormat block
	headerIndex += 4;
800038a8:	2f 89       	sub	r9,-8
800038aa:	5c 89       	casts.h	r9
	
	if (wavData1[headerIndex + 0] != 1) {
800038ac:	f1 d9 c0 10 	bfextu	r8,r9,0x0,0x10
800038b0:	fe fa 02 d0 	ld.w	r10,pc[720]
800038b4:	f4 08 07 0a 	ld.ub	r10,r10[r8]
800038b8:	30 18       	mov	r8,1
800038ba:	f0 0a 18 00 	cp.b	r10,r8
800038be:	c0 40       	breq	800038c6 <_fileVerification+0xb2>
800038c0:	30 5c       	mov	r12,5
800038c2:	e3 cd 80 f8 	ldm	sp++,r3-r7,pc
		return ERROR_FILE_COMPRESSED;
	}
	
	// Jumps to NumChannels block
	headerIndex += 2;
800038c6:	f2 ca ff fe 	sub	r10,r9,-2
	fileData.channelNumber = wavData1[headerIndex + 0];
800038ca:	fe f9 02 ba 	ld.w	r9,pc[698]
800038ce:	fe f8 02 b2 	ld.w	r8,pc[690]
800038d2:	f7 da c0 10 	bfextu	r11,r10,0x0,0x10
800038d6:	f0 0b 07 0b 	ld.ub	r11,r8[r11]
800038da:	b2 8b       	st.b	r9[0x0],r11
	
	// Jumps to SampleRate block
	headerIndex += 2;
800038dc:	f4 cb ff fe 	sub	r11,r10,-2
	// Puts 4 SampleRate bytes on a single 32-bit integer before assigning it to fileData.sampleRate
	fileData.sampleRate = 
		(wavData1[headerIndex + 3] << 24) |
800038e0:	f9 db c0 10 	bfextu	r12,r11,0x0,0x10
	fileData.channelNumber = wavData1[headerIndex + 0];
	
	// Jumps to SampleRate block
	headerIndex += 2;
	// Puts 4 SampleRate bytes on a single 32-bit integer before assigning it to fileData.sampleRate
	fileData.sampleRate = 
800038e4:	f0 0c 00 0a 	add	r10,r8,r12
800038e8:	15 b7       	ld.ub	r7,r10[0x3]
800038ea:	15 ae       	ld.ub	lr,r10[0x2]
800038ec:	b1 6e       	lsl	lr,0x10
800038ee:	fd e7 11 8e 	or	lr,lr,r7<<0x18
800038f2:	f0 0c 07 0c 	ld.ub	r12,r8[r12]
800038f6:	fd ec 10 0c 	or	r12,lr,r12
800038fa:	15 9a       	ld.ub	r10,r10[0x1]
800038fc:	f9 ea 10 8a 	or	r10,r12,r10<<0x8
80003900:	93 1a       	st.w	r9[0x4],r10
	
	// Jumps to ByteRate block
	headerIndex += 4;
	
	// Jumps to BlockAlign block
	headerIndex += 4;
80003902:	f6 ca ff f8 	sub	r10,r11,-8
	// Assigns fileData.blockAlign value
	fileData.blockAlign = 
		(wavData1[headerIndex + 1] << 8) |
80003906:	f7 da c0 10 	bfextu	r11,r10,0x0,0x10
	headerIndex += 4;
	
	// Jumps to BlockAlign block
	headerIndex += 4;
	// Assigns fileData.blockAlign value
	fileData.blockAlign = 
8000390a:	f0 0b 00 0c 	add	r12,r8,r11
8000390e:	19 9c       	ld.ub	r12,r12[0x1]
80003910:	f0 0b 07 0b 	ld.ub	r11,r8[r11]
80003914:	f7 ec 10 8b 	or	r11,r11,r12<<0x8
80003918:	b2 4b       	st.h	r9[0x8],r11
	;
	
	// Jumps to BitsPerSample block
	headerIndex += 2;
	fileData.bitsPerSample =
		(wavData1[headerIndex + 1] << 8) |
8000391a:	2f ea       	sub	r10,-2
8000391c:	5c 7a       	castu.h	r10
		(wavData1[headerIndex + 0])
	;
	
	// Jumps to BitsPerSample block
	headerIndex += 2;
	fileData.bitsPerSample =
8000391e:	f0 0a 00 0b 	add	r11,r8,r10
80003922:	17 9b       	ld.ub	r11,r11[0x1]
80003924:	f0 0a 07 0a 	ld.ub	r10,r8[r10]
80003928:	f5 eb 10 8a 	or	r10,r10,r11<<0x8
8000392c:	b2 5a       	st.h	r9[0xa],r10
8000392e:	30 09       	mov	r9,0
	;
	
	
	// Finding metadata
	headerIndex = 0;
	while (wavData1[headerIndex] != 'I' && wavData1[headerIndex + 1] != 'N' && wavData1[headerIndex + 2] != 'F' && wavData1[headerIndex + 3] != 'O') {
80003930:	34 9b       	mov	r11,73
80003932:	34 ec       	mov	r12,78
80003934:	34 6e       	mov	lr,70
80003936:	34 f7       	mov	r7,79
		headerIndex++;
		if (headerIndex > SECTOR_SIZE){
80003938:	e0 66 02 01 	mov	r6,513
	;
	
	
	// Finding metadata
	headerIndex = 0;
	while (wavData1[headerIndex] != 'I' && wavData1[headerIndex + 1] != 'N' && wavData1[headerIndex + 2] != 'F' && wavData1[headerIndex + 3] != 'O') {
8000393c:	c0 78       	rjmp	8000394a <_fileVerification+0x136>
		headerIndex++;
8000393e:	2f f9       	sub	r9,-1
80003940:	5c 89       	casts.h	r9
80003942:	2f f8       	sub	r8,-1
		if (headerIndex > SECTOR_SIZE){
80003944:	ec 09 19 00 	cp.h	r9,r6
80003948:	c3 40       	breq	800039b0 <_fileVerification+0x19c>
	;
	
	
	// Finding metadata
	headerIndex = 0;
	while (wavData1[headerIndex] != 'I' && wavData1[headerIndex + 1] != 'N' && wavData1[headerIndex + 2] != 'F' && wavData1[headerIndex + 3] != 'O') {
8000394a:	11 8a       	ld.ub	r10,r8[0x0]
8000394c:	f6 0a 18 00 	cp.b	r10,r11
80003950:	c0 d0       	breq	8000396a <_fileVerification+0x156>
80003952:	11 9a       	ld.ub	r10,r8[0x1]
80003954:	f8 0a 18 00 	cp.b	r10,r12
80003958:	c0 90       	breq	8000396a <_fileVerification+0x156>
8000395a:	11 aa       	ld.ub	r10,r8[0x2]
8000395c:	fc 0a 18 00 	cp.b	r10,lr
80003960:	c0 50       	breq	8000396a <_fileVerification+0x156>
80003962:	11 ba       	ld.ub	r10,r8[0x3]
80003964:	ee 0a 18 00 	cp.b	r10,r7
80003968:	ce b1       	brne	8000393e <_fileVerification+0x12a>
			break;
			// no metadata return ERROR_NO_DATA_SUBCHUNK;
		}
	}
	
	if (headerIndex == 0){
8000396a:	58 09       	cp.w	r9,0
8000396c:	c2 30       	breq	800039b2 <_fileVerification+0x19e>
		*fileData.album = "Unknown album";
		fileData.creationYear = 0;
	}
	else {
		// Finding Artist tag
		while (wavData1[headerIndex + i] != 'I' && wavData1[headerIndex + i + 1] != 'A' && wavData1[headerIndex + i + 2] != 'R' && wavData1[headerIndex + i + 3] != 'T'){
8000396e:	f9 d9 c0 10 	bfextu	r12,r9,0x0,0x10
80003972:	fe f8 02 0e 	ld.w	r8,pc[526]
80003976:	f0 0c 07 06 	ld.ub	r6,r8[r12]
8000397a:	34 98       	mov	r8,73
8000397c:	f0 06 18 00 	cp.b	r6,r8
80003980:	c4 a0       	breq	80003a14 <_fileVerification+0x200>
80003982:	fe f8 01 fe 	ld.w	r8,pc[510]
80003986:	18 08       	add	r8,r12
80003988:	11 9a       	ld.ub	r10,r8[0x1]
8000398a:	34 18       	mov	r8,65
8000398c:	f0 0a 18 00 	cp.b	r10,r8
80003990:	c4 20       	breq	80003a14 <_fileVerification+0x200>
80003992:	4f c8       	lddpc	r8,80003b80 <_fileVerification+0x36c>
80003994:	18 08       	add	r8,r12
80003996:	11 aa       	ld.ub	r10,r8[0x2]
80003998:	35 28       	mov	r8,82
8000399a:	f0 0a 18 00 	cp.b	r10,r8
8000399e:	c3 b0       	breq	80003a14 <_fileVerification+0x200>
800039a0:	4f 88       	lddpc	r8,80003b80 <_fileVerification+0x36c>
800039a2:	18 08       	add	r8,r12
800039a4:	11 ba       	ld.ub	r10,r8[0x3]
800039a6:	35 48       	mov	r8,84
800039a8:	f0 0a 18 00 	cp.b	r10,r8
800039ac:	c1 11       	brne	800039ce <_fileVerification+0x1ba>
800039ae:	c3 38       	rjmp	80003a14 <_fileVerification+0x200>
800039b0:	30 09       	mov	r9,0
			// no metadata return ERROR_NO_DATA_SUBCHUNK;
		}
	}
	
	if (headerIndex == 0){
		*fileData.title = "Unknown title";
800039b2:	4f 58       	lddpc	r8,80003b84 <_fileVerification+0x370>
800039b4:	4f 5a       	lddpc	r10,80003b88 <_fileVerification+0x374>
800039b6:	f1 6a 00 15 	st.b	r8[21],r10
		*fileData.artist = "Unknown artist";
800039ba:	4f 5a       	lddpc	r10,80003b8c <_fileVerification+0x378>
800039bc:	f1 6a 00 2d 	st.b	r8[45],r10
		*fileData.album = "Unknown album";
800039c0:	4f 4a       	lddpc	r10,80003b90 <_fileVerification+0x37c>
800039c2:	f1 6a 00 45 	st.b	r8[69],r10
		fileData.creationYear = 0;
800039c6:	30 0a       	mov	r10,0
800039c8:	f1 5a 00 5e 	st.h	r8[94],r10
800039cc:	c8 a8       	rjmp	80003ae0 <_fileVerification+0x2cc>
800039ce:	30 0b       	mov	r11,0
	}
	else {
		// Finding Artist tag
		while (wavData1[headerIndex + i] != 'I' && wavData1[headerIndex + i + 1] != 'A' && wavData1[headerIndex + i + 2] != 'R' && wavData1[headerIndex + i + 3] != 'T'){
800039d0:	4e ca       	lddpc	r10,80003b80 <_fileVerification+0x36c>
800039d2:	34 97       	mov	r7,73
800039d4:	34 15       	mov	r5,65
800039d6:	35 24       	mov	r4,82
800039d8:	35 43       	mov	r3,84
			i++;
800039da:	2f fb       	sub	r11,-1
800039dc:	5c 8b       	casts.h	r11
		*fileData.album = "Unknown album";
		fileData.creationYear = 0;
	}
	else {
		// Finding Artist tag
		while (wavData1[headerIndex + i] != 'I' && wavData1[headerIndex + i + 1] != 'A' && wavData1[headerIndex + i + 2] != 'R' && wavData1[headerIndex + i + 3] != 'T'){
800039de:	f1 db c0 10 	bfextu	r8,r11,0x0,0x10
800039e2:	18 08       	add	r8,r12
800039e4:	f4 08 07 0e 	ld.ub	lr,r10[r8]
800039e8:	ee 0e 18 00 	cp.b	lr,r7
800039ec:	c1 50       	breq	80003a16 <_fileVerification+0x202>
800039ee:	f4 08 00 0e 	add	lr,r10,r8
800039f2:	1d 9e       	ld.ub	lr,lr[0x1]
800039f4:	ea 0e 18 00 	cp.b	lr,r5
800039f8:	c0 f0       	breq	80003a16 <_fileVerification+0x202>
800039fa:	f4 08 00 0e 	add	lr,r10,r8
800039fe:	1d ae       	ld.ub	lr,lr[0x2]
80003a00:	e8 0e 18 00 	cp.b	lr,r4
80003a04:	c0 90       	breq	80003a16 <_fileVerification+0x202>
80003a06:	f4 08 00 08 	add	r8,r10,r8
80003a0a:	11 b8       	ld.ub	r8,r8[0x3]
80003a0c:	e6 08 18 00 	cp.b	r8,r3
80003a10:	ce 51       	brne	800039da <_fileVerification+0x1c6>
80003a12:	c0 28       	rjmp	80003a16 <_fileVerification+0x202>
80003a14:	30 0b       	mov	r11,0
80003a16:	f6 c8 ff fc 	sub	r8,r11,-4
80003a1a:	5c 78       	castu.h	r8
80003a1c:	f8 08 00 08 	add	r8,r12,r8
80003a20:	4d 8a       	lddpc	r10,80003b80 <_fileVerification+0x36c>
80003a22:	10 0a       	add	r10,r8
80003a24:	4d 87       	lddpc	r7,80003b84 <_fileVerification+0x370>
80003a26:	ee c8 ff d3 	sub	r8,r7,-45
 * Returns program-wide error codes as defined in audio.h
 *
 * Created 17.11.17 MLN
 * Last modified 20.11.17 MLN
 */
uint8_t _fileVerification(){
80003a2a:	ee ce ff bb 	sub	lr,r7,-69
			i++;
		}
		i += 4;
		// Applying found tag to fileData
		for (uint8_t j = 0; j < MAXMETADATACHARS; j++){
			fileData.artist[j] = wavData1[headerIndex + i + j];
80003a2e:	15 3b       	ld.ub	r11,r10++
80003a30:	10 cb       	st.b	r8++,r11
		while (wavData1[headerIndex + i] != 'I' && wavData1[headerIndex + i + 1] != 'A' && wavData1[headerIndex + i + 2] != 'R' && wavData1[headerIndex + i + 3] != 'T'){
			i++;
		}
		i += 4;
		// Applying found tag to fileData
		for (uint8_t j = 0; j < MAXMETADATACHARS; j++){
80003a32:	1c 38       	cp.w	r8,lr
80003a34:	cf d1       	brne	80003a2e <_fileVerification+0x21a>
		}
		
		
		i = 0;
		// Finding Title tag
		while (wavData1[headerIndex + i] != 'I' && wavData1[headerIndex + i + 1] != 'N' && wavData1[headerIndex + i + 2] != 'A' && wavData1[headerIndex + i + 3] != 'M'){
80003a36:	34 98       	mov	r8,73
80003a38:	f0 06 18 00 	cp.b	r6,r8
80003a3c:	c3 90       	breq	80003aae <_fileVerification+0x29a>
80003a3e:	4d 18       	lddpc	r8,80003b80 <_fileVerification+0x36c>
80003a40:	18 08       	add	r8,r12
80003a42:	11 9a       	ld.ub	r10,r8[0x1]
80003a44:	34 e8       	mov	r8,78
80003a46:	f0 0a 18 00 	cp.b	r10,r8
80003a4a:	c3 20       	breq	80003aae <_fileVerification+0x29a>
80003a4c:	4c d8       	lddpc	r8,80003b80 <_fileVerification+0x36c>
80003a4e:	18 08       	add	r8,r12
80003a50:	11 aa       	ld.ub	r10,r8[0x2]
80003a52:	34 18       	mov	r8,65
80003a54:	f0 0a 18 00 	cp.b	r10,r8
80003a58:	c2 b0       	breq	80003aae <_fileVerification+0x29a>
80003a5a:	4c a8       	lddpc	r8,80003b80 <_fileVerification+0x36c>
80003a5c:	18 08       	add	r8,r12
80003a5e:	11 ba       	ld.ub	r10,r8[0x3]
80003a60:	34 d8       	mov	r8,77
80003a62:	f0 0a 18 00 	cp.b	r10,r8
80003a66:	c2 40       	breq	80003aae <_fileVerification+0x29a>
80003a68:	30 0b       	mov	r11,0
80003a6a:	4c 6a       	lddpc	r10,80003b80 <_fileVerification+0x36c>
80003a6c:	34 96       	mov	r6,73
80003a6e:	34 e5       	mov	r5,78
80003a70:	34 14       	mov	r4,65
80003a72:	10 93       	mov	r3,r8
			i++;
80003a74:	2f fb       	sub	r11,-1
80003a76:	5c 8b       	casts.h	r11
		}
		
		
		i = 0;
		// Finding Title tag
		while (wavData1[headerIndex + i] != 'I' && wavData1[headerIndex + i + 1] != 'N' && wavData1[headerIndex + i + 2] != 'A' && wavData1[headerIndex + i + 3] != 'M'){
80003a78:	f1 db c0 10 	bfextu	r8,r11,0x0,0x10
80003a7c:	18 08       	add	r8,r12
80003a7e:	f4 08 07 0e 	ld.ub	lr,r10[r8]
80003a82:	ec 0e 18 00 	cp.b	lr,r6
80003a86:	c1 50       	breq	80003ab0 <_fileVerification+0x29c>
80003a88:	f4 08 00 0e 	add	lr,r10,r8
80003a8c:	1d 9e       	ld.ub	lr,lr[0x1]
80003a8e:	ea 0e 18 00 	cp.b	lr,r5
80003a92:	c0 f0       	breq	80003ab0 <_fileVerification+0x29c>
80003a94:	f4 08 00 0e 	add	lr,r10,r8
80003a98:	1d ae       	ld.ub	lr,lr[0x2]
80003a9a:	e8 0e 18 00 	cp.b	lr,r4
80003a9e:	c0 90       	breq	80003ab0 <_fileVerification+0x29c>
80003aa0:	f4 08 00 08 	add	r8,r10,r8
80003aa4:	11 b8       	ld.ub	r8,r8[0x3]
80003aa6:	e6 08 18 00 	cp.b	r8,r3
80003aaa:	ce 51       	brne	80003a74 <_fileVerification+0x260>
80003aac:	c0 28       	rjmp	80003ab0 <_fileVerification+0x29c>
80003aae:	30 0b       	mov	r11,0
80003ab0:	f6 c8 ff fc 	sub	r8,r11,-4
80003ab4:	5c 78       	castu.h	r8
80003ab6:	10 0c       	add	r12,r8
80003ab8:	4b 2a       	lddpc	r10,80003b80 <_fileVerification+0x36c>
80003aba:	18 0a       	add	r10,r12
80003abc:	4b 28       	lddpc	r8,80003b84 <_fileVerification+0x370>
80003abe:	2e b8       	sub	r8,-21
 * Returns program-wide error codes as defined in audio.h
 *
 * Created 17.11.17 MLN
 * Last modified 20.11.17 MLN
 */
uint8_t _fileVerification(){
80003ac0:	ee cc ff d3 	sub	r12,r7,-45
			i++;
		}
		i += 4;
		// Applying found tag to fileData
		for (uint8_t j = 0; j < MAXMETADATACHARS; j++){
			fileData.title[j] = wavData1[headerIndex + i + j];
80003ac4:	15 3b       	ld.ub	r11,r10++
80003ac6:	10 cb       	st.b	r8++,r11
		while (wavData1[headerIndex + i] != 'I' && wavData1[headerIndex + i + 1] != 'N' && wavData1[headerIndex + i + 2] != 'A' && wavData1[headerIndex + i + 3] != 'M'){
			i++;
		}
		i += 4;
		// Applying found tag to fileData
		for (uint8_t j = 0; j < MAXMETADATACHARS; j++){
80003ac8:	18 38       	cp.w	r8,r12
80003aca:	cf d1       	brne	80003ac4 <_fileVerification+0x2b0>
80003acc:	c0 a8       	rjmp	80003ae0 <_fileVerification+0x2cc>
	}
	
	
	// Finding "data" chunk
	while (wavData1[headerIndex] != 'd' && wavData1[headerIndex + 1] != 'a' && wavData1[headerIndex + 2] != 't' && wavData1[headerIndex + 3] != 'a') {
		headerIndex++;
80003ace:	2f f9       	sub	r9,-1
80003ad0:	5c 89       	casts.h	r9
		if (headerIndex > SECTOR_SIZE){
80003ad2:	ec 09 19 00 	cp.h	r9,r6
80003ad6:	e0 88 00 0b 	brls	80003aec <_fileVerification+0x2d8>
80003ada:	30 7c       	mov	r12,7
80003adc:	e3 cd 80 f8 	ldm	sp++,r3-r7,pc
		
	}
	
	
	// Finding "data" chunk
	while (wavData1[headerIndex] != 'd' && wavData1[headerIndex + 1] != 'a' && wavData1[headerIndex + 2] != 't' && wavData1[headerIndex + 3] != 'a') {
80003ae0:	4a 8a       	lddpc	r10,80003b80 <_fileVerification+0x36c>
80003ae2:	36 4e       	mov	lr,100
80003ae4:	36 1b       	mov	r11,97
80003ae6:	37 47       	mov	r7,116
		headerIndex++;
		if (headerIndex > SECTOR_SIZE){
80003ae8:	e0 66 02 00 	mov	r6,512
		
	}
	
	
	// Finding "data" chunk
	while (wavData1[headerIndex] != 'd' && wavData1[headerIndex + 1] != 'a' && wavData1[headerIndex + 2] != 't' && wavData1[headerIndex + 3] != 'a') {
80003aec:	f1 d9 c0 10 	bfextu	r8,r9,0x0,0x10
80003af0:	f4 08 07 0c 	ld.ub	r12,r10[r8]
80003af4:	fc 0c 18 00 	cp.b	r12,lr
80003af8:	c1 30       	breq	80003b1e <_fileVerification+0x30a>
80003afa:	f4 08 00 0c 	add	r12,r10,r8
80003afe:	19 9c       	ld.ub	r12,r12[0x1]
80003b00:	f6 0c 18 00 	cp.b	r12,r11
80003b04:	c0 d0       	breq	80003b1e <_fileVerification+0x30a>
80003b06:	f4 08 00 0c 	add	r12,r10,r8
80003b0a:	19 ac       	ld.ub	r12,r12[0x2]
80003b0c:	ee 0c 18 00 	cp.b	r12,r7
80003b10:	c0 70       	breq	80003b1e <_fileVerification+0x30a>
80003b12:	f4 08 00 08 	add	r8,r10,r8
80003b16:	11 b8       	ld.ub	r8,r8[0x3]
80003b18:	f6 08 18 00 	cp.b	r8,r11
80003b1c:	cd 91       	brne	80003ace <_fileVerification+0x2ba>
		}
	}
	
	
	// Jumps to Subchunk2Size
	headerIndex += 4;
80003b1e:	2f c9       	sub	r9,-4
	fileData.audioSampleBytes =
		(wavData1[headerIndex + 3] << 24) |
80003b20:	f5 d9 c0 10 	bfextu	r10,r9,0x0,0x10
	}
	
	
	// Jumps to Subchunk2Size
	headerIndex += 4;
	fileData.audioSampleBytes =
80003b24:	49 7b       	lddpc	r11,80003b80 <_fileVerification+0x36c>
80003b26:	f6 0a 00 08 	add	r8,r11,r10
80003b2a:	11 be       	ld.ub	lr,r8[0x3]
80003b2c:	11 ac       	ld.ub	r12,r8[0x2]
80003b2e:	b1 6c       	lsl	r12,0x10
80003b30:	f9 ee 11 8c 	or	r12,r12,lr<<0x18
80003b34:	f6 0a 07 0a 	ld.ub	r10,r11[r10]
80003b38:	f9 ea 10 0a 	or	r10,r12,r10
80003b3c:	11 98       	ld.ub	r8,r8[0x1]
80003b3e:	f5 e8 10 8a 	or	r10,r10,r8<<0x8
80003b42:	49 18       	lddpc	r8,80003b84 <_fileVerification+0x370>
80003b44:	91 3a       	st.w	r8[0xc],r10
		(wavData1[headerIndex + 2] << 16) |
		(wavData1[headerIndex + 1] << 8) |
		(wavData1[headerIndex + 0])
	;
	
	fileData.audioSampleTables = fileData.audioSampleBytes / WAVDATA_SIZE;
80003b46:	a9 9a       	lsr	r10,0x9
80003b48:	91 4a       	st.w	r8[0x10],r10
	
	
	// Jumps to Data
	headerIndex += 4;
	fileData.firstDataByteIndex = headerIndex;
80003b4a:	2f c9       	sub	r9,-4
80003b4c:	f1 69 00 14 	st.b	r8[20],r9
	
	// Ending fetch AudioInfo routine
	
	
	// Verifying fileData parameters
	if (
80003b50:	11 89       	ld.ub	r9,r8[0x0]
80003b52:	30 28       	mov	r8,2
80003b54:	f0 09 18 00 	cp.b	r9,r8
80003b58:	c1 01       	brne	80003b78 <_fileVerification+0x364>
80003b5a:	48 b8       	lddpc	r8,80003b84 <_fileVerification+0x370>
80003b5c:	70 18       	ld.w	r8,r8[0x4]
80003b5e:	e0 48 ac 44 	cp.w	r8,44100
80003b62:	c0 b1       	brne	80003b78 <_fileVerification+0x364>
80003b64:	48 88       	lddpc	r8,80003b84 <_fileVerification+0x370>
80003b66:	70 28       	ld.w	r8,r8[0x8]
80003b68:	e4 48 00 10 	cp.w	r8,262160
80003b6c:	c0 61       	brne	80003b78 <_fileVerification+0x364>
80003b6e:	e3 cf 90 f8 	ldm	sp++,r3-r7,pc,r12=1
80003b72:	30 4c       	mov	r12,4
80003b74:	e3 cd 80 f8 	ldm	sp++,r3-r7,pc
80003b78:	30 8c       	mov	r12,8
		(fileData.bitsPerSample != AUDIO_BPS)
	) {
		return ERROR_INCOMPATIBLE_FILE;
	}
	return true;
}
80003b7a:	e3 cd 80 f8 	ldm	sp++,r3-r7,pc
80003b7e:	00 00       	add	r0,r0
80003b80:	00 00       	add	r0,r0
80003b82:	00 0c       	add	r12,r0
80003b84:	00 00       	add	r0,r0
80003b86:	0a 5c       	eor	r12,r5
80003b88:	80 00       	ld.sh	r0,r0[0x0]
80003b8a:	7a a0       	ld.w	r0,sp[0x28]
80003b8c:	80 00       	ld.sh	r0,r0[0x0]
80003b8e:	7a b0       	ld.w	r0,sp[0x2c]
80003b90:	80 00       	ld.sh	r0,r0[0x0]
80003b92:	7a c0       	ld.w	r0,sp[0x30]

80003b94 <tc1_irq>:
 * audio output if it has not changed since last interruption
 *
 * Created 09.11.17 MLN
 * Last modified 23.11.17 MLN
 */
__attribute__((__interrupt__)) void tc1_irq( void ){
80003b94:	eb cd 40 80 	pushm	r7,lr
	// Updating output first to have a fixed interval update, independent
	// from the data fetching time
	static uint16_t audioR;
	static uint16_t audioL;
	
	_setOutput(audioR, audioL);
80003b98:	4b 78       	lddpc	r8,80003c74 <tc1_irq+0xe0>
80003b9a:	90 8b       	ld.uh	r11,r8[0x0]
80003b9c:	4b 78       	lddpc	r8,80003c78 <tc1_irq+0xe4>
80003b9e:	90 8c       	ld.uh	r12,r8[0x0]
80003ba0:	f0 1f 00 37 	mcall	80003c7c <tc1_irq+0xe8>
	
	// Audio loading
	audioL = *(wavDataPointer + wavDataIndex);
80003ba4:	4b 78       	lddpc	r8,80003c80 <tc1_irq+0xec>
80003ba6:	70 09       	ld.w	r9,r8[0x0]
80003ba8:	4b 7a       	lddpc	r10,80003c84 <tc1_irq+0xf0>
80003baa:	74 08       	ld.w	r8,r10[0x0]
80003bac:	f2 08 07 0c 	ld.ub	r12,r9[r8]
	audioL += (*(wavDataPointer + wavDataIndex + 1)) << 8;
80003bb0:	f2 08 00 0b 	add	r11,r9,r8
80003bb4:	17 9b       	ld.ub	r11,r11[0x1]
	
	wavDataIndex += 2;
80003bb6:	2f e8       	sub	r8,-2
80003bb8:	95 08       	st.w	r10[0x0],r8
	if (wavDataIndex >= WAVDATA_SIZE){
80003bba:	e0 48 01 ff 	cp.w	r8,511
80003bbe:	e0 88 00 16 	brls	80003bea <tc1_irq+0x56>
		//audioR = AUDIOMAXINPUT;
		wavDataIndex = 0;
80003bc2:	30 0a       	mov	r10,0
80003bc4:	4b 08       	lddpc	r8,80003c84 <tc1_irq+0xf0>
80003bc6:	91 0a       	st.w	r8[0x0],r10
		if (wavDataPointer == wavData1) {
80003bc8:	4b 08       	lddpc	r8,80003c88 <tc1_irq+0xf4>
80003bca:	10 39       	cp.w	r9,r8
80003bcc:	c0 81       	brne	80003bdc <tc1_irq+0x48>
			wavDataPointer = wavData2;
80003bce:	4b 09       	lddpc	r9,80003c8c <tc1_irq+0xf8>
80003bd0:	4a c8       	lddpc	r8,80003c80 <tc1_irq+0xec>
80003bd2:	91 09       	st.w	r8[0x0],r9
			loadNextSector = LOAD_WAVDATA1;
80003bd4:	30 19       	mov	r9,1
80003bd6:	4a f8       	lddpc	r8,80003c90 <tc1_irq+0xfc>
80003bd8:	b0 89       	st.b	r8[0x0],r9
80003bda:	c4 28       	rjmp	80003c5e <tc1_irq+0xca>
		}
		else {
			wavDataPointer = wavData1;
80003bdc:	4a b9       	lddpc	r9,80003c88 <tc1_irq+0xf4>
80003bde:	4a 98       	lddpc	r8,80003c80 <tc1_irq+0xec>
80003be0:	91 09       	st.w	r8[0x0],r9
			loadNextSector = LOAD_WAVDATA2;
80003be2:	30 29       	mov	r9,2
80003be4:	4a b8       	lddpc	r8,80003c90 <tc1_irq+0xfc>
80003be6:	b0 89       	st.b	r8[0x0],r9
80003be8:	c3 b8       	rjmp	80003c5e <tc1_irq+0xca>
		}
	}
	
	audioR = *(wavDataPointer + wavDataIndex);
80003bea:	4a 68       	lddpc	r8,80003c80 <tc1_irq+0xec>
80003bec:	70 08       	ld.w	r8,r8[0x0]
80003bee:	4a 67       	lddpc	r7,80003c84 <tc1_irq+0xf0>
80003bf0:	6e 0e       	ld.w	lr,r7[0x0]
80003bf2:	f0 0e 07 0a 	ld.ub	r10,r8[lr]
	audioR += (*(wavDataPointer + wavDataIndex + 1)) << 8;
80003bf6:	f0 0e 00 09 	add	r9,r8,lr
80003bfa:	13 99       	ld.ub	r9,r9[0x1]
	
	wavDataIndex += 2;
80003bfc:	2f ee       	sub	lr,-2
80003bfe:	8f 0e       	st.w	r7[0x0],lr
	if (wavDataIndex >= WAVDATA_SIZE){
80003c00:	e0 4e 01 ff 	cp.w	lr,511
80003c04:	e0 88 00 15 	brls	80003c2e <tc1_irq+0x9a>
		//audioR = AUDIOMAXINPUT;
		wavDataIndex = 0;
80003c08:	30 07       	mov	r7,0
80003c0a:	49 fe       	lddpc	lr,80003c84 <tc1_irq+0xf0>
80003c0c:	9d 07       	st.w	lr[0x0],r7
		if (wavDataPointer == wavData1) {
80003c0e:	49 fe       	lddpc	lr,80003c88 <tc1_irq+0xf4>
80003c10:	1c 38       	cp.w	r8,lr
80003c12:	c0 81       	brne	80003c22 <tc1_irq+0x8e>
			wavDataPointer = wavData2;
80003c14:	49 ee       	lddpc	lr,80003c8c <tc1_irq+0xf8>
80003c16:	49 b8       	lddpc	r8,80003c80 <tc1_irq+0xec>
80003c18:	91 0e       	st.w	r8[0x0],lr
			loadNextSector = LOAD_WAVDATA1;
80003c1a:	30 1e       	mov	lr,1
80003c1c:	49 d8       	lddpc	r8,80003c90 <tc1_irq+0xfc>
80003c1e:	b0 8e       	st.b	r8[0x0],lr
80003c20:	c0 78       	rjmp	80003c2e <tc1_irq+0x9a>
		}
		else {
			wavDataPointer = wavData1;
80003c22:	49 ae       	lddpc	lr,80003c88 <tc1_irq+0xf4>
80003c24:	49 78       	lddpc	r8,80003c80 <tc1_irq+0xec>
80003c26:	91 0e       	st.w	r8[0x0],lr
			loadNextSector = LOAD_WAVDATA2;
80003c28:	30 2e       	mov	lr,2
80003c2a:	49 a8       	lddpc	r8,80003c90 <tc1_irq+0xfc>
80003c2c:	b0 8e       	st.b	r8[0x0],lr
		}
	}
	
	// Converting signed audio samples into unsigned ones with a DC component of 0x8000
	audioL += 0x8000;
	audioL >>= 6;
80003c2e:	e0 2c 80 00 	sub	r12,32768
80003c32:	a9 6b       	lsl	r11,0x8
80003c34:	f8 0b 00 0b 	add	r11,r12,r11
80003c38:	f7 db c0 ca 	bfextu	r11,r11,0x6,0xa
80003c3c:	48 e8       	lddpc	r8,80003c74 <tc1_irq+0xe0>
80003c3e:	b0 0b       	st.h	r8[0x0],r11
	audioR += 0x8000;
	audioR >>= 6;
80003c40:	e0 2a 80 00 	sub	r10,32768
80003c44:	a9 69       	lsl	r9,0x8
80003c46:	f4 09 00 09 	add	r9,r10,r9
80003c4a:	f3 d9 c0 ca 	bfextu	r9,r9,0x6,0xa
80003c4e:	48 b8       	lddpc	r8,80003c78 <tc1_irq+0xe4>
80003c50:	b0 09       	st.h	r8[0x0],r9
	
	// Clearing interrupt flag
	AVR32_TC.channel[TC1_CHANNEL].SR;
80003c52:	fe 78 38 00 	mov	r8,-51200
80003c56:	71 88       	ld.w	r8,r8[0x60]
}
80003c58:	e3 cd 40 80 	ldm	sp++,r7,lr
80003c5c:	d6 03       	rete
			wavDataPointer = wavData1;
			loadNextSector = LOAD_WAVDATA2;
		}
	}
	
	audioR = *(wavDataPointer + wavDataIndex);
80003c5e:	48 98       	lddpc	r8,80003c80 <tc1_irq+0xec>
80003c60:	70 09       	ld.w	r9,r8[0x0]
80003c62:	48 9e       	lddpc	lr,80003c84 <tc1_irq+0xf0>
80003c64:	7c 08       	ld.w	r8,lr[0x0]
80003c66:	f2 08 07 0a 	ld.ub	r10,r9[r8]
	audioR += (*(wavDataPointer + wavDataIndex + 1)) << 8;
80003c6a:	10 09       	add	r9,r8
80003c6c:	13 99       	ld.ub	r9,r9[0x1]
	
	wavDataIndex += 2;
80003c6e:	2f e8       	sub	r8,-2
80003c70:	9d 08       	st.w	lr[0x0],r8
80003c72:	cd eb       	rjmp	80003c2e <tc1_irq+0x9a>
80003c74:	00 00       	add	r0,r0
80003c76:	07 f2       	ld.ub	r2,r3[0x7]
80003c78:	00 00       	add	r0,r0
80003c7a:	07 f0       	ld.ub	r0,r3[0x7]
80003c7c:	80 00       	ld.sh	r0,r0[0x0]
80003c7e:	37 ac       	mov	r12,122
80003c80:	00 00       	add	r0,r0
80003c82:	00 04       	add	r4,r0
80003c84:	00 00       	add	r0,r0
80003c86:	07 ec       	ld.ub	r12,r3[0x6]
80003c88:	00 00       	add	r0,r0
80003c8a:	00 0c       	add	r12,r0
80003c8c:	00 00       	add	r0,r0
80003c8e:	02 0c       	add	r12,r1
80003c90:	00 00       	add	r0,r0
80003c92:	00 08       	add	r8,r0

80003c94 <audio_togglePausePlay>:
	loadNextSector = NO_LOAD;
}



void audio_togglePausePlay(void){
80003c94:	d4 01       	pushm	lr
	if(isFilePlaying){
80003c96:	48 c8       	lddpc	r8,80003cc4 <audio_togglePausePlay+0x30>
80003c98:	11 89       	ld.ub	r9,r8[0x0]
80003c9a:	30 08       	mov	r8,0
80003c9c:	f0 09 18 00 	cp.b	r9,r8
80003ca0:	c0 70       	breq	80003cae <audio_togglePausePlay+0x1a>
		tc_stop(&AVR32_TC, TC1_CHANNEL);
80003ca2:	30 1b       	mov	r11,1
80003ca4:	fe 7c 38 00 	mov	r12,-51200
80003ca8:	f0 1f 00 08 	mcall	80003cc8 <audio_togglePausePlay+0x34>
80003cac:	c0 68       	rjmp	80003cb8 <audio_togglePausePlay+0x24>
	}else{
		tc_start(&AVR32_TC, TC1_CHANNEL);
80003cae:	30 1b       	mov	r11,1
80003cb0:	fe 7c 38 00 	mov	r12,-51200
80003cb4:	f0 1f 00 06 	mcall	80003ccc <audio_togglePausePlay+0x38>
	}
	isFilePlaying = ! isFilePlaying;
80003cb8:	48 38       	lddpc	r8,80003cc4 <audio_togglePausePlay+0x30>
80003cba:	11 89       	ld.ub	r9,r8[0x0]
80003cbc:	ec 19 00 01 	eorl	r9,0x1
80003cc0:	b0 89       	st.b	r8[0x0],r9
}
80003cc2:	d8 02       	popm	pc
80003cc4:	00 00       	add	r0,r0
80003cc6:	0a c0       	st.b	r5++,r0
80003cc8:	80 00       	ld.sh	r0,r0[0x0]
80003cca:	31 98       	mov	r8,25
80003ccc:	80 00       	ld.sh	r0,r0[0x0]
80003cce:	31 86       	mov	r6,24

80003cd0 <audio_stop>:



void audio_stop(void){
80003cd0:	d4 01       	pushm	lr
	tc_stop(&AVR32_TC, TC1_CHANNEL);
80003cd2:	30 1b       	mov	r11,1
80003cd4:	fe 7c 38 00 	mov	r12,-51200
80003cd8:	f0 1f 00 0c 	mcall	80003d08 <audio_stop+0x38>
	memset(&fileData,0,sizeof(AudioInfo));
80003cdc:	30 0a       	mov	r10,0
80003cde:	30 0b       	mov	r11,0
80003ce0:	48 b8       	lddpc	r8,80003d0c <audio_stop+0x3c>
80003ce2:	b1 2a       	st.d	r8++,r10
80003ce4:	b1 2a       	st.d	r8++,r10
80003ce6:	b1 2a       	st.d	r8++,r10
80003ce8:	b1 2a       	st.d	r8++,r10
80003cea:	b1 2a       	st.d	r8++,r10
80003cec:	b1 2a       	st.d	r8++,r10
80003cee:	b1 2a       	st.d	r8++,r10
80003cf0:	b1 2a       	st.d	r8++,r10
80003cf2:	b1 2a       	st.d	r8++,r10
80003cf4:	b1 2a       	st.d	r8++,r10
80003cf6:	b1 2a       	st.d	r8++,r10
80003cf8:	b1 2a       	st.d	r8++,r10
80003cfa:	30 09       	mov	r9,0
80003cfc:	91 09       	st.w	r8[0x0],r9
	wavDataIndex = 0;
80003cfe:	48 58       	lddpc	r8,80003d10 <audio_stop+0x40>
80003d00:	91 09       	st.w	r8[0x0],r9
	wavDataPointer = NULL;
80003d02:	48 58       	lddpc	r8,80003d14 <audio_stop+0x44>
80003d04:	91 09       	st.w	r8[0x0],r9
}
80003d06:	d8 02       	popm	pc
80003d08:	80 00       	ld.sh	r0,r0[0x0]
80003d0a:	31 98       	mov	r8,25
80003d0c:	00 00       	add	r0,r0
80003d0e:	0a 5c       	eor	r12,r5
80003d10:	00 00       	add	r0,r0
80003d12:	07 ec       	ld.ub	r12,r3[0x6]
80003d14:	00 00       	add	r0,r0
80003d16:	00 04       	add	r4,r0

80003d18 <audio_playFile>:
 * timer 1 interruption.
 *
 * Created 17.11.17 MLN
 * Last modified 20.11.17 MLN
 */
uint8_t audio_playFile(uint8_t fileNumber){
80003d18:	eb cd 40 80 	pushm	r7,lr
	
	if(!isFilePlaying){
80003d1c:	4a c8       	lddpc	r8,80003dcc <audio_playFile+0xb4>
80003d1e:	11 89       	ld.ub	r9,r8[0x0]
80003d20:	30 08       	mov	r8,0
80003d22:	f0 09 18 00 	cp.b	r9,r8
80003d26:	c0 31       	brne	80003d2c <audio_playFile+0x14>
80003d28:	e3 cf 80 80 	ldm	sp++,r7,pc,r12=0
		return 0;
	}
	
	// If SD card pulled out, audio playback is stopped and data is cleared
	if(!sdcard_checkPresence()){
80003d2c:	f0 1f 00 29 	mcall	80003dd0 <audio_playFile+0xb8>
80003d30:	c1 11       	brne	80003d52 <audio_playFile+0x3a>
		audio_stop();
80003d32:	f0 1f 00 29 	mcall	80003dd4 <audio_playFile+0xbc>
		// Emptying wavData
		memset(wavData1, 0, sizeof(wavData1)/sizeof(wavData1[0]) );
80003d36:	e0 67 02 00 	mov	r7,512
80003d3a:	0e 9a       	mov	r10,r7
80003d3c:	30 0b       	mov	r11,0
80003d3e:	4a 7c       	lddpc	r12,80003dd8 <audio_playFile+0xc0>
80003d40:	f0 1f 00 27 	mcall	80003ddc <audio_playFile+0xc4>
		memset(wavData2, 0, sizeof(wavData2)/sizeof(wavData2[0]) );
80003d44:	0e 9a       	mov	r10,r7
80003d46:	30 0b       	mov	r11,0
80003d48:	4a 6c       	lddpc	r12,80003de0 <audio_playFile+0xc8>
80003d4a:	f0 1f 00 25 	mcall	80003ddc <audio_playFile+0xc4>
80003d4e:	e3 cf 80 80 	ldm	sp++,r7,pc,r12=0
		return 0;
	}
	
	
	// Audio loading
	switch(loadNextSector){
80003d52:	4a 58       	lddpc	r8,80003de4 <audio_playFile+0xcc>
80003d54:	11 88       	ld.ub	r8,r8[0x0]
80003d56:	30 19       	mov	r9,1
80003d58:	f2 08 18 00 	cp.b	r8,r9
80003d5c:	c0 60       	breq	80003d68 <audio_playFile+0x50>
80003d5e:	30 29       	mov	r9,2
80003d60:	f2 08 18 00 	cp.b	r8,r9
80003d64:	c1 b1       	brne	80003d9a <audio_playFile+0x82>
80003d66:	c0 e8       	rjmp	80003d82 <audio_playFile+0x6a>
			
		case LOAD_WAVDATA1:
			while(!sdcard_getNextSectorFast(wavData1));
80003d68:	49 c7       	lddpc	r7,80003dd8 <audio_playFile+0xc0>
80003d6a:	0e 9c       	mov	r12,r7
80003d6c:	f0 1f 00 1f 	mcall	80003de8 <audio_playFile+0xd0>
80003d70:	cf d0       	breq	80003d6a <audio_playFile+0x52>
			loadNextSector = NO_LOAD;
80003d72:	30 09       	mov	r9,0
80003d74:	49 c8       	lddpc	r8,80003de4 <audio_playFile+0xcc>
80003d76:	b0 89       	st.b	r8[0x0],r9
			fileData.audioSampleTables--;
80003d78:	49 d8       	lddpc	r8,80003dec <audio_playFile+0xd4>
80003d7a:	70 49       	ld.w	r9,r8[0x10]
80003d7c:	20 19       	sub	r9,1
80003d7e:	91 49       	st.w	r8[0x10],r9
			break;
80003d80:	c0 d8       	rjmp	80003d9a <audio_playFile+0x82>
			
		case LOAD_WAVDATA2:
			while(!sdcard_getNextSectorFast(wavData2));
80003d82:	49 87       	lddpc	r7,80003de0 <audio_playFile+0xc8>
80003d84:	0e 9c       	mov	r12,r7
80003d86:	f0 1f 00 19 	mcall	80003de8 <audio_playFile+0xd0>
80003d8a:	cf d0       	breq	80003d84 <audio_playFile+0x6c>
			loadNextSector = NO_LOAD;
80003d8c:	30 09       	mov	r9,0
80003d8e:	49 68       	lddpc	r8,80003de4 <audio_playFile+0xcc>
80003d90:	b0 89       	st.b	r8[0x0],r9
			fileData.audioSampleTables--;
80003d92:	49 78       	lddpc	r8,80003dec <audio_playFile+0xd4>
80003d94:	70 49       	ld.w	r9,r8[0x10]
80003d96:	20 19       	sub	r9,1
80003d98:	91 49       	st.w	r8[0x10],r9
	/************************************************************************/
	/* END OF FILE ROUTINE													*/
	/* Stops audio playback by stopping the timer and returns a finish code	*/
	/************************************************************************/
	
	if (fileData.audioSampleTables <= 1){
80003d9a:	49 58       	lddpc	r8,80003dec <audio_playFile+0xd4>
80003d9c:	70 48       	ld.w	r8,r8[0x10]
80003d9e:	58 18       	cp.w	r8,1
80003da0:	e0 88 00 05 	brls	80003daa <audio_playFile+0x92>
80003da4:	30 9c       	mov	r12,9
80003da6:	e3 cd 80 80 	ldm	sp++,r7,pc
		tc_stop(&AVR32_TC, TC1_CHANNEL);
80003daa:	30 1b       	mov	r11,1
80003dac:	fe 7c 38 00 	mov	r12,-51200
80003db0:	f0 1f 00 10 	mcall	80003df0 <audio_playFile+0xd8>
		fileData.audioSampleTables = fileData.audioSampleBytes / WAVDATA_SIZE;
80003db4:	48 e8       	lddpc	r8,80003dec <audio_playFile+0xd4>
80003db6:	70 39       	ld.w	r9,r8[0xc]
80003db8:	a9 99       	lsr	r9,0x9
80003dba:	91 49       	st.w	r8[0x10],r9
		//audio_firstCall = true;
		isFilePlaying = false;
80003dbc:	30 09       	mov	r9,0
80003dbe:	48 48       	lddpc	r8,80003dcc <audio_playFile+0xb4>
80003dc0:	b0 89       	st.b	r8[0x0],r9
		wavDataIndex = 0;
80003dc2:	30 09       	mov	r9,0
80003dc4:	48 c8       	lddpc	r8,80003df4 <audio_playFile+0xdc>
80003dc6:	91 09       	st.w	r8[0x0],r9
80003dc8:	e3 cf 90 80 	ldm	sp++,r7,pc,r12=1
80003dcc:	00 00       	add	r0,r0
80003dce:	0a c0       	st.b	r5++,r0
80003dd0:	80 00       	ld.sh	r0,r0[0x0]
80003dd2:	72 38       	ld.w	r8,r9[0xc]
80003dd4:	80 00       	ld.sh	r0,r0[0x0]
80003dd6:	3c d0       	mov	r0,-51
80003dd8:	00 00       	add	r0,r0
80003dda:	00 0c       	add	r12,r0
80003ddc:	80 00       	ld.sh	r0,r0[0x0]
80003dde:	77 e4       	ld.w	r4,r11[0x78]
80003de0:	00 00       	add	r0,r0
80003de2:	02 0c       	add	r12,r1
80003de4:	00 00       	add	r0,r0
80003de6:	00 08       	add	r8,r0
80003de8:	80 00       	ld.sh	r0,r0[0x0]
80003dea:	70 00       	ld.w	r0,r8[0x0]
80003dec:	00 00       	add	r0,r0
80003dee:	0a 5c       	eor	r12,r5
80003df0:	80 00       	ld.sh	r0,r0[0x0]
80003df2:	31 98       	mov	r8,25
80003df4:	00 00       	add	r0,r0
80003df6:	07 ec       	ld.ub	r12,r3[0x6]

80003df8 <audio_setVolume>:
 * amplifier.
 * 
 * Created 06.11.17 MLN
 * Last modified 13.11.17 MLN
 */
void audio_setVolume (uint8_t volume){
80003df8:	eb cd 40 80 	pushm	r7,lr
	
	if (volume != currentVolume){
80003dfc:	49 38       	lddpc	r8,80003e48 <audio_setVolume+0x50>
80003dfe:	11 88       	ld.ub	r8,r8[0x0]
80003e00:	f8 08 18 00 	cp.b	r8,r12
80003e04:	c2 00       	breq	80003e44 <audio_setVolume+0x4c>
		currentVolume = volume;
80003e06:	49 17       	lddpc	r7,80003e48 <audio_setVolume+0x50>
80003e08:	ae 8c       	st.b	r7[0x0],r12
		// Selecting DAC1
		spi_selectChip((volatile struct avr32_spi_t*)DAC1_SPI, DAC1_SPI_NPCS);
80003e0a:	30 2b       	mov	r11,2
80003e0c:	fe 7c 28 00 	mov	r12,-55296
80003e10:	f0 1f 00 0f 	mcall	80003e4c <audio_setVolume+0x54>
	
		/* Sending volume level to DAC1
		 * Volume has to be in the middle nibbles of a 2-byte integer
		 * as per AD5300BRMZ datasheet
		 */
		spi_write((volatile struct avr32_spi_t*)DAC1_SPI, (currentVolume<<4) & 0x0FF0);
80003e14:	0f 8b       	ld.ub	r11,r7[0x0]
80003e16:	a5 6b       	lsl	r11,0x4
80003e18:	fe 7c 28 00 	mov	r12,-55296
80003e1c:	f0 1f 00 0d 	mcall	80003e50 <audio_setVolume+0x58>
	
		// Deselecting DAC1
		spi_unselectChip((volatile struct avr32_spi_t*)DAC1_SPI, DAC1_SPI_NPCS);
80003e20:	30 2b       	mov	r11,2
80003e22:	fe 7c 28 00 	mov	r12,-55296
80003e26:	f0 1f 00 0c 	mcall	80003e54 <audio_setVolume+0x5c>
	
		if (currentVolume == 0) {
80003e2a:	0f 89       	ld.ub	r9,r7[0x0]
80003e2c:	30 08       	mov	r8,0
80003e2e:	f0 09 18 00 	cp.b	r9,r8
80003e32:	c0 61       	brne	80003e3e <audio_setVolume+0x46>
			// If volume superior to 0, do not shutdown amplifier
			gpio_clr_gpio_pin(PIN_SHUTDOWN);
80003e34:	31 9c       	mov	r12,25
80003e36:	f0 1f 00 09 	mcall	80003e58 <audio_setVolume+0x60>
80003e3a:	e3 cd 80 80 	ldm	sp++,r7,pc
		} else {
			gpio_set_gpio_pin(PIN_SHUTDOWN);
80003e3e:	31 9c       	mov	r12,25
80003e40:	f0 1f 00 07 	mcall	80003e5c <audio_setVolume+0x64>
80003e44:	e3 cd 80 80 	ldm	sp++,r7,pc
80003e48:	00 00       	add	r0,r0
80003e4a:	07 f4       	ld.ub	r4,r3[0x7]
80003e4c:	80 00       	ld.sh	r0,r0[0x0]
80003e4e:	2f 7e       	sub	lr,-9
80003e50:	80 00       	ld.sh	r0,r0[0x0]
80003e52:	30 ae       	mov	lr,10
80003e54:	80 00       	ld.sh	r0,r0[0x0]
80003e56:	2f ca       	sub	r10,-4
80003e58:	80 00       	ld.sh	r0,r0[0x0]
80003e5a:	2a 26       	sub	r6,-94
80003e5c:	80 00       	ld.sh	r0,r0[0x0]
80003e5e:	2a 0a       	sub	r10,-96

80003e60 <audio_setFileToPlay>:
uint8_t _fileVerification();




uint8_t audio_setFileToPlay(uint8_t fileNumber){
80003e60:	eb cd 40 80 	pushm	r7,lr
	if (sdcard_setFileToRead(fileNumber) == false){
80003e64:	f0 1f 00 13 	mcall	80003eb0 <audio_setFileToPlay+0x50>
80003e68:	c2 10       	breq	80003eaa <audio_setFileToPlay+0x4a>
		return ERROR_NO_FILE;
	}
	
	sdcard_getNextSectorFast(wavData1);
80003e6a:	49 37       	lddpc	r7,80003eb4 <audio_setFileToPlay+0x54>
80003e6c:	0e 9c       	mov	r12,r7
80003e6e:	f0 1f 00 13 	mcall	80003eb8 <audio_setFileToPlay+0x58>
	sdcard_getNextSectorFast(wavData2);
80003e72:	49 3c       	lddpc	r12,80003ebc <audio_setFileToPlay+0x5c>
80003e74:	f0 1f 00 11 	mcall	80003eb8 <audio_setFileToPlay+0x58>
	
	uint8_t fileVerif = _fileVerification(wavData1);
80003e78:	0e 9c       	mov	r12,r7
80003e7a:	f0 1f 00 12 	mcall	80003ec0 <audio_setFileToPlay+0x60>
	if (fileVerif != FILE_VERIFICATION_SUCCEDED){
80003e7e:	30 18       	mov	r8,1
80003e80:	f0 0c 18 00 	cp.b	r12,r8
80003e84:	c1 41       	brne	80003eac <audio_setFileToPlay+0x4c>
		return fileVerif;
	}
	isFilePlaying = true;
80003e86:	10 99       	mov	r9,r8
80003e88:	48 f8       	lddpc	r8,80003ec4 <audio_setFileToPlay+0x64>
80003e8a:	b0 89       	st.b	r8[0x0],r9
	
	wavDataIndex = fileData.firstDataByteIndex;
80003e8c:	48 f8       	lddpc	r8,80003ec8 <audio_setFileToPlay+0x68>
80003e8e:	f1 39 00 14 	ld.ub	r9,r8[20]
80003e92:	48 f8       	lddpc	r8,80003ecc <audio_setFileToPlay+0x6c>
80003e94:	91 09       	st.w	r8[0x0],r9
	
	// Volume setting, optimized to be as light as possible
	audio_setVolume(DEFAULTVOLUME);
80003e96:	34 0c       	mov	r12,64
80003e98:	f0 1f 00 0e 	mcall	80003ed0 <audio_setFileToPlay+0x70>
	tc_start(&AVR32_TC, TC1_CHANNEL);
80003e9c:	30 1b       	mov	r11,1
80003e9e:	fe 7c 38 00 	mov	r12,-51200
80003ea2:	f0 1f 00 0d 	mcall	80003ed4 <audio_setFileToPlay+0x74>
80003ea6:	e3 cd 80 80 	ldm	sp++,r7,pc
}
80003eaa:	30 3c       	mov	r12,3
80003eac:	e3 cd 80 80 	ldm	sp++,r7,pc
80003eb0:	80 00       	ld.sh	r0,r0[0x0]
80003eb2:	6e 4c       	ld.w	r12,r7[0x10]
80003eb4:	00 00       	add	r0,r0
80003eb6:	00 0c       	add	r12,r0
80003eb8:	80 00       	ld.sh	r0,r0[0x0]
80003eba:	70 00       	ld.w	r0,r8[0x0]
80003ebc:	00 00       	add	r0,r0
80003ebe:	02 0c       	add	r12,r1
80003ec0:	80 00       	ld.sh	r0,r0[0x0]
80003ec2:	38 14       	mov	r4,-127
80003ec4:	00 00       	add	r0,r0
80003ec6:	0a c0       	st.b	r5++,r0
80003ec8:	00 00       	add	r0,r0
80003eca:	0a 5c       	eor	r12,r5
80003ecc:	00 00       	add	r0,r0
80003ece:	07 ec       	ld.ub	r12,r3[0x6]
80003ed0:	80 00       	ld.sh	r0,r0[0x0]
80003ed2:	3d f8       	mov	r8,-33
80003ed4:	80 00       	ld.sh	r0,r0[0x0]
80003ed6:	31 86       	mov	r6,24

80003ed8 <gfx_BeginNewTerminal>:
80003ed8:	eb cd 00 10 	pushm	r4
80003edc:	fa c4 ff fc 	sub	r4,sp,-4
80003ee0:	88 09       	ld.sh	r9,r4[0x0]
80003ee2:	48 48       	lddpc	r8,80003ef0 <gfx_BeginNewTerminal+0x18>
80003ee4:	09 aa       	ld.ub	r10,r4[0x2]
80003ee6:	b0 aa       	st.b	r8[0x2],r10
80003ee8:	b0 09       	st.h	r8[0x0],r9
80003eea:	e3 cd 00 10 	ldm	sp++,r4
80003eee:	5e fc       	retal	r12
80003ef0:	00 00       	add	r0,r0
80003ef2:	07 f6       	ld.ub	r6,r3[0x7]

80003ef4 <gfx_Label>:
80003ef4:	d4 31       	pushm	r0-r7,lr
80003ef6:	20 cd       	sub	sp,48
80003ef8:	fa c1 ff ac 	sub	r1,sp,-84
80003efc:	18 90       	mov	r0,r12
80003efe:	50 7b       	stdsp	sp[0x1c],r11
80003f00:	50 0a       	stdsp	sp[0x0],r10
80003f02:	19 89       	ld.ub	r9,r12[0x0]
80003f04:	30 08       	mov	r8,0
80003f06:	f0 09 18 00 	cp.b	r9,r8
80003f0a:	5f 09       	sreq	r9
80003f0c:	f0 0b 18 00 	cp.b	r11,r8
80003f10:	5f 0a       	sreq	r10
80003f12:	f3 ea 10 0a 	or	r10,r9,r10
80003f16:	f0 0a 18 00 	cp.b	r10,r8
80003f1a:	e0 81 00 a3 	brne	80004060 <gfx_Label+0x16c>
80003f1e:	40 0a       	lddsp	r10,sp[0x0]
80003f20:	58 1a       	cp.w	r10,1
80003f22:	f9 b8 00 14 	moveq	r8,20
80003f26:	fb f8 0a 02 	st.weq	sp[0x8],r8
80003f2a:	f9 b2 00 10 	moveq	r2,16
80003f2e:	f9 b2 01 08 	movne	r2,8
80003f32:	58 12       	cp.w	r2,1
80003f34:	fb f2 1a 02 	st.wne	sp[0x8],r2
80003f38:	40 78       	lddsp	r8,sp[0x1c]
80003f3a:	58 08       	cp.w	r8,0
80003f3c:	e0 80 00 92 	breq	80004060 <gfx_Label+0x16c>
80003f40:	58 09       	cp.w	r9,0
80003f42:	e0 81 00 8f 	brne	80004060 <gfx_Label+0x16c>
80003f46:	30 8a       	mov	r10,8
80003f48:	50 5a       	stdsp	sp[0x14],r10
80003f4a:	31 09       	mov	r9,16
80003f4c:	50 39       	stdsp	sp[0xc],r9
80003f4e:	30 08       	mov	r8,0
80003f50:	50 68       	stdsp	sp[0x18],r8
80003f52:	c0 f8       	rjmp	80003f70 <gfx_Label+0x7c>
80003f54:	2f f0       	sub	r0,-1
80003f56:	40 38       	lddsp	r8,sp[0xc]
80003f58:	2f 28       	sub	r8,-14
80003f5a:	5c 88       	casts.h	r8
80003f5c:	50 38       	stdsp	sp[0xc],r8
80003f5e:	40 58       	lddsp	r8,sp[0x14]
80003f60:	2f 68       	sub	r8,-10
80003f62:	5c 88       	casts.h	r8
80003f64:	50 58       	stdsp	sp[0x14],r8
80003f66:	01 89       	ld.ub	r9,r0[0x0]
80003f68:	30 08       	mov	r8,0
80003f6a:	f0 09 18 00 	cp.b	r9,r8
80003f6e:	c7 90       	breq	80004060 <gfx_Label+0x16c>
80003f70:	40 2a       	lddsp	r10,sp[0x8]
80003f72:	58 0a       	cp.w	r10,0
80003f74:	c6 d0       	breq	8000404e <gfx_Label+0x15a>
80003f76:	30 03       	mov	r3,0
80003f78:	40 59       	lddsp	r9,sp[0x14]
80003f7a:	5c 89       	casts.h	r9
80003f7c:	50 49       	stdsp	sp[0x10],r9
80003f7e:	c5 a8       	rjmp	80004032 <gfx_Label+0x13e>
80003f80:	a1 74       	lsl	r4,0x1
80003f82:	5c 84       	casts.h	r4
80003f84:	40 08       	lddsp	r8,sp[0x0]
80003f86:	58 18       	cp.w	r8,1
80003f88:	c2 61       	brne	80003fd4 <gfx_Label+0xe0>
80003f8a:	01 88       	ld.ub	r8,r0[0x0]
80003f8c:	f0 08 00 28 	add	r8,r8,r8<<0x2
80003f90:	e6 08 00 28 	add	r8,r3,r8<<0x2
80003f94:	f0 c8 02 6c 	sub	r8,r8,620
80003f98:	4b 3a       	lddpc	r10,80004064 <gfx_Label+0x170>
80003f9a:	f4 08 04 18 	ld.sh	r8,r10[r8<<0x1]
80003f9e:	e9 e8 00 08 	and	r8,r4,r8
80003fa2:	30 09       	mov	r9,0
80003fa4:	f2 08 19 00 	cp.h	r8,r9
80003fa8:	c3 60       	breq	80004014 <gfx_Label+0x120>
80003faa:	fb 55 00 20 	st.h	sp[32],r5
80003fae:	1b f8       	ld.ub	r8,sp[0x7]
80003fb0:	fb 68 00 22 	st.b	sp[34],r8
80003fb4:	40 88       	lddsp	r8,sp[0x20]
80003fb6:	1a d8       	st.w	--sp,r8
80003fb8:	62 08       	ld.w	r8,r1[0x0]
80003fba:	1a d8       	st.w	--sp,r8
80003fbc:	fa cc ff d4 	sub	r12,sp,-44
80003fc0:	f0 1f 00 2a 	mcall	80004068 <gfx_Label+0x174>
80003fc4:	62 18       	ld.w	r8,r1[0x4]
80003fc6:	1a d8       	st.w	--sp,r8
80003fc8:	40 c8       	lddsp	r8,sp[0x30]
80003fca:	1a d8       	st.w	--sp,r8
80003fcc:	f0 1f 00 28 	mcall	8000406c <gfx_Label+0x178>
80003fd0:	2f cd       	sub	sp,-16
80003fd2:	c2 18       	rjmp	80004014 <gfx_Label+0x120>
80003fd4:	01 88       	ld.ub	r8,r0[0x0]
80003fd6:	21 f8       	sub	r8,31
80003fd8:	e6 08 00 38 	add	r8,r3,r8<<0x3
80003fdc:	4a 5a       	lddpc	r10,80004070 <gfx_Label+0x17c>
80003fde:	f4 08 07 08 	ld.ub	r8,r10[r8]
80003fe2:	f0 07 08 48 	asr	r8,r8,r7
80003fe6:	f1 d8 c0 01 	bfextu	r8,r8,0x0,0x1
80003fea:	c1 50       	breq	80004014 <gfx_Label+0x120>
80003fec:	fb 56 00 28 	st.h	sp[40],r6
80003ff0:	1b e9       	ld.ub	r9,sp[0x6]
80003ff2:	fb 69 00 2a 	st.b	sp[42],r9
80003ff6:	40 a8       	lddsp	r8,sp[0x28]
80003ff8:	1a d8       	st.w	--sp,r8
80003ffa:	62 08       	ld.w	r8,r1[0x0]
80003ffc:	1a d8       	st.w	--sp,r8
80003ffe:	fa cc ff cc 	sub	r12,sp,-52
80004002:	f0 1f 00 1a 	mcall	80004068 <gfx_Label+0x174>
80004006:	62 18       	ld.w	r8,r1[0x4]
80004008:	1a d8       	st.w	--sp,r8
8000400a:	40 e8       	lddsp	r8,sp[0x38]
8000400c:	1a d8       	st.w	--sp,r8
8000400e:	f0 1f 00 18 	mcall	8000406c <gfx_Label+0x178>
80004012:	2f cd       	sub	sp,-16
80004014:	2f f7       	sub	r7,-1
80004016:	20 15       	sub	r5,1
80004018:	5c 85       	casts.h	r5
8000401a:	20 16       	sub	r6,1
8000401c:	5c 86       	casts.h	r6
8000401e:	ee 02 18 00 	cp.b	r2,r7
80004022:	fe 9b ff af 	brhi	80003f80 <gfx_Label+0x8c>
80004026:	2f f3       	sub	r3,-1
80004028:	5c 53       	castu.b	r3
8000402a:	40 2a       	lddsp	r10,sp[0x8]
8000402c:	f4 03 19 00 	cp.h	r3,r10
80004030:	c0 f2       	brcc	8000404e <gfx_Label+0x15a>
80004032:	58 02       	cp.w	r2,0
80004034:	cf 90       	breq	80004026 <gfx_Label+0x132>
80004036:	40 46       	lddsp	r6,sp[0x10]
80004038:	40 35       	lddsp	r5,sp[0xc]
8000403a:	5c 85       	casts.h	r5
8000403c:	30 07       	mov	r7,0
8000403e:	30 14       	mov	r4,1
80004040:	e6 09 11 08 	rsub	r9,r3,8
80004044:	ba e9       	st.b	sp[0x6],r9
80004046:	e6 08 11 0c 	rsub	r8,r3,12
8000404a:	ba f8       	st.b	sp[0x7],r8
8000404c:	c9 cb       	rjmp	80003f84 <gfx_Label+0x90>
8000404e:	40 68       	lddsp	r8,sp[0x18]
80004050:	2f f8       	sub	r8,-1
80004052:	5c 58       	castu.b	r8
80004054:	50 68       	stdsp	sp[0x18],r8
80004056:	40 7a       	lddsp	r10,sp[0x1c]
80004058:	f0 0a 18 00 	cp.b	r10,r8
8000405c:	fe 9b ff 7c 	brhi	80003f54 <gfx_Label+0x60>
80004060:	2f 4d       	sub	sp,-48
80004062:	d8 32       	popm	r0-r7,pc
80004064:	80 00       	ld.sh	r0,r0[0x0]
80004066:	7d d6       	ld.w	r6,lr[0x74]
80004068:	80 00       	ld.sh	r0,r0[0x0]
8000406a:	64 4c       	ld.w	r12,r2[0x10]
8000406c:	80 00       	ld.sh	r0,r0[0x0]
8000406e:	60 34       	ld.w	r4,r0[0xc]
80004070:	80 00       	ld.sh	r0,r0[0x0]
80004072:	7a ce       	ld.w	lr,sp[0x30]

80004074 <gfx_cmdLine>:
80004074:	eb cd 40 d0 	pushm	r4,r6-r7,lr
80004078:	20 1d       	sub	sp,4
8000407a:	fa c4 ff ec 	sub	r4,sp,-20
8000407e:	18 96       	mov	r6,r12
80004080:	16 97       	mov	r7,r11
80004082:	58 0a       	cp.w	r10,0
80004084:	c1 00       	breq	800040a4 <gfx_cmdLine+0x30>
80004086:	30 4a       	mov	r10,4
80004088:	48 9b       	lddpc	r11,800040ac <gfx_cmdLine+0x38>
8000408a:	1a 9c       	mov	r12,sp
8000408c:	f0 1f 00 09 	mcall	800040b0 <gfx_cmdLine+0x3c>
80004090:	68 08       	ld.w	r8,r4[0x0]
80004092:	1a d8       	st.w	--sp,r8
80004094:	40 18       	lddsp	r8,sp[0x4]
80004096:	1a d8       	st.w	--sp,r8
80004098:	30 0a       	mov	r10,0
8000409a:	0e 9b       	mov	r11,r7
8000409c:	0c 9c       	mov	r12,r6
8000409e:	f0 1f 00 06 	mcall	800040b4 <gfx_cmdLine+0x40>
800040a2:	2f ed       	sub	sp,-8
800040a4:	2f fd       	sub	sp,-4
800040a6:	e3 cd 80 d0 	ldm	sp++,r4,r6-r7,pc
800040aa:	00 00       	add	r0,r0
800040ac:	80 00       	ld.sh	r0,r0[0x0]
800040ae:	ac b6       	st.b	r6[0x3],r6
800040b0:	80 00       	ld.sh	r0,r0[0x0]
800040b2:	76 9c       	ld.w	r12,r11[0x24]
800040b4:	80 00       	ld.sh	r0,r0[0x0]
800040b6:	3e f4       	mov	r4,-17

800040b8 <gfx_DrawTerminalButton>:
800040b8:	eb cd 40 fc 	pushm	r2-r7,lr
800040bc:	20 3d       	sub	sp,12
800040be:	fa c4 ff d8 	sub	r4,sp,-40
800040c2:	18 93       	mov	r3,r12
800040c4:	16 92       	mov	r2,r11
800040c6:	09 a7       	ld.ub	r7,r4[0x2]
800040c8:	88 06       	ld.sh	r6,r4[0x0]
800040ca:	0e 98       	mov	r8,r7
800040cc:	2f 68       	sub	r8,-10
800040ce:	ec c9 ff f8 	sub	r9,r6,-8
800040d2:	0e 9a       	mov	r10,r7
800040d4:	20 2a       	sub	r10,2
800040d6:	5c 58       	castu.b	r8
800040d8:	5c 79       	castu.h	r9
800040da:	5c 5a       	castu.b	r10
800040dc:	f7 d6 c0 10 	bfextu	r11,r6,0x0,0x10
800040e0:	1a 9c       	mov	r12,sp
800040e2:	f0 1f 00 13 	mcall	8000412c <gfx_DrawTerminalButton+0x74>
800040e6:	68 18       	ld.w	r8,r4[0x4]
800040e8:	1a d8       	st.w	--sp,r8
800040ea:	fa e8 00 04 	ld.d	r8,sp[4]
800040ee:	bb 29       	st.d	--sp,r8
800040f0:	f0 1f 00 10 	mcall	80004130 <gfx_DrawTerminalButton+0x78>
800040f4:	30 05       	mov	r5,0
800040f6:	50 55       	stdsp	sp[0x14],r5
800040f8:	a8 a7       	st.b	r4[0x2],r7
800040fa:	a8 06       	st.h	r4[0x0],r6
800040fc:	1a d5       	st.w	--sp,r5
800040fe:	68 08       	ld.w	r8,r4[0x0]
80004100:	1a d8       	st.w	--sp,r8
80004102:	0a 9a       	mov	r10,r5
80004104:	30 1b       	mov	r11,1
80004106:	06 9c       	mov	r12,r3
80004108:	f0 1f 00 0b 	mcall	80004134 <gfx_DrawTerminalButton+0x7c>
8000410c:	a8 a7       	st.b	r4[0x2],r7
8000410e:	2f 66       	sub	r6,-10
80004110:	a8 06       	st.h	r4[0x0],r6
80004112:	68 18       	ld.w	r8,r4[0x4]
80004114:	1a d8       	st.w	--sp,r8
80004116:	68 08       	ld.w	r8,r4[0x0]
80004118:	1a d8       	st.w	--sp,r8
8000411a:	0a 9a       	mov	r10,r5
8000411c:	30 7b       	mov	r11,7
8000411e:	04 9c       	mov	r12,r2
80004120:	f0 1f 00 05 	mcall	80004134 <gfx_DrawTerminalButton+0x7c>
80004124:	2f 9d       	sub	sp,-28
80004126:	2f dd       	sub	sp,-12
80004128:	e3 cd 80 fc 	ldm	sp++,r2-r7,pc
8000412c:	80 00       	ld.sh	r0,r0[0x0]
8000412e:	5e 20       	reths	r0
80004130:	80 00       	ld.sh	r0,r0[0x0]
80004132:	5f 94       	srgt	r4
80004134:	80 00       	ld.sh	r0,r0[0x0]
80004136:	3e f4       	mov	r4,-17

80004138 <gfx_AddOptionToTerminal>:
80004138:	eb cd 40 fc 	pushm	r2-r7,lr
8000413c:	20 6d       	sub	sp,24
8000413e:	fa c4 ff cc 	sub	r4,sp,-52
80004142:	18 93       	mov	r3,r12
80004144:	16 95       	mov	r5,r11
80004146:	12 97       	mov	r7,r9
80004148:	10 96       	mov	r6,r8
8000414a:	58 0a       	cp.w	r10,0
8000414c:	c1 00       	breq	8000416c <gfx_AddOptionToTerminal+0x34>
8000414e:	68 08       	ld.w	r8,r4[0x0]
80004150:	1a d8       	st.w	--sp,r8
80004152:	20 1d       	sub	sp,4
80004154:	30 4a       	mov	r10,4
80004156:	4b ab       	lddpc	r11,8000423c <gfx_AddOptionToTerminal+0x104>
80004158:	1a 9c       	mov	r12,sp
8000415a:	f0 1f 00 3a 	mcall	80004240 <gfx_AddOptionToTerminal+0x108>
8000415e:	30 0a       	mov	r10,0
80004160:	30 1b       	mov	r11,1
80004162:	4b 9c       	lddpc	r12,80004244 <gfx_AddOptionToTerminal+0x10c>
80004164:	f0 1f 00 39 	mcall	80004248 <gfx_AddOptionToTerminal+0x110>
80004168:	2f ed       	sub	sp,-8
8000416a:	c1 98       	rjmp	8000419c <gfx_AddOptionToTerminal+0x64>
8000416c:	30 08       	mov	r8,0
8000416e:	50 08       	stdsp	sp[0x0],r8
80004170:	4b 38       	lddpc	r8,8000423c <gfx_AddOptionToTerminal+0x104>
80004172:	11 aa       	ld.ub	r10,r8[0x2]
80004174:	90 0b       	ld.sh	r11,r8[0x0]
80004176:	f4 c8 ff f8 	sub	r8,r10,-8
8000417a:	f6 c9 ff f8 	sub	r9,r11,-8
8000417e:	5c 58       	castu.b	r8
80004180:	5c 79       	castu.h	r9
80004182:	5c 7b       	castu.h	r11
80004184:	fa cc ff fc 	sub	r12,sp,-4
80004188:	f0 1f 00 31 	mcall	8000424c <gfx_AddOptionToTerminal+0x114>
8000418c:	40 08       	lddsp	r8,sp[0x0]
8000418e:	1a d8       	st.w	--sp,r8
80004190:	fa e8 00 08 	ld.d	r8,sp[8]
80004194:	bb 29       	st.d	--sp,r8
80004196:	f0 1f 00 2f 	mcall	80004250 <gfx_AddOptionToTerminal+0x118>
8000419a:	2f dd       	sub	sp,-12
8000419c:	58 07       	cp.w	r7,0
8000419e:	c2 e0       	breq	800041fa <gfx_AddOptionToTerminal+0xc2>
800041a0:	30 02       	mov	r2,0
800041a2:	50 32       	stdsp	sp[0xc],r2
800041a4:	4a 67       	lddpc	r7,8000423c <gfx_AddOptionToTerminal+0x104>
800041a6:	0f aa       	ld.ub	r10,r7[0x2]
800041a8:	8e 0b       	ld.sh	r11,r7[0x0]
800041aa:	f4 c8 ff ec 	sub	r8,r10,-20
800041ae:	ea 09 10 0a 	mul	r9,r5,10
800041b2:	16 09       	add	r9,r11
800041b4:	2f 6b       	sub	r11,-10
800041b6:	5c 58       	castu.b	r8
800041b8:	5c 79       	castu.h	r9
800041ba:	5c 7b       	castu.h	r11
800041bc:	fa cc ff f0 	sub	r12,sp,-16
800041c0:	f0 1f 00 23 	mcall	8000424c <gfx_AddOptionToTerminal+0x114>
800041c4:	40 38       	lddsp	r8,sp[0xc]
800041c6:	1a d8       	st.w	--sp,r8
800041c8:	fa e8 00 14 	ld.d	r8,sp[20]
800041cc:	bb 29       	st.d	--sp,r8
800041ce:	f0 1f 00 21 	mcall	80004250 <gfx_AddOptionToTerminal+0x118>
800041d2:	8e 08       	ld.sh	r8,r7[0x0]
800041d4:	2e c8       	sub	r8,-20
800041d6:	ae 08       	st.h	r7[0x0],r8
800041d8:	68 08       	ld.w	r8,r4[0x0]
800041da:	1a d8       	st.w	--sp,r8
800041dc:	20 1d       	sub	sp,4
800041de:	30 4a       	mov	r10,4
800041e0:	0e 9b       	mov	r11,r7
800041e2:	1a 9c       	mov	r12,sp
800041e4:	f0 1f 00 17 	mcall	80004240 <gfx_AddOptionToTerminal+0x108>
800041e8:	04 9a       	mov	r10,r2
800041ea:	0a 9b       	mov	r11,r5
800041ec:	06 9c       	mov	r12,r3
800041ee:	f0 1f 00 17 	mcall	80004248 <gfx_AddOptionToTerminal+0x110>
800041f2:	8e 08       	ld.sh	r8,r7[0x0]
800041f4:	21 48       	sub	r8,20
800041f6:	ae 08       	st.h	r7[0x0],r8
800041f8:	2f bd       	sub	sp,-20
800041fa:	49 18       	lddpc	r8,8000423c <gfx_AddOptionToTerminal+0x104>
800041fc:	11 a9       	ld.ub	r9,r8[0x2]
800041fe:	21 49       	sub	r9,20
80004200:	b0 a9       	st.b	r8[0x2],r9
80004202:	58 06       	cp.w	r6,0
80004204:	c1 90       	breq	80004236 <gfx_AddOptionToTerminal+0xfe>
80004206:	e1 b8 00 42 	mfsr	r8,0x108
8000420a:	e0 6a a8 00 	mov	r10,43008
8000420e:	ea 1a 00 61 	orh	r10,0x61
80004212:	f0 0a 00 0a 	add	r10,r8,r10
80004216:	e1 b9 00 42 	mfsr	r9,0x108
8000421a:	14 38       	cp.w	r8,r10
8000421c:	e0 88 00 08 	brls	8000422c <gfx_AddOptionToTerminal+0xf4>
80004220:	12 38       	cp.w	r8,r9
80004222:	fe 98 ff fa 	brls	80004216 <gfx_AddOptionToTerminal+0xde>
80004226:	12 3a       	cp.w	r10,r9
80004228:	c0 73       	brcs	80004236 <gfx_AddOptionToTerminal+0xfe>
8000422a:	cf 6b       	rjmp	80004216 <gfx_AddOptionToTerminal+0xde>
8000422c:	12 38       	cp.w	r8,r9
8000422e:	e0 8b 00 04 	brhi	80004236 <gfx_AddOptionToTerminal+0xfe>
80004232:	12 3a       	cp.w	r10,r9
80004234:	cf 12       	brcc	80004216 <gfx_AddOptionToTerminal+0xde>
80004236:	2f ad       	sub	sp,-24
80004238:	e3 cd 80 fc 	ldm	sp++,r2-r7,pc
8000423c:	00 00       	add	r0,r0
8000423e:	07 f6       	ld.ub	r6,r3[0x7]
80004240:	80 00       	ld.sh	r0,r0[0x0]
80004242:	76 9c       	ld.w	r12,r11[0x24]
80004244:	80 00       	ld.sh	r0,r0[0x0]
80004246:	ac bc       	st.b	r6[0x3],r12
80004248:	80 00       	ld.sh	r0,r0[0x0]
8000424a:	3e f4       	mov	r4,-17
8000424c:	80 00       	ld.sh	r0,r0[0x0]
8000424e:	5e 20       	reths	r0
80004250:	80 00       	ld.sh	r0,r0[0x0]
80004252:	5f 94       	srgt	r4

80004254 <gfx_AddLineToTerminal>:
80004254:	d4 21       	pushm	r4-r7,lr
80004256:	18 95       	mov	r5,r12
80004258:	16 96       	mov	r6,r11
8000425a:	14 94       	mov	r4,r10
8000425c:	40 58       	lddsp	r8,sp[0x14]
8000425e:	1a d8       	st.w	--sp,r8
80004260:	49 67       	lddpc	r7,800042b8 <gfx_AddLineToTerminal+0x64>
80004262:	20 1d       	sub	sp,4
80004264:	30 4a       	mov	r10,4
80004266:	0e 9b       	mov	r11,r7
80004268:	1a 9c       	mov	r12,sp
8000426a:	f0 1f 00 15 	mcall	800042bc <gfx_AddLineToTerminal+0x68>
8000426e:	30 0a       	mov	r10,0
80004270:	0c 9b       	mov	r11,r6
80004272:	0a 9c       	mov	r12,r5
80004274:	f0 1f 00 13 	mcall	800042c0 <gfx_AddLineToTerminal+0x6c>
80004278:	0f a8       	ld.ub	r8,r7[0x2]
8000427a:	21 48       	sub	r8,20
8000427c:	ae a8       	st.b	r7[0x2],r8
8000427e:	2f ed       	sub	sp,-8
80004280:	58 04       	cp.w	r4,0
80004282:	c1 90       	breq	800042b4 <gfx_AddLineToTerminal+0x60>
80004284:	e1 b8 00 42 	mfsr	r8,0x108
80004288:	e0 6a a8 00 	mov	r10,43008
8000428c:	ea 1a 00 61 	orh	r10,0x61
80004290:	f0 0a 00 0a 	add	r10,r8,r10
80004294:	e1 b9 00 42 	mfsr	r9,0x108
80004298:	14 38       	cp.w	r8,r10
8000429a:	e0 88 00 08 	brls	800042aa <gfx_AddLineToTerminal+0x56>
8000429e:	12 38       	cp.w	r8,r9
800042a0:	fe 98 ff fa 	brls	80004294 <gfx_AddLineToTerminal+0x40>
800042a4:	12 3a       	cp.w	r10,r9
800042a6:	c0 73       	brcs	800042b4 <gfx_AddLineToTerminal+0x60>
800042a8:	cf 6b       	rjmp	80004294 <gfx_AddLineToTerminal+0x40>
800042aa:	12 38       	cp.w	r8,r9
800042ac:	e0 8b 00 04 	brhi	800042b4 <gfx_AddLineToTerminal+0x60>
800042b0:	12 3a       	cp.w	r10,r9
800042b2:	cf 12       	brcc	80004294 <gfx_AddLineToTerminal+0x40>
800042b4:	d8 22       	popm	r4-r7,pc
800042b6:	00 00       	add	r0,r0
800042b8:	00 00       	add	r0,r0
800042ba:	07 f6       	ld.ub	r6,r3[0x7]
800042bc:	80 00       	ld.sh	r0,r0[0x0]
800042be:	76 9c       	ld.w	r12,r11[0x24]
800042c0:	80 00       	ld.sh	r0,r0[0x0]
800042c2:	3e f4       	mov	r4,-17

800042c4 <_musicInput>:
800042c4:	d4 01       	pushm	lr
800042c6:	4a d8       	lddpc	r8,80004378 <_musicInput+0xb4>
800042c8:	11 88       	ld.ub	r8,r8[0x0]
800042ca:	58 08       	cp.w	r8,0
800042cc:	c5 40       	breq	80004374 <_musicInput+0xb0>
800042ce:	30 19       	mov	r9,1
800042d0:	4a ba       	lddpc	r10,8000437c <_musicInput+0xb8>
800042d2:	b4 89       	st.b	r10[0x0],r9
800042d4:	f2 08 18 00 	cp.b	r8,r9
800042d8:	c0 a1       	brne	800042ec <_musicInput+0x28>
800042da:	30 09       	mov	r9,0
800042dc:	4a 98       	lddpc	r8,80004380 <_musicInput+0xbc>
800042de:	b0 89       	st.b	r8[0x0],r9
800042e0:	30 18       	mov	r8,1
800042e2:	4a 99       	lddpc	r9,80004384 <_musicInput+0xc0>
800042e4:	b2 88       	st.b	r9[0x0],r8
800042e6:	4a 99       	lddpc	r9,80004388 <_musicInput+0xc4>
800042e8:	b2 88       	st.b	r9[0x0],r8
800042ea:	c4 28       	rjmp	8000436e <_musicInput+0xaa>
800042ec:	30 29       	mov	r9,2
800042ee:	f2 08 18 00 	cp.b	r8,r9
800042f2:	c1 61       	brne	8000431e <_musicInput+0x5a>
800042f4:	4a 68       	lddpc	r8,8000438c <_musicInput+0xc8>
800042f6:	11 88       	ld.ub	r8,r8[0x0]
800042f8:	f3 d8 c0 01 	bfextu	r9,r8,0x0,0x1
800042fc:	c0 d0       	breq	80004316 <_musicInput+0x52>
800042fe:	4a 58       	lddpc	r8,80004390 <_musicInput+0xcc>
80004300:	11 89       	ld.ub	r9,r8[0x0]
80004302:	30 68       	mov	r8,6
80004304:	f0 09 0d 48 	min	r8,r8,r9
80004308:	20 18       	sub	r8,1
8000430a:	30 19       	mov	r9,1
8000430c:	f2 08 09 49 	lsl	r9,r9,r8
80004310:	49 f8       	lddpc	r8,8000438c <_musicInput+0xc8>
80004312:	b0 89       	st.b	r8[0x0],r9
80004314:	c2 d8       	rjmp	8000436e <_musicInput+0xaa>
80004316:	a1 98       	lsr	r8,0x1
80004318:	49 d9       	lddpc	r9,8000438c <_musicInput+0xc8>
8000431a:	b2 88       	st.b	r9[0x0],r8
8000431c:	c2 98       	rjmp	8000436e <_musicInput+0xaa>
8000431e:	30 39       	mov	r9,3
80004320:	f2 08 18 00 	cp.b	r8,r9
80004324:	c1 61       	brne	80004350 <_musicInput+0x8c>
80004326:	49 a8       	lddpc	r8,8000438c <_musicInput+0xc8>
80004328:	11 88       	ld.ub	r8,r8[0x0]
8000432a:	49 a9       	lddpc	r9,80004390 <_musicInput+0xcc>
8000432c:	13 8a       	ld.ub	r10,r9[0x0]
8000432e:	30 69       	mov	r9,6
80004330:	f2 0a 0d 49 	min	r9,r9,r10
80004334:	20 19       	sub	r9,1
80004336:	f0 09 08 49 	asr	r9,r8,r9
8000433a:	f3 d9 c0 01 	bfextu	r9,r9,0x0,0x1
8000433e:	c0 50       	breq	80004348 <_musicInput+0x84>
80004340:	30 19       	mov	r9,1
80004342:	49 38       	lddpc	r8,8000438c <_musicInput+0xc8>
80004344:	b0 89       	st.b	r8[0x0],r9
80004346:	c1 48       	rjmp	8000436e <_musicInput+0xaa>
80004348:	a1 78       	lsl	r8,0x1
8000434a:	49 19       	lddpc	r9,8000438c <_musicInput+0xc8>
8000434c:	b2 88       	st.b	r9[0x0],r8
8000434e:	c1 08       	rjmp	8000436e <_musicInput+0xaa>
80004350:	30 49       	mov	r9,4
80004352:	f2 08 18 00 	cp.b	r8,r9
80004356:	c0 c1       	brne	8000436e <_musicInput+0xaa>
80004358:	48 f8       	lddpc	r8,80004394 <_musicInput+0xd0>
8000435a:	70 28       	ld.w	r8,r8[0x8]
8000435c:	48 c9       	lddpc	r9,8000438c <_musicInput+0xc8>
8000435e:	13 8c       	ld.ub	r12,r9[0x0]
80004360:	5d 18       	icall	r8
80004362:	30 49       	mov	r9,4
80004364:	48 78       	lddpc	r8,80004380 <_musicInput+0xbc>
80004366:	b0 89       	st.b	r8[0x0],r9
80004368:	30 19       	mov	r9,1
8000436a:	48 78       	lddpc	r8,80004384 <_musicInput+0xc0>
8000436c:	b0 89       	st.b	r8[0x0],r9
8000436e:	30 09       	mov	r9,0
80004370:	48 28       	lddpc	r8,80004378 <_musicInput+0xb4>
80004372:	b0 89       	st.b	r8[0x0],r9
80004374:	d8 02       	popm	pc
80004376:	00 00       	add	r0,r0
80004378:	00 00       	add	r0,r0
8000437a:	07 fc       	ld.ub	r12,r3[0x7]
8000437c:	00 00       	add	r0,r0
8000437e:	07 fa       	ld.ub	r10,r3[0x7]
80004380:	00 00       	add	r0,r0
80004382:	07 ff       	ld.ub	pc,r3[0x7]
80004384:	00 00       	add	r0,r0
80004386:	08 00       	add	r0,r4
80004388:	00 00       	add	r0,r0
8000438a:	04 6c       	and	r12,r2
8000438c:	00 00       	add	r0,r0
8000438e:	04 4f       	or	pc,r2
80004390:	00 00       	add	r0,r0
80004392:	17 8c       	ld.ub	r12,r11[0x0]
80004394:	00 00       	add	r0,r0
80004396:	04 8c       	andn	r12,r2

80004398 <_settingsInput>:
80004398:	d4 01       	pushm	lr
8000439a:	4c 28       	lddpc	r8,800044a0 <_settingsInput+0x108>
8000439c:	11 88       	ld.ub	r8,r8[0x0]
8000439e:	58 08       	cp.w	r8,0
800043a0:	e0 80 00 7e 	breq	8000449c <_settingsInput+0x104>
800043a4:	30 19       	mov	r9,1
800043a6:	4c 0a       	lddpc	r10,800044a4 <_settingsInput+0x10c>
800043a8:	b4 89       	st.b	r10[0x0],r9
800043aa:	f2 08 18 00 	cp.b	r8,r9
800043ae:	c0 a1       	brne	800043c2 <_settingsInput+0x2a>
800043b0:	30 09       	mov	r9,0
800043b2:	4b e8       	lddpc	r8,800044a8 <_settingsInput+0x110>
800043b4:	b0 89       	st.b	r8[0x0],r9
800043b6:	30 18       	mov	r8,1
800043b8:	4b d9       	lddpc	r9,800044ac <_settingsInput+0x114>
800043ba:	b2 88       	st.b	r9[0x0],r8
800043bc:	4b d9       	lddpc	r9,800044b0 <_settingsInput+0x118>
800043be:	b2 88       	st.b	r9[0x0],r8
800043c0:	c6 b8       	rjmp	80004496 <_settingsInput+0xfe>
800043c2:	30 29       	mov	r9,2
800043c4:	f2 08 18 00 	cp.b	r8,r9
800043c8:	c0 e1       	brne	800043e4 <_settingsInput+0x4c>
800043ca:	4b b8       	lddpc	r8,800044b4 <_settingsInput+0x11c>
800043cc:	11 88       	ld.ub	r8,r8[0x0]
800043ce:	f3 d8 c0 01 	bfextu	r9,r8,0x0,0x1
800043d2:	c0 50       	breq	800043dc <_settingsInput+0x44>
800043d4:	30 49       	mov	r9,4
800043d6:	4b 88       	lddpc	r8,800044b4 <_settingsInput+0x11c>
800043d8:	b0 89       	st.b	r8[0x0],r9
800043da:	c5 e8       	rjmp	80004496 <_settingsInput+0xfe>
800043dc:	a1 98       	lsr	r8,0x1
800043de:	4b 69       	lddpc	r9,800044b4 <_settingsInput+0x11c>
800043e0:	b2 88       	st.b	r9[0x0],r8
800043e2:	c5 a8       	rjmp	80004496 <_settingsInput+0xfe>
800043e4:	30 39       	mov	r9,3
800043e6:	f2 08 18 00 	cp.b	r8,r9
800043ea:	c0 f1       	brne	80004408 <_settingsInput+0x70>
800043ec:	4b 28       	lddpc	r8,800044b4 <_settingsInput+0x11c>
800043ee:	11 88       	ld.ub	r8,r8[0x0]
800043f0:	10 99       	mov	r9,r8
800043f2:	e2 19 00 04 	andl	r9,0x4,COH
800043f6:	c0 50       	breq	80004400 <_settingsInput+0x68>
800043f8:	30 19       	mov	r9,1
800043fa:	4a f8       	lddpc	r8,800044b4 <_settingsInput+0x11c>
800043fc:	b0 89       	st.b	r8[0x0],r9
800043fe:	c4 c8       	rjmp	80004496 <_settingsInput+0xfe>
80004400:	a1 78       	lsl	r8,0x1
80004402:	4a d9       	lddpc	r9,800044b4 <_settingsInput+0x11c>
80004404:	b2 88       	st.b	r9[0x0],r8
80004406:	c4 88       	rjmp	80004496 <_settingsInput+0xfe>
80004408:	30 49       	mov	r9,4
8000440a:	f2 08 18 00 	cp.b	r8,r9
8000440e:	c4 41       	brne	80004496 <_settingsInput+0xfe>
80004410:	4a 98       	lddpc	r8,800044b4 <_settingsInput+0x11c>
80004412:	11 88       	ld.ub	r8,r8[0x0]
80004414:	30 29       	mov	r9,2
80004416:	f2 08 18 00 	cp.b	r8,r9
8000441a:	c1 50       	breq	80004444 <_settingsInput+0xac>
8000441c:	30 49       	mov	r9,4
8000441e:	f2 08 18 00 	cp.b	r8,r9
80004422:	c1 d0       	breq	8000445c <_settingsInput+0xc4>
80004424:	30 19       	mov	r9,1
80004426:	f2 08 18 00 	cp.b	r8,r9
8000442a:	c3 31       	brne	80004490 <_settingsInput+0xf8>
8000442c:	30 7a       	mov	r10,7
8000442e:	4a 3b       	lddpc	r11,800044b8 <_settingsInput+0x120>
80004430:	4a 3c       	lddpc	r12,800044bc <_settingsInput+0x124>
80004432:	f0 1f 00 24 	mcall	800044c0 <_settingsInput+0x128>
80004436:	30 59       	mov	r9,5
80004438:	49 c8       	lddpc	r8,800044a8 <_settingsInput+0x110>
8000443a:	b0 89       	st.b	r8[0x0],r9
8000443c:	30 19       	mov	r9,1
8000443e:	49 e8       	lddpc	r8,800044b4 <_settingsInput+0x11c>
80004440:	b0 89       	st.b	r8[0x0],r9
80004442:	c2 78       	rjmp	80004490 <_settingsInput+0xf8>
80004444:	30 7a       	mov	r10,7
80004446:	49 db       	lddpc	r11,800044b8 <_settingsInput+0x120>
80004448:	49 dc       	lddpc	r12,800044bc <_settingsInput+0x124>
8000444a:	f0 1f 00 1e 	mcall	800044c0 <_settingsInput+0x128>
8000444e:	30 69       	mov	r9,6
80004450:	49 68       	lddpc	r8,800044a8 <_settingsInput+0x110>
80004452:	b0 89       	st.b	r8[0x0],r9
80004454:	30 19       	mov	r9,1
80004456:	49 88       	lddpc	r8,800044b4 <_settingsInput+0x11c>
80004458:	b0 89       	st.b	r8[0x0],r9
8000445a:	c1 b8       	rjmp	80004490 <_settingsInput+0xf8>
8000445c:	49 a9       	lddpc	r9,800044c4 <_settingsInput+0x12c>
8000445e:	13 88       	ld.ub	r8,r9[0x0]
80004460:	2f f8       	sub	r8,-1
80004462:	b2 88       	st.b	r9[0x0],r8
80004464:	30 39       	mov	r9,3
80004466:	f2 08 18 00 	cp.b	r8,r9
8000446a:	e0 88 00 05 	brls	80004474 <_settingsInput+0xdc>
8000446e:	30 09       	mov	r9,0
80004470:	49 58       	lddpc	r8,800044c4 <_settingsInput+0x12c>
80004472:	b0 89       	st.b	r8[0x0],r9
80004474:	49 48       	lddpc	r8,800044c4 <_settingsInput+0x12c>
80004476:	11 88       	ld.ub	r8,r8[0x0]
80004478:	f0 08 00 28 	add	r8,r8,r8<<0x2
8000447c:	49 39       	lddpc	r9,800044c8 <_settingsInput+0x130>
8000447e:	f2 08 00 18 	add	r8,r9,r8<<0x1
80004482:	11 d9       	ld.ub	r9,r8[0x5]
80004484:	a9 69       	lsl	r9,0x8
80004486:	11 e8       	ld.ub	r8,r8[0x6]
80004488:	f0 09 00 09 	add	r9,r8,r9
8000448c:	49 08       	lddpc	r8,800044cc <_settingsInput+0x134>
8000448e:	b0 09       	st.h	r8[0x0],r9
80004490:	30 19       	mov	r9,1
80004492:	48 78       	lddpc	r8,800044ac <_settingsInput+0x114>
80004494:	b0 89       	st.b	r8[0x0],r9
80004496:	30 09       	mov	r9,0
80004498:	48 28       	lddpc	r8,800044a0 <_settingsInput+0x108>
8000449a:	b0 89       	st.b	r8[0x0],r9
8000449c:	d8 02       	popm	pc
8000449e:	00 00       	add	r0,r0
800044a0:	00 00       	add	r0,r0
800044a2:	07 fc       	ld.ub	r12,r3[0x7]
800044a4:	00 00       	add	r0,r0
800044a6:	07 fa       	ld.ub	r10,r3[0x7]
800044a8:	00 00       	add	r0,r0
800044aa:	07 ff       	ld.ub	pc,r3[0x7]
800044ac:	00 00       	add	r0,r0
800044ae:	08 00       	add	r0,r4
800044b0:	00 00       	add	r0,r0
800044b2:	04 6c       	and	r12,r2
800044b4:	00 00       	add	r0,r0
800044b6:	04 4f       	or	pc,r2
800044b8:	00 00       	add	r0,r0
800044ba:	0a f3       	st.b	--r5,r3
800044bc:	00 00       	add	r0,r0
800044be:	08 01       	add	r1,r4
800044c0:	80 00       	ld.sh	r0,r0[0x0]
800044c2:	76 9c       	ld.w	r12,r11[0x24]
800044c4:	00 00       	add	r0,r0
800044c6:	07 fb       	ld.ub	r11,r3[0x7]
800044c8:	80 00       	ld.sh	r0,r0[0x0]
800044ca:	ad 1a       	ld.d	r10,--r6
800044cc:	00 00       	add	r0,r0
800044ce:	04 0c       	add	r12,r2

800044d0 <_alarmInput>:
800044d0:	49 f8       	lddpc	r8,8000454c <_alarmInput+0x7c>
800044d2:	11 88       	ld.ub	r8,r8[0x0]
800044d4:	58 08       	cp.w	r8,0
800044d6:	5e 0c       	reteq	r12
800044d8:	30 19       	mov	r9,1
800044da:	49 ea       	lddpc	r10,80004550 <_alarmInput+0x80>
800044dc:	b4 89       	st.b	r10[0x0],r9
800044de:	f2 08 18 00 	cp.b	r8,r9
800044e2:	c0 c1       	brne	800044fa <_alarmInput+0x2a>
800044e4:	30 08       	mov	r8,0
800044e6:	49 c9       	lddpc	r9,80004554 <_alarmInput+0x84>
800044e8:	b2 88       	st.b	r9[0x0],r8
800044ea:	30 19       	mov	r9,1
800044ec:	49 ba       	lddpc	r10,80004558 <_alarmInput+0x88>
800044ee:	b4 89       	st.b	r10[0x0],r9
800044f0:	49 ba       	lddpc	r10,8000455c <_alarmInput+0x8c>
800044f2:	b4 89       	st.b	r10[0x0],r9
800044f4:	49 69       	lddpc	r9,8000454c <_alarmInput+0x7c>
800044f6:	b2 88       	st.b	r9[0x0],r8
800044f8:	5e fc       	retal	r12
800044fa:	30 29       	mov	r9,2
800044fc:	f2 08 18 00 	cp.b	r8,r9
80004500:	c1 11       	brne	80004522 <_alarmInput+0x52>
80004502:	49 88       	lddpc	r8,80004560 <_alarmInput+0x90>
80004504:	11 88       	ld.ub	r8,r8[0x0]
80004506:	f3 d8 c0 01 	bfextu	r9,r8,0x0,0x1
8000450a:	c0 50       	breq	80004514 <_alarmInput+0x44>
8000450c:	30 89       	mov	r9,8
8000450e:	49 58       	lddpc	r8,80004560 <_alarmInput+0x90>
80004510:	b0 89       	st.b	r8[0x0],r9
80004512:	c0 48       	rjmp	8000451a <_alarmInput+0x4a>
80004514:	a1 98       	lsr	r8,0x1
80004516:	49 39       	lddpc	r9,80004560 <_alarmInput+0x90>
80004518:	b2 88       	st.b	r9[0x0],r8
8000451a:	30 09       	mov	r9,0
8000451c:	48 c8       	lddpc	r8,8000454c <_alarmInput+0x7c>
8000451e:	b0 89       	st.b	r8[0x0],r9
80004520:	5e fc       	retal	r12
80004522:	30 39       	mov	r9,3
80004524:	f2 08 18 00 	cp.b	r8,r9
80004528:	5e 1c       	retne	r12
8000452a:	48 e8       	lddpc	r8,80004560 <_alarmInput+0x90>
8000452c:	11 88       	ld.ub	r8,r8[0x0]
8000452e:	10 99       	mov	r9,r8
80004530:	e2 19 00 08 	andl	r9,0x8,COH
80004534:	c0 50       	breq	8000453e <_alarmInput+0x6e>
80004536:	30 19       	mov	r9,1
80004538:	48 a8       	lddpc	r8,80004560 <_alarmInput+0x90>
8000453a:	b0 89       	st.b	r8[0x0],r9
8000453c:	c0 48       	rjmp	80004544 <_alarmInput+0x74>
8000453e:	a1 78       	lsl	r8,0x1
80004540:	48 89       	lddpc	r9,80004560 <_alarmInput+0x90>
80004542:	b2 88       	st.b	r9[0x0],r8
80004544:	30 09       	mov	r9,0
80004546:	48 28       	lddpc	r8,8000454c <_alarmInput+0x7c>
80004548:	b0 89       	st.b	r8[0x0],r9
8000454a:	5e fc       	retal	r12
8000454c:	00 00       	add	r0,r0
8000454e:	07 fc       	ld.ub	r12,r3[0x7]
80004550:	00 00       	add	r0,r0
80004552:	07 fa       	ld.ub	r10,r3[0x7]
80004554:	00 00       	add	r0,r0
80004556:	07 ff       	ld.ub	pc,r3[0x7]
80004558:	00 00       	add	r0,r0
8000455a:	08 00       	add	r0,r4
8000455c:	00 00       	add	r0,r0
8000455e:	04 6c       	and	r12,r2
80004560:	00 00       	add	r0,r0
80004562:	04 4f       	or	pc,r2

80004564 <tc2_irq>:
80004564:	d4 01       	pushm	lr
80004566:	30 2b       	mov	r11,2
80004568:	fe 7c 38 00 	mov	r12,-51200
8000456c:	f0 1f 00 0c 	mcall	8000459c <tc2_irq+0x38>
80004570:	30 1b       	mov	r11,1
80004572:	33 8c       	mov	r12,56
80004574:	f0 1f 00 0b 	mcall	800045a0 <tc2_irq+0x3c>
80004578:	30 1b       	mov	r11,1
8000457a:	33 9c       	mov	r12,57
8000457c:	f0 1f 00 09 	mcall	800045a0 <tc2_irq+0x3c>
80004580:	30 1b       	mov	r11,1
80004582:	33 ac       	mov	r12,58
80004584:	f0 1f 00 07 	mcall	800045a0 <tc2_irq+0x3c>
80004588:	30 1b       	mov	r11,1
8000458a:	33 bc       	mov	r12,59
8000458c:	f0 1f 00 05 	mcall	800045a0 <tc2_irq+0x3c>
80004590:	fe 78 38 00 	mov	r8,-51200
80004594:	f0 f8 00 a0 	ld.w	r8,r8[160]
80004598:	d4 02       	popm	lr
8000459a:	d6 03       	rete
8000459c:	80 00       	ld.sh	r0,r0[0x0]
8000459e:	31 98       	mov	r8,25
800045a0:	80 00       	ld.sh	r0,r0[0x0]
800045a2:	2a 58       	sub	r8,-91

800045a4 <switch_irq>:
800045a4:	d4 01       	pushm	lr
800045a6:	33 8c       	mov	r12,56
800045a8:	f0 1f 00 1c 	mcall	80004618 <switch_irq+0x74>
800045ac:	c0 50       	breq	800045b6 <switch_irq+0x12>
800045ae:	30 19       	mov	r9,1
800045b0:	49 b8       	lddpc	r8,8000461c <switch_irq+0x78>
800045b2:	b0 89       	st.b	r8[0x0],r9
800045b4:	c1 88       	rjmp	800045e4 <switch_irq+0x40>
800045b6:	33 9c       	mov	r12,57
800045b8:	f0 1f 00 18 	mcall	80004618 <switch_irq+0x74>
800045bc:	c0 50       	breq	800045c6 <switch_irq+0x22>
800045be:	30 29       	mov	r9,2
800045c0:	49 78       	lddpc	r8,8000461c <switch_irq+0x78>
800045c2:	b0 89       	st.b	r8[0x0],r9
800045c4:	c1 08       	rjmp	800045e4 <switch_irq+0x40>
800045c6:	33 ac       	mov	r12,58
800045c8:	f0 1f 00 14 	mcall	80004618 <switch_irq+0x74>
800045cc:	c0 50       	breq	800045d6 <switch_irq+0x32>
800045ce:	30 39       	mov	r9,3
800045d0:	49 38       	lddpc	r8,8000461c <switch_irq+0x78>
800045d2:	b0 89       	st.b	r8[0x0],r9
800045d4:	c0 88       	rjmp	800045e4 <switch_irq+0x40>
800045d6:	33 bc       	mov	r12,59
800045d8:	f0 1f 00 10 	mcall	80004618 <switch_irq+0x74>
800045dc:	c0 40       	breq	800045e4 <switch_irq+0x40>
800045de:	30 49       	mov	r9,4
800045e0:	48 f8       	lddpc	r8,8000461c <switch_irq+0x78>
800045e2:	b0 89       	st.b	r8[0x0],r9
800045e4:	fc 19 ff 00 	movh	r9,0xff00
800045e8:	fe 78 10 00 	mov	r8,-61440
800045ec:	f1 49 01 d8 	st.w	r8[472],r9
800045f0:	30 2b       	mov	r11,2
800045f2:	fe 7c 38 00 	mov	r12,-51200
800045f6:	f0 1f 00 0b 	mcall	80004620 <switch_irq+0x7c>
800045fa:	33 8c       	mov	r12,56
800045fc:	f0 1f 00 0a 	mcall	80004624 <switch_irq+0x80>
80004600:	33 9c       	mov	r12,57
80004602:	f0 1f 00 09 	mcall	80004624 <switch_irq+0x80>
80004606:	33 ac       	mov	r12,58
80004608:	f0 1f 00 07 	mcall	80004624 <switch_irq+0x80>
8000460c:	33 bc       	mov	r12,59
8000460e:	f0 1f 00 06 	mcall	80004624 <switch_irq+0x80>
80004612:	d4 02       	popm	lr
80004614:	d6 03       	rete
80004616:	00 00       	add	r0,r0
80004618:	80 00       	ld.sh	r0,r0[0x0]
8000461a:	2a b4       	sub	r4,-85
8000461c:	00 00       	add	r0,r0
8000461e:	07 fc       	ld.ub	r12,r3[0x7]
80004620:	80 00       	ld.sh	r0,r0[0x0]
80004622:	31 86       	mov	r6,24
80004624:	80 00       	ld.sh	r0,r0[0x0]
80004626:	2a 9e       	sub	lr,-87

80004628 <_playFile>:
80004628:	d4 21       	pushm	r4-r7,lr
8000462a:	18 94       	mov	r4,r12
8000462c:	48 f8       	lddpc	r8,80004668 <_playFile+0x40>
8000462e:	11 89       	ld.ub	r9,r8[0x0]
80004630:	30 68       	mov	r8,6
80004632:	f0 09 0d 48 	min	r8,r8,r9
80004636:	58 08       	cp.w	r8,0
80004638:	e0 8a 00 17 	brle	80004666 <_playFile+0x3e>
8000463c:	30 0c       	mov	r12,0
8000463e:	18 97       	mov	r7,r12
80004640:	30 66       	mov	r6,6
80004642:	48 a5       	lddpc	r5,80004668 <_playFile+0x40>
80004644:	e8 0c 08 48 	asr	r8,r4,r12
80004648:	f1 d8 c0 01 	bfextu	r8,r8,0x0,0x1
8000464c:	c0 50       	breq	80004656 <_playFile+0x2e>
8000464e:	f0 1f 00 08 	mcall	8000466c <_playFile+0x44>
80004652:	f0 1f 00 08 	mcall	80004670 <_playFile+0x48>
80004656:	2f f7       	sub	r7,-1
80004658:	5c 57       	castu.b	r7
8000465a:	0e 9c       	mov	r12,r7
8000465c:	0b 88       	ld.ub	r8,r5[0x0]
8000465e:	ec 08 0d 48 	min	r8,r6,r8
80004662:	10 37       	cp.w	r7,r8
80004664:	cf 05       	brlt	80004644 <_playFile+0x1c>
80004666:	d8 22       	popm	r4-r7,pc
80004668:	00 00       	add	r0,r0
8000466a:	17 8c       	ld.ub	r12,r11[0x0]
8000466c:	80 00       	ld.sh	r0,r0[0x0]
8000466e:	3e 60       	mov	r0,-26
80004670:	80 00       	ld.sh	r0,r0[0x0]
80004672:	3c 94       	mov	r4,-55

80004674 <_settingsDateInput>:
80004674:	eb cd 40 c0 	pushm	r6-r7,lr
80004678:	4e 18       	lddpc	r8,800047fc <_settingsDateInput+0x188>
8000467a:	11 88       	ld.ub	r8,r8[0x0]
8000467c:	58 08       	cp.w	r8,0
8000467e:	e0 80 00 bc 	breq	800047f6 <_settingsDateInput+0x182>
80004682:	30 19       	mov	r9,1
80004684:	4d fa       	lddpc	r10,80004800 <_settingsDateInput+0x18c>
80004686:	b4 89       	st.b	r10[0x0],r9
80004688:	f2 08 18 00 	cp.b	r8,r9
8000468c:	c0 81       	brne	8000469c <_settingsDateInput+0x28>
8000468e:	30 29       	mov	r9,2
80004690:	4d d8       	lddpc	r8,80004804 <_settingsDateInput+0x190>
80004692:	b0 89       	st.b	r8[0x0],r9
80004694:	30 19       	mov	r9,1
80004696:	4d d8       	lddpc	r8,80004808 <_settingsDateInput+0x194>
80004698:	b0 89       	st.b	r8[0x0],r9
8000469a:	ca b8       	rjmp	800047f0 <_settingsDateInput+0x17c>
8000469c:	30 29       	mov	r9,2
8000469e:	f2 08 18 00 	cp.b	r8,r9
800046a2:	c3 e1       	brne	8000471e <_settingsDateInput+0xaa>
800046a4:	4d a8       	lddpc	r8,8000480c <_settingsDateInput+0x198>
800046a6:	11 88       	ld.ub	r8,r8[0x0]
800046a8:	f2 08 18 00 	cp.b	r8,r9
800046ac:	c1 70       	breq	800046da <_settingsDateInput+0x66>
800046ae:	30 49       	mov	r9,4
800046b0:	f2 08 18 00 	cp.b	r8,r9
800046b4:	c2 00       	breq	800046f4 <_settingsDateInput+0x80>
800046b6:	30 19       	mov	r9,1
800046b8:	f2 08 18 00 	cp.b	r8,r9
800046bc:	e0 81 00 9a 	brne	800047f0 <_settingsDateInput+0x17c>
800046c0:	4d 49       	lddpc	r9,80004810 <_settingsDateInput+0x19c>
800046c2:	13 88       	ld.ub	r8,r9[0x0]
800046c4:	2f f8       	sub	r8,-1
800046c6:	b2 88       	st.b	r9[0x0],r8
800046c8:	3c 79       	mov	r9,-57
800046ca:	f2 08 18 00 	cp.b	r8,r9
800046ce:	e0 88 00 91 	brls	800047f0 <_settingsDateInput+0x17c>
800046d2:	30 09       	mov	r9,0
800046d4:	4c f8       	lddpc	r8,80004810 <_settingsDateInput+0x19c>
800046d6:	b0 89       	st.b	r8[0x0],r9
800046d8:	c8 c8       	rjmp	800047f0 <_settingsDateInput+0x17c>
800046da:	4c e9       	lddpc	r9,80004810 <_settingsDateInput+0x19c>
800046dc:	13 98       	ld.ub	r8,r9[0x1]
800046de:	2f f8       	sub	r8,-1
800046e0:	b2 98       	st.b	r9[0x1],r8
800046e2:	30 c9       	mov	r9,12
800046e4:	f2 08 18 00 	cp.b	r8,r9
800046e8:	e0 88 00 84 	brls	800047f0 <_settingsDateInput+0x17c>
800046ec:	30 09       	mov	r9,0
800046ee:	4c 98       	lddpc	r8,80004810 <_settingsDateInput+0x19c>
800046f0:	b0 99       	st.b	r8[0x1],r9
800046f2:	c7 f8       	rjmp	800047f0 <_settingsDateInput+0x17c>
800046f4:	4c 79       	lddpc	r9,80004810 <_settingsDateInput+0x19c>
800046f6:	13 aa       	ld.ub	r10,r9[0x2]
800046f8:	f4 08 16 02 	lsr	r8,r10,0x2
800046fc:	2f f8       	sub	r8,-1
800046fe:	f1 d8 c0 06 	bfextu	r8,r8,0x0,0x6
80004702:	f5 d8 d0 46 	bfins	r10,r8,0x2,0x6
80004706:	b2 aa       	st.b	r9[0x2],r10
80004708:	59 f8       	cp.w	r8,31
8000470a:	e0 8a 00 73 	brle	800047f0 <_settingsDateInput+0x17c>
8000470e:	12 98       	mov	r8,r9
80004710:	f3 da c0 08 	bfextu	r9,r10,0x0,0x8
80004714:	30 0a       	mov	r10,0
80004716:	f3 da d0 46 	bfins	r9,r10,0x2,0x6
8000471a:	b0 a9       	st.b	r8[0x2],r9
8000471c:	c6 a8       	rjmp	800047f0 <_settingsDateInput+0x17c>
8000471e:	30 39       	mov	r9,3
80004720:	f2 08 18 00 	cp.b	r8,r9
80004724:	c3 c1       	brne	8000479c <_settingsDateInput+0x128>
80004726:	4b a8       	lddpc	r8,8000480c <_settingsDateInput+0x198>
80004728:	11 88       	ld.ub	r8,r8[0x0]
8000472a:	30 29       	mov	r9,2
8000472c:	f2 08 18 00 	cp.b	r8,r9
80004730:	c1 50       	breq	8000475a <_settingsDateInput+0xe6>
80004732:	30 49       	mov	r9,4
80004734:	f2 08 18 00 	cp.b	r8,r9
80004738:	c1 d0       	breq	80004772 <_settingsDateInput+0xfe>
8000473a:	30 19       	mov	r9,1
8000473c:	f2 08 18 00 	cp.b	r8,r9
80004740:	c5 81       	brne	800047f0 <_settingsDateInput+0x17c>
80004742:	4b 49       	lddpc	r9,80004810 <_settingsDateInput+0x19c>
80004744:	13 88       	ld.ub	r8,r9[0x0]
80004746:	20 18       	sub	r8,1
80004748:	b2 88       	st.b	r9[0x0],r8
8000474a:	3c 79       	mov	r9,-57
8000474c:	f2 08 18 00 	cp.b	r8,r9
80004750:	e0 88 00 50 	brls	800047f0 <_settingsDateInput+0x17c>
80004754:	4a f8       	lddpc	r8,80004810 <_settingsDateInput+0x19c>
80004756:	b0 89       	st.b	r8[0x0],r9
80004758:	c4 c8       	rjmp	800047f0 <_settingsDateInput+0x17c>
8000475a:	4a e9       	lddpc	r9,80004810 <_settingsDateInput+0x19c>
8000475c:	13 98       	ld.ub	r8,r9[0x1]
8000475e:	20 18       	sub	r8,1
80004760:	b2 98       	st.b	r9[0x1],r8
80004762:	30 c9       	mov	r9,12
80004764:	f2 08 18 00 	cp.b	r8,r9
80004768:	e0 88 00 44 	brls	800047f0 <_settingsDateInput+0x17c>
8000476c:	4a 98       	lddpc	r8,80004810 <_settingsDateInput+0x19c>
8000476e:	b0 99       	st.b	r8[0x1],r9
80004770:	c4 08       	rjmp	800047f0 <_settingsDateInput+0x17c>
80004772:	4a 89       	lddpc	r9,80004810 <_settingsDateInput+0x19c>
80004774:	13 aa       	ld.ub	r10,r9[0x2]
80004776:	f4 08 16 02 	lsr	r8,r10,0x2
8000477a:	2c 18       	sub	r8,-63
8000477c:	f1 d8 c0 06 	bfextu	r8,r8,0x0,0x6
80004780:	f5 d8 d0 46 	bfins	r10,r8,0x2,0x6
80004784:	b2 aa       	st.b	r9[0x2],r10
80004786:	59 f8       	cp.w	r8,31
80004788:	e0 8a 00 34 	brle	800047f0 <_settingsDateInput+0x17c>
8000478c:	12 98       	mov	r8,r9
8000478e:	f3 da c0 08 	bfextu	r9,r10,0x0,0x8
80004792:	31 fa       	mov	r10,31
80004794:	f3 da d0 46 	bfins	r9,r10,0x2,0x6
80004798:	b0 a9       	st.b	r8[0x2],r9
8000479a:	c2 b8       	rjmp	800047f0 <_settingsDateInput+0x17c>
8000479c:	30 49       	mov	r9,4
8000479e:	f2 08 18 00 	cp.b	r8,r9
800047a2:	c2 71       	brne	800047f0 <_settingsDateInput+0x17c>
800047a4:	49 a9       	lddpc	r9,8000480c <_settingsDateInput+0x198>
800047a6:	13 88       	ld.ub	r8,r9[0x0]
800047a8:	a1 78       	lsl	r8,0x1
800047aa:	b2 88       	st.b	r9[0x0],r8
800047ac:	30 49       	mov	r9,4
800047ae:	f2 08 18 00 	cp.b	r8,r9
800047b2:	e0 88 00 1f 	brls	800047f0 <_settingsDateInput+0x17c>
800047b6:	30 29       	mov	r9,2
800047b8:	49 38       	lddpc	r8,80004804 <_settingsDateInput+0x190>
800047ba:	b0 89       	st.b	r8[0x0],r9
800047bc:	30 16       	mov	r6,1
800047be:	49 38       	lddpc	r8,80004808 <_settingsDateInput+0x194>
800047c0:	b0 86       	st.b	r8[0x0],r6
800047c2:	49 57       	lddpc	r7,80004814 <_settingsDateInput+0x1a0>
800047c4:	49 38       	lddpc	r8,80004810 <_settingsDateInput+0x19c>
800047c6:	11 89       	ld.ub	r9,r8[0x0]
800047c8:	ae 89       	st.b	r7[0x0],r9
800047ca:	11 99       	ld.ub	r9,r8[0x1]
800047cc:	ae 99       	st.b	r7[0x1],r9
800047ce:	11 a9       	ld.ub	r9,r8[0x2]
800047d0:	f3 d9 c0 46 	bfextu	r9,r9,0x2,0x6
800047d4:	0f a8       	ld.ub	r8,r7[0x2]
800047d6:	f1 d9 d0 46 	bfins	r8,r9,0x2,0x6
800047da:	ae a8       	st.b	r7[0x2],r8
800047dc:	f0 1f 00 0f 	mcall	80004818 <_settingsDateInput+0x1a4>
800047e0:	0f b8       	ld.ub	r8,r7[0x3]
800047e2:	f1 dc d0 a3 	bfins	r8,r12,0x5,0x3
800047e6:	ae b8       	st.b	r7[0x3],r8
800047e8:	f0 1f 00 0d 	mcall	8000481c <_settingsDateInput+0x1a8>
800047ec:	48 88       	lddpc	r8,8000480c <_settingsDateInput+0x198>
800047ee:	b0 86       	st.b	r8[0x0],r6
800047f0:	30 09       	mov	r9,0
800047f2:	48 38       	lddpc	r8,800047fc <_settingsDateInput+0x188>
800047f4:	b0 89       	st.b	r8[0x0],r9
800047f6:	e3 cd 80 c0 	ldm	sp++,r6-r7,pc
800047fa:	00 00       	add	r0,r0
800047fc:	00 00       	add	r0,r0
800047fe:	07 fc       	ld.ub	r12,r3[0x7]
80004800:	00 00       	add	r0,r0
80004802:	07 fa       	ld.ub	r10,r3[0x7]
80004804:	00 00       	add	r0,r0
80004806:	07 ff       	ld.ub	pc,r3[0x7]
80004808:	00 00       	add	r0,r0
8000480a:	08 00       	add	r0,r4
8000480c:	00 00       	add	r0,r0
8000480e:	04 4f       	or	pc,r2
80004810:	00 00       	add	r0,r0
80004812:	08 01       	add	r1,r4
80004814:	00 00       	add	r0,r0
80004816:	0a f3       	st.b	--r5,r3
80004818:	80 00       	ld.sh	r0,r0[0x0]
8000481a:	67 f4       	ld.w	r4,r3[0x7c]
8000481c:	80 00       	ld.sh	r0,r0[0x0]
8000481e:	6c 20       	ld.w	r0,r6[0x8]

80004820 <_settingsHourInput>:
80004820:	eb cd 40 80 	pushm	r7,lr
80004824:	4d a8       	lddpc	r8,8000498c <_settingsHourInput+0x16c>
80004826:	11 88       	ld.ub	r8,r8[0x0]
80004828:	58 08       	cp.w	r8,0
8000482a:	e0 80 00 af 	breq	80004988 <_settingsHourInput+0x168>
8000482e:	30 19       	mov	r9,1
80004830:	4d 8a       	lddpc	r10,80004990 <_settingsHourInput+0x170>
80004832:	b4 89       	st.b	r10[0x0],r9
80004834:	f2 08 18 00 	cp.b	r8,r9
80004838:	c0 81       	brne	80004848 <_settingsHourInput+0x28>
8000483a:	30 29       	mov	r9,2
8000483c:	4d 68       	lddpc	r8,80004994 <_settingsHourInput+0x174>
8000483e:	b0 89       	st.b	r8[0x0],r9
80004840:	30 19       	mov	r9,1
80004842:	4d 68       	lddpc	r8,80004998 <_settingsHourInput+0x178>
80004844:	b0 89       	st.b	r8[0x0],r9
80004846:	c9 e8       	rjmp	80004982 <_settingsHourInput+0x162>
80004848:	30 29       	mov	r9,2
8000484a:	f2 08 18 00 	cp.b	r8,r9
8000484e:	c3 81       	brne	800048be <_settingsHourInput+0x9e>
80004850:	4d 38       	lddpc	r8,8000499c <_settingsHourInput+0x17c>
80004852:	11 88       	ld.ub	r8,r8[0x0]
80004854:	30 19       	mov	r9,1
80004856:	f2 08 18 00 	cp.b	r8,r9
8000485a:	c0 70       	breq	80004868 <_settingsHourInput+0x48>
8000485c:	30 29       	mov	r9,2
8000485e:	f2 08 18 00 	cp.b	r8,r9
80004862:	e0 81 00 90 	brne	80004982 <_settingsHourInput+0x162>
80004866:	c1 68       	rjmp	80004892 <_settingsHourInput+0x72>
80004868:	4c e9       	lddpc	r9,800049a0 <_settingsHourInput+0x180>
8000486a:	13 ca       	ld.ub	r10,r9[0x4]
8000486c:	f4 08 16 01 	lsr	r8,r10,0x1
80004870:	2f f8       	sub	r8,-1
80004872:	f1 d8 c0 07 	bfextu	r8,r8,0x0,0x7
80004876:	f5 d8 d0 27 	bfins	r10,r8,0x1,0x7
8000487a:	b2 ca       	st.b	r9[0x4],r10
8000487c:	59 78       	cp.w	r8,23
8000487e:	e0 8a 00 82 	brle	80004982 <_settingsHourInput+0x162>
80004882:	12 98       	mov	r8,r9
80004884:	f3 da c0 08 	bfextu	r9,r10,0x0,0x8
80004888:	30 0a       	mov	r10,0
8000488a:	f3 da d0 27 	bfins	r9,r10,0x1,0x7
8000488e:	b0 c9       	st.b	r8[0x4],r9
80004890:	c7 98       	rjmp	80004982 <_settingsHourInput+0x162>
80004892:	4c 49       	lddpc	r9,800049a0 <_settingsHourInput+0x180>
80004894:	13 da       	ld.ub	r10,r9[0x5]
80004896:	f4 08 16 01 	lsr	r8,r10,0x1
8000489a:	2f f8       	sub	r8,-1
8000489c:	f1 d8 c0 07 	bfextu	r8,r8,0x0,0x7
800048a0:	f5 d8 d0 27 	bfins	r10,r8,0x1,0x7
800048a4:	b2 da       	st.b	r9[0x5],r10
800048a6:	e0 48 00 3b 	cp.w	r8,59
800048aa:	e0 8a 00 6c 	brle	80004982 <_settingsHourInput+0x162>
800048ae:	12 98       	mov	r8,r9
800048b0:	f3 da c0 08 	bfextu	r9,r10,0x0,0x8
800048b4:	30 0a       	mov	r10,0
800048b6:	f3 da d0 27 	bfins	r9,r10,0x1,0x7
800048ba:	b0 d9       	st.b	r8[0x5],r9
800048bc:	c6 38       	rjmp	80004982 <_settingsHourInput+0x162>
800048be:	30 39       	mov	r9,3
800048c0:	f2 08 18 00 	cp.b	r8,r9
800048c4:	c3 71       	brne	80004932 <_settingsHourInput+0x112>
800048c6:	4b 68       	lddpc	r8,8000499c <_settingsHourInput+0x17c>
800048c8:	11 88       	ld.ub	r8,r8[0x0]
800048ca:	30 19       	mov	r9,1
800048cc:	f2 08 18 00 	cp.b	r8,r9
800048d0:	c0 60       	breq	800048dc <_settingsHourInput+0xbc>
800048d2:	30 29       	mov	r9,2
800048d4:	f2 08 18 00 	cp.b	r8,r9
800048d8:	c5 51       	brne	80004982 <_settingsHourInput+0x162>
800048da:	c1 68       	rjmp	80004906 <_settingsHourInput+0xe6>
800048dc:	4b 19       	lddpc	r9,800049a0 <_settingsHourInput+0x180>
800048de:	13 ca       	ld.ub	r10,r9[0x4]
800048e0:	f4 08 16 01 	lsr	r8,r10,0x1
800048e4:	28 18       	sub	r8,-127
800048e6:	f1 d8 c0 07 	bfextu	r8,r8,0x0,0x7
800048ea:	f5 d8 d0 27 	bfins	r10,r8,0x1,0x7
800048ee:	b2 ca       	st.b	r9[0x4],r10
800048f0:	59 78       	cp.w	r8,23
800048f2:	e0 8a 00 48 	brle	80004982 <_settingsHourInput+0x162>
800048f6:	12 98       	mov	r8,r9
800048f8:	f3 da c0 08 	bfextu	r9,r10,0x0,0x8
800048fc:	31 7a       	mov	r10,23
800048fe:	f3 da d0 27 	bfins	r9,r10,0x1,0x7
80004902:	b0 c9       	st.b	r8[0x4],r9
80004904:	c3 f8       	rjmp	80004982 <_settingsHourInput+0x162>
80004906:	4a 79       	lddpc	r9,800049a0 <_settingsHourInput+0x180>
80004908:	13 da       	ld.ub	r10,r9[0x5]
8000490a:	f4 08 16 01 	lsr	r8,r10,0x1
8000490e:	28 18       	sub	r8,-127
80004910:	f1 d8 c0 07 	bfextu	r8,r8,0x0,0x7
80004914:	f5 d8 d0 27 	bfins	r10,r8,0x1,0x7
80004918:	b2 da       	st.b	r9[0x5],r10
8000491a:	e0 48 00 3b 	cp.w	r8,59
8000491e:	e0 8a 00 32 	brle	80004982 <_settingsHourInput+0x162>
80004922:	12 98       	mov	r8,r9
80004924:	f3 da c0 08 	bfextu	r9,r10,0x0,0x8
80004928:	33 ba       	mov	r10,59
8000492a:	f3 da d0 27 	bfins	r9,r10,0x1,0x7
8000492e:	b0 d9       	st.b	r8[0x5],r9
80004930:	c2 98       	rjmp	80004982 <_settingsHourInput+0x162>
80004932:	30 49       	mov	r9,4
80004934:	f2 08 18 00 	cp.b	r8,r9
80004938:	c2 51       	brne	80004982 <_settingsHourInput+0x162>
8000493a:	49 99       	lddpc	r9,8000499c <_settingsHourInput+0x17c>
8000493c:	13 88       	ld.ub	r8,r9[0x0]
8000493e:	a1 78       	lsl	r8,0x1
80004940:	b2 88       	st.b	r9[0x0],r8
80004942:	30 29       	mov	r9,2
80004944:	f2 08 18 00 	cp.b	r8,r9
80004948:	e0 88 00 1d 	brls	80004982 <_settingsHourInput+0x162>
8000494c:	49 28       	lddpc	r8,80004994 <_settingsHourInput+0x174>
8000494e:	b0 89       	st.b	r8[0x0],r9
80004950:	30 17       	mov	r7,1
80004952:	49 28       	lddpc	r8,80004998 <_settingsHourInput+0x178>
80004954:	b0 87       	st.b	r8[0x0],r7
80004956:	49 48       	lddpc	r8,800049a4 <_settingsHourInput+0x184>
80004958:	49 29       	lddpc	r9,800049a0 <_settingsHourInput+0x180>
8000495a:	13 cb       	ld.ub	r11,r9[0x4]
8000495c:	f7 db c0 27 	bfextu	r11,r11,0x1,0x7
80004960:	11 ca       	ld.ub	r10,r8[0x4]
80004962:	f5 db d0 27 	bfins	r10,r11,0x1,0x7
80004966:	b0 ca       	st.b	r8[0x4],r10
80004968:	13 da       	ld.ub	r10,r9[0x5]
8000496a:	f5 da c0 27 	bfextu	r10,r10,0x1,0x7
8000496e:	11 d9       	ld.ub	r9,r8[0x5]
80004970:	f3 da d0 27 	bfins	r9,r10,0x1,0x7
80004974:	b0 d9       	st.b	r8[0x5],r9
80004976:	f0 1f 00 0d 	mcall	800049a8 <_settingsHourInput+0x188>
8000497a:	f0 1f 00 0d 	mcall	800049ac <_settingsHourInput+0x18c>
8000497e:	48 88       	lddpc	r8,8000499c <_settingsHourInput+0x17c>
80004980:	b0 87       	st.b	r8[0x0],r7
80004982:	30 09       	mov	r9,0
80004984:	48 28       	lddpc	r8,8000498c <_settingsHourInput+0x16c>
80004986:	b0 89       	st.b	r8[0x0],r9
80004988:	e3 cd 80 80 	ldm	sp++,r7,pc
8000498c:	00 00       	add	r0,r0
8000498e:	07 fc       	ld.ub	r12,r3[0x7]
80004990:	00 00       	add	r0,r0
80004992:	07 fa       	ld.ub	r10,r3[0x7]
80004994:	00 00       	add	r0,r0
80004996:	07 ff       	ld.ub	pc,r3[0x7]
80004998:	00 00       	add	r0,r0
8000499a:	08 00       	add	r0,r4
8000499c:	00 00       	add	r0,r0
8000499e:	04 4f       	or	pc,r2
800049a0:	00 00       	add	r0,r0
800049a2:	08 01       	add	r1,r4
800049a4:	00 00       	add	r0,r0
800049a6:	0a f3       	st.b	--r5,r3
800049a8:	80 00       	ld.sh	r0,r0[0x0]
800049aa:	6c 20       	ld.w	r0,r6[0x8]
800049ac:	80 00       	ld.sh	r0,r0[0x0]
800049ae:	6b 3c       	ld.w	r12,r5[0x4c]

800049b0 <_musicPlayerInput>:
800049b0:	d4 01       	pushm	lr
800049b2:	49 a8       	lddpc	r8,80004a18 <_musicPlayerInput+0x68>
800049b4:	11 88       	ld.ub	r8,r8[0x0]
800049b6:	58 08       	cp.w	r8,0
800049b8:	c2 e0       	breq	80004a14 <_musicPlayerInput+0x64>
800049ba:	30 19       	mov	r9,1
800049bc:	49 8a       	lddpc	r10,80004a1c <_musicPlayerInput+0x6c>
800049be:	b4 89       	st.b	r10[0x0],r9
800049c0:	f2 08 18 00 	cp.b	r8,r9
800049c4:	c0 91       	brne	800049d6 <_musicPlayerInput+0x26>
800049c6:	f0 1f 00 17 	mcall	80004a20 <_musicPlayerInput+0x70>
800049ca:	30 18       	mov	r8,1
800049cc:	49 69       	lddpc	r9,80004a24 <_musicPlayerInput+0x74>
800049ce:	b2 88       	st.b	r9[0x0],r8
800049d0:	49 69       	lddpc	r9,80004a28 <_musicPlayerInput+0x78>
800049d2:	b2 88       	st.b	r9[0x0],r8
800049d4:	c1 d8       	rjmp	80004a0e <_musicPlayerInput+0x5e>
800049d6:	30 29       	mov	r9,2
800049d8:	f2 08 18 00 	cp.b	r8,r9
800049dc:	c0 81       	brne	800049ec <_musicPlayerInput+0x3c>
800049de:	49 48       	lddpc	r8,80004a2c <_musicPlayerInput+0x7c>
800049e0:	11 8c       	ld.ub	r12,r8[0x0]
800049e2:	20 ac       	sub	r12,10
800049e4:	5c 5c       	castu.b	r12
800049e6:	f0 1f 00 13 	mcall	80004a30 <_musicPlayerInput+0x80>
800049ea:	c1 28       	rjmp	80004a0e <_musicPlayerInput+0x5e>
800049ec:	30 39       	mov	r9,3
800049ee:	f2 08 18 00 	cp.b	r8,r9
800049f2:	c0 81       	brne	80004a02 <_musicPlayerInput+0x52>
800049f4:	48 e8       	lddpc	r8,80004a2c <_musicPlayerInput+0x7c>
800049f6:	11 8c       	ld.ub	r12,r8[0x0]
800049f8:	2f 6c       	sub	r12,-10
800049fa:	5c 5c       	castu.b	r12
800049fc:	f0 1f 00 0d 	mcall	80004a30 <_musicPlayerInput+0x80>
80004a00:	c0 78       	rjmp	80004a0e <_musicPlayerInput+0x5e>
80004a02:	30 49       	mov	r9,4
80004a04:	f2 08 18 00 	cp.b	r8,r9
80004a08:	c0 31       	brne	80004a0e <_musicPlayerInput+0x5e>
80004a0a:	f0 1f 00 0b 	mcall	80004a34 <_musicPlayerInput+0x84>
80004a0e:	30 09       	mov	r9,0
80004a10:	48 28       	lddpc	r8,80004a18 <_musicPlayerInput+0x68>
80004a12:	b0 89       	st.b	r8[0x0],r9
80004a14:	d8 02       	popm	pc
80004a16:	00 00       	add	r0,r0
80004a18:	00 00       	add	r0,r0
80004a1a:	07 fc       	ld.ub	r12,r3[0x7]
80004a1c:	00 00       	add	r0,r0
80004a1e:	07 fa       	ld.ub	r10,r3[0x7]
80004a20:	80 00       	ld.sh	r0,r0[0x0]
80004a22:	3c d0       	mov	r0,-51
80004a24:	00 00       	add	r0,r0
80004a26:	07 ff       	ld.ub	pc,r3[0x7]
80004a28:	00 00       	add	r0,r0
80004a2a:	08 00       	add	r0,r4
80004a2c:	00 00       	add	r0,r0
80004a2e:	07 f4       	ld.ub	r4,r3[0x7]
80004a30:	80 00       	ld.sh	r0,r0[0x0]
80004a32:	3d f8       	mov	r8,-33
80004a34:	80 00       	ld.sh	r0,r0[0x0]
80004a36:	3c 94       	mov	r4,-55

80004a38 <_mainInput>:
80004a38:	d4 01       	pushm	lr
80004a3a:	20 6d       	sub	sp,24
80004a3c:	4b 78       	lddpc	r8,80004b18 <_mainInput+0xe0>
80004a3e:	11 88       	ld.ub	r8,r8[0x0]
80004a40:	58 08       	cp.w	r8,0
80004a42:	c6 90       	breq	80004b14 <_mainInput+0xdc>
80004a44:	30 1a       	mov	r10,1
80004a46:	4b 69       	lddpc	r9,80004b1c <_mainInput+0xe4>
80004a48:	b2 8a       	st.b	r9[0x0],r10
80004a4a:	30 49       	mov	r9,4
80004a4c:	f2 08 18 00 	cp.b	r8,r9
80004a50:	c1 91       	brne	80004a82 <_mainInput+0x4a>
80004a52:	4b 48       	lddpc	r8,80004b20 <_mainInput+0xe8>
80004a54:	11 88       	ld.ub	r8,r8[0x0]
80004a56:	58 08       	cp.w	r8,0
80004a58:	c0 41       	brne	80004a60 <_mainInput+0x28>
80004a5a:	4b 38       	lddpc	r8,80004b24 <_mainInput+0xec>
80004a5c:	b0 8a       	st.b	r8[0x0],r10
80004a5e:	c0 c8       	rjmp	80004a76 <_mainInput+0x3e>
80004a60:	30 19       	mov	r9,1
80004a62:	f2 08 18 00 	cp.b	r8,r9
80004a66:	c0 51       	brne	80004a70 <_mainInput+0x38>
80004a68:	30 29       	mov	r9,2
80004a6a:	4a f8       	lddpc	r8,80004b24 <_mainInput+0xec>
80004a6c:	b0 89       	st.b	r8[0x0],r9
80004a6e:	c0 48       	rjmp	80004a76 <_mainInput+0x3e>
80004a70:	30 39       	mov	r9,3
80004a72:	4a d8       	lddpc	r8,80004b24 <_mainInput+0xec>
80004a74:	b0 89       	st.b	r8[0x0],r9
80004a76:	30 18       	mov	r8,1
80004a78:	4a c9       	lddpc	r9,80004b28 <_mainInput+0xf0>
80004a7a:	b2 88       	st.b	r9[0x0],r8
80004a7c:	4a c9       	lddpc	r9,80004b2c <_mainInput+0xf4>
80004a7e:	b2 88       	st.b	r9[0x0],r8
80004a80:	c4 78       	rjmp	80004b0e <_mainInput+0xd6>
80004a82:	30 29       	mov	r9,2
80004a84:	f2 08 18 00 	cp.b	r8,r9
80004a88:	c2 11       	brne	80004aca <_mainInput+0x92>
80004a8a:	4a 68       	lddpc	r8,80004b20 <_mainInput+0xe8>
80004a8c:	11 88       	ld.ub	r8,r8[0x0]
80004a8e:	f2 08 18 00 	cp.b	r8,r9
80004a92:	c0 31       	brne	80004a98 <_mainInput+0x60>
80004a94:	30 08       	mov	r8,0
80004a96:	c0 28       	rjmp	80004a9a <_mainInput+0x62>
80004a98:	2f f8       	sub	r8,-1
80004a9a:	4a 29       	lddpc	r9,80004b20 <_mainInput+0xe8>
80004a9c:	b2 88       	st.b	r9[0x0],r8
80004a9e:	30 19       	mov	r9,1
80004aa0:	4a 48       	lddpc	r8,80004b30 <_mainInput+0xf8>
80004aa2:	b0 89       	st.b	r8[0x0],r9
80004aa4:	30 0b       	mov	r11,0
80004aa6:	50 0b       	stdsp	sp[0x0],r11
80004aa8:	33 28       	mov	r8,50
80004aaa:	e0 69 01 40 	mov	r9,320
80004aae:	32 8a       	mov	r10,40
80004ab0:	fa cc ff fc 	sub	r12,sp,-4
80004ab4:	f0 1f 00 20 	mcall	80004b34 <_mainInput+0xfc>
80004ab8:	40 08       	lddsp	r8,sp[0x0]
80004aba:	1a d8       	st.w	--sp,r8
80004abc:	fa e8 00 08 	ld.d	r8,sp[8]
80004ac0:	bb 29       	st.d	--sp,r8
80004ac2:	f0 1f 00 1e 	mcall	80004b38 <_mainInput+0x100>
80004ac6:	2f dd       	sub	sp,-12
80004ac8:	c2 38       	rjmp	80004b0e <_mainInput+0xd6>
80004aca:	30 39       	mov	r9,3
80004acc:	f2 08 18 00 	cp.b	r8,r9
80004ad0:	c1 f1       	brne	80004b0e <_mainInput+0xd6>
80004ad2:	49 48       	lddpc	r8,80004b20 <_mainInput+0xe8>
80004ad4:	11 88       	ld.ub	r8,r8[0x0]
80004ad6:	58 08       	cp.w	r8,0
80004ad8:	c0 31       	brne	80004ade <_mainInput+0xa6>
80004ada:	30 28       	mov	r8,2
80004adc:	c0 28       	rjmp	80004ae0 <_mainInput+0xa8>
80004ade:	20 18       	sub	r8,1
80004ae0:	49 09       	lddpc	r9,80004b20 <_mainInput+0xe8>
80004ae2:	b2 88       	st.b	r9[0x0],r8
80004ae4:	30 19       	mov	r9,1
80004ae6:	49 38       	lddpc	r8,80004b30 <_mainInput+0xf8>
80004ae8:	b0 89       	st.b	r8[0x0],r9
80004aea:	30 0b       	mov	r11,0
80004aec:	50 3b       	stdsp	sp[0xc],r11
80004aee:	33 28       	mov	r8,50
80004af0:	e0 69 01 40 	mov	r9,320
80004af4:	32 8a       	mov	r10,40
80004af6:	fa cc ff f0 	sub	r12,sp,-16
80004afa:	f0 1f 00 0f 	mcall	80004b34 <_mainInput+0xfc>
80004afe:	40 38       	lddsp	r8,sp[0xc]
80004b00:	1a d8       	st.w	--sp,r8
80004b02:	fa e8 00 14 	ld.d	r8,sp[20]
80004b06:	bb 29       	st.d	--sp,r8
80004b08:	f0 1f 00 0c 	mcall	80004b38 <_mainInput+0x100>
80004b0c:	2f dd       	sub	sp,-12
80004b0e:	30 09       	mov	r9,0
80004b10:	48 28       	lddpc	r8,80004b18 <_mainInput+0xe0>
80004b12:	b0 89       	st.b	r8[0x0],r9
80004b14:	2f ad       	sub	sp,-24
80004b16:	d8 02       	popm	pc
80004b18:	00 00       	add	r0,r0
80004b1a:	07 fc       	ld.ub	r12,r3[0x7]
80004b1c:	00 00       	add	r0,r0
80004b1e:	07 fa       	ld.ub	r10,r3[0x7]
80004b20:	00 00       	add	r0,r0
80004b22:	07 fe       	ld.ub	lr,r3[0x7]
80004b24:	00 00       	add	r0,r0
80004b26:	07 ff       	ld.ub	pc,r3[0x7]
80004b28:	00 00       	add	r0,r0
80004b2a:	08 00       	add	r0,r4
80004b2c:	00 00       	add	r0,r0
80004b2e:	04 4f       	or	pc,r2
80004b30:	00 00       	add	r0,r0
80004b32:	04 6c       	and	r12,r2
80004b34:	80 00       	ld.sh	r0,r0[0x0]
80004b36:	5e 20       	reths	r0
80004b38:	80 00       	ld.sh	r0,r0[0x0]
80004b3a:	5f 94       	srgt	r4

80004b3c <_drawSettingsButton>:
80004b3c:	eb cd 40 c0 	pushm	r6-r7,lr
80004b40:	20 4d       	sub	sp,16
80004b42:	30 47       	mov	r7,4
80004b44:	0e 9a       	mov	r10,r7
80004b46:	4a 8b       	lddpc	r11,80004be4 <_drawSettingsButton+0xa8>
80004b48:	1a 9c       	mov	r12,sp
80004b4a:	f0 1f 00 28 	mcall	80004be8 <_drawSettingsButton+0xac>
80004b4e:	4a 86       	lddpc	r6,80004bec <_drawSettingsButton+0xb0>
80004b50:	20 1d       	sub	sp,4
80004b52:	0e 9a       	mov	r10,r7
80004b54:	0c 9b       	mov	r11,r6
80004b56:	1a 9c       	mov	r12,sp
80004b58:	f0 1f 00 24 	mcall	80004be8 <_drawSettingsButton+0xac>
80004b5c:	40 18       	lddsp	r8,sp[0x4]
80004b5e:	1a d8       	st.w	--sp,r8
80004b60:	0e 9a       	mov	r10,r7
80004b62:	4a 4b       	lddpc	r11,80004bf0 <_drawSettingsButton+0xb4>
80004b64:	4a 4c       	lddpc	r12,80004bf4 <_drawSettingsButton+0xb8>
80004b66:	f0 1f 00 25 	mcall	80004bf8 <_drawSettingsButton+0xbc>
80004b6a:	0e 9a       	mov	r10,r7
80004b6c:	4a 4b       	lddpc	r11,80004bfc <_drawSettingsButton+0xc0>
80004b6e:	fa cc ff f4 	sub	r12,sp,-12
80004b72:	f0 1f 00 1e 	mcall	80004be8 <_drawSettingsButton+0xac>
80004b76:	20 1d       	sub	sp,4
80004b78:	0e 9a       	mov	r10,r7
80004b7a:	0c 9b       	mov	r11,r6
80004b7c:	1a 9c       	mov	r12,sp
80004b7e:	f0 1f 00 1b 	mcall	80004be8 <_drawSettingsButton+0xac>
80004b82:	40 48       	lddsp	r8,sp[0x10]
80004b84:	1a d8       	st.w	--sp,r8
80004b86:	0e 9a       	mov	r10,r7
80004b88:	49 eb       	lddpc	r11,80004c00 <_drawSettingsButton+0xc4>
80004b8a:	49 fc       	lddpc	r12,80004c04 <_drawSettingsButton+0xc8>
80004b8c:	f0 1f 00 1b 	mcall	80004bf8 <_drawSettingsButton+0xbc>
80004b90:	0e 9a       	mov	r10,r7
80004b92:	49 eb       	lddpc	r11,80004c08 <_drawSettingsButton+0xcc>
80004b94:	fa cc ff e8 	sub	r12,sp,-24
80004b98:	f0 1f 00 14 	mcall	80004be8 <_drawSettingsButton+0xac>
80004b9c:	20 1d       	sub	sp,4
80004b9e:	0e 9a       	mov	r10,r7
80004ba0:	0c 9b       	mov	r11,r6
80004ba2:	1a 9c       	mov	r12,sp
80004ba4:	f0 1f 00 11 	mcall	80004be8 <_drawSettingsButton+0xac>
80004ba8:	40 78       	lddsp	r8,sp[0x1c]
80004baa:	1a d8       	st.w	--sp,r8
80004bac:	30 5a       	mov	r10,5
80004bae:	49 8b       	lddpc	r11,80004c0c <_drawSettingsButton+0xd0>
80004bb0:	49 8c       	lddpc	r12,80004c10 <_drawSettingsButton+0xd4>
80004bb2:	f0 1f 00 12 	mcall	80004bf8 <_drawSettingsButton+0xbc>
80004bb6:	0e 9a       	mov	r10,r7
80004bb8:	49 7b       	lddpc	r11,80004c14 <_drawSettingsButton+0xd8>
80004bba:	fa cc ff dc 	sub	r12,sp,-36
80004bbe:	f0 1f 00 0b 	mcall	80004be8 <_drawSettingsButton+0xac>
80004bc2:	20 1d       	sub	sp,4
80004bc4:	0e 9a       	mov	r10,r7
80004bc6:	0c 9b       	mov	r11,r6
80004bc8:	1a 9c       	mov	r12,sp
80004bca:	f0 1f 00 08 	mcall	80004be8 <_drawSettingsButton+0xac>
80004bce:	40 a8       	lddsp	r8,sp[0x28]
80004bd0:	1a d8       	st.w	--sp,r8
80004bd2:	30 2a       	mov	r10,2
80004bd4:	49 1b       	lddpc	r11,80004c18 <_drawSettingsButton+0xdc>
80004bd6:	49 2c       	lddpc	r12,80004c1c <_drawSettingsButton+0xe0>
80004bd8:	f0 1f 00 08 	mcall	80004bf8 <_drawSettingsButton+0xbc>
80004bdc:	2f 8d       	sub	sp,-32
80004bde:	2f cd       	sub	sp,-16
80004be0:	e3 cd 80 c0 	ldm	sp++,r6-r7,pc
80004be4:	80 00       	ld.sh	r0,r0[0x0]
80004be6:	ae e0       	st.b	r7[0x6],r0
80004be8:	80 00       	ld.sh	r0,r0[0x0]
80004bea:	76 9c       	ld.w	r12,r11[0x24]
80004bec:	00 00       	add	r0,r0
80004bee:	04 0c       	add	r12,r2
80004bf0:	80 00       	ld.sh	r0,r0[0x0]
80004bf2:	ad 58       	asr	r8,0xd
80004bf4:	80 00       	ld.sh	r0,r0[0x0]
80004bf6:	ad 60       	lsl	r0,0xc
80004bf8:	80 00       	ld.sh	r0,r0[0x0]
80004bfa:	40 b8       	lddsp	r8,sp[0x2c]
80004bfc:	80 00       	ld.sh	r0,r0[0x0]
80004bfe:	ac c2       	st.b	r6[0x4],r2
80004c00:	80 00       	ld.sh	r0,r0[0x0]
80004c02:	ad 64       	lsl	r4,0xc
80004c04:	80 00       	ld.sh	r0,r0[0x0]
80004c06:	ad 6c       	lsl	r12,0xc
80004c08:	80 00       	ld.sh	r0,r0[0x0]
80004c0a:	ac fa       	st.b	r6[0x7],r10
80004c0c:	80 00       	ld.sh	r0,r0[0x0]
80004c0e:	ad 70       	lsl	r0,0xd
80004c10:	80 00       	ld.sh	r0,r0[0x0]
80004c12:	ad 78       	lsl	r8,0xd
80004c14:	80 00       	ld.sh	r0,r0[0x0]
80004c16:	ac c6       	st.b	r6[0x4],r6
80004c18:	80 00       	ld.sh	r0,r0[0x0]
80004c1a:	ad 7c       	lsl	r12,0xd
80004c1c:	80 00       	ld.sh	r0,r0[0x0]
80004c1e:	ad 80       	lsr	r0,0xc

80004c20 <_settingsDateMenu>:
80004c20:	eb cd 40 e0 	pushm	r5-r7,lr
80004c24:	21 3d       	sub	sp,76
80004c26:	58 0c       	cp.w	r12,0
80004c28:	c6 30       	breq	80004cee <_settingsDateMenu+0xce>
80004c2a:	30 06       	mov	r6,0
80004c2c:	50 56       	stdsp	sp[0x14],r6
80004c2e:	e0 68 00 f0 	mov	r8,240
80004c32:	e0 69 01 40 	mov	r9,320
80004c36:	0c 9a       	mov	r10,r6
80004c38:	0c 9b       	mov	r11,r6
80004c3a:	fa cc ff e8 	sub	r12,sp,-24
80004c3e:	f0 1f 00 ab 	mcall	80004ee8 <_settingsDateMenu+0x2c8>
80004c42:	40 58       	lddsp	r8,sp[0x14]
80004c44:	1a d8       	st.w	--sp,r8
80004c46:	fa e8 00 1c 	ld.d	r8,sp[28]
80004c4a:	bb 29       	st.d	--sp,r8
80004c4c:	f0 1f 00 a8 	mcall	80004eec <_settingsDateMenu+0x2cc>
80004c50:	f0 1f 00 a8 	mcall	80004ef0 <_settingsDateMenu+0x2d0>
80004c54:	30 47       	mov	r7,4
80004c56:	0e 9a       	mov	r10,r7
80004c58:	fe fb 02 9c 	ld.w	r11,pc[668]
80004c5c:	fa cc ff d4 	sub	r12,sp,-44
80004c60:	f0 1f 00 a6 	mcall	80004ef8 <_settingsDateMenu+0x2d8>
80004c64:	40 b8       	lddsp	r8,sp[0x2c]
80004c66:	1a d8       	st.w	--sp,r8
80004c68:	f0 1f 00 a5 	mcall	80004efc <_settingsDateMenu+0x2dc>
80004c6c:	fe f5 02 94 	ld.w	r5,pc[660]
80004c70:	20 1d       	sub	sp,4
80004c72:	0e 9a       	mov	r10,r7
80004c74:	0a 9b       	mov	r11,r5
80004c76:	1a 9c       	mov	r12,sp
80004c78:	f0 1f 00 a0 	mcall	80004ef8 <_settingsDateMenu+0x2d8>
80004c7c:	30 1a       	mov	r10,1
80004c7e:	31 0b       	mov	r11,16
80004c80:	fe fc 02 84 	ld.w	r12,pc[644]
80004c84:	f0 1f 00 a1 	mcall	80004f08 <_settingsDateMenu+0x2e8>
80004c88:	fe f8 02 84 	ld.w	r8,pc[644]
80004c8c:	b0 86       	st.b	r8[0x0],r6
80004c8e:	0e 9a       	mov	r10,r7
80004c90:	fe fb 02 80 	ld.w	r11,pc[640]
80004c94:	fa cc ff c8 	sub	r12,sp,-56
80004c98:	f0 1f 00 98 	mcall	80004ef8 <_settingsDateMenu+0x2d8>
80004c9c:	40 e8       	lddsp	r8,sp[0x38]
80004c9e:	1a d8       	st.w	--sp,r8
80004ca0:	f0 1f 00 97 	mcall	80004efc <_settingsDateMenu+0x2dc>
80004ca4:	20 1d       	sub	sp,4
80004ca6:	0e 9a       	mov	r10,r7
80004ca8:	0a 9b       	mov	r11,r5
80004caa:	1a 9c       	mov	r12,sp
80004cac:	f0 1f 00 93 	mcall	80004ef8 <_settingsDateMenu+0x2d8>
80004cb0:	30 1a       	mov	r10,1
80004cb2:	30 8b       	mov	r11,8
80004cb4:	fe fc 02 60 	ld.w	r12,pc[608]
80004cb8:	f0 1f 00 94 	mcall	80004f08 <_settingsDateMenu+0x2e8>
80004cbc:	20 1d       	sub	sp,4
80004cbe:	0e 9a       	mov	r10,r7
80004cc0:	0a 9b       	mov	r11,r5
80004cc2:	1a 9c       	mov	r12,sp
80004cc4:	f0 1f 00 8d 	mcall	80004ef8 <_settingsDateMenu+0x2d8>
80004cc8:	30 1a       	mov	r10,1
80004cca:	30 8b       	mov	r11,8
80004ccc:	fe fc 02 4c 	ld.w	r12,pc[588]
80004cd0:	f0 1f 00 8e 	mcall	80004f08 <_settingsDateMenu+0x2e8>
80004cd4:	2f 9d       	sub	sp,-28
80004cd6:	0e 9a       	mov	r10,r7
80004cd8:	0a 9b       	mov	r11,r5
80004cda:	1a 9c       	mov	r12,sp
80004cdc:	f0 1f 00 87 	mcall	80004ef8 <_settingsDateMenu+0x2d8>
80004ce0:	30 1a       	mov	r10,1
80004ce2:	30 6b       	mov	r11,6
80004ce4:	fe fc 02 38 	ld.w	r12,pc[568]
80004ce8:	f0 1f 00 88 	mcall	80004f08 <_settingsDateMenu+0x2e8>
80004cec:	0e 0d       	add	sp,r7
80004cee:	fe f8 02 32 	ld.w	r8,pc[562]
80004cf2:	11 8a       	ld.ub	r10,r8[0x0]
80004cf4:	e0 67 85 1f 	mov	r7,34079
80004cf8:	ea 17 51 eb 	orh	r7,0x51eb
80004cfc:	f4 07 06 46 	mulu.d	r6,r10,r7
80004d00:	0e 99       	mov	r9,r7
80004d02:	a5 99       	lsr	r9,0x5
80004d04:	2d 09       	sub	r9,-48
80004d06:	fb 69 00 10 	st.b	sp[16],r9
80004d0a:	e0 69 cc cd 	mov	r9,52429
80004d0e:	ea 19 cc cc 	orh	r9,0xcccc
80004d12:	f4 09 06 46 	mulu.d	r6,r10,r9
80004d16:	0e 9b       	mov	r11,r7
80004d18:	a3 9b       	lsr	r11,0x3
80004d1a:	f9 db c0 08 	bfextu	r12,r11,0x0,0x8
80004d1e:	f8 09 06 46 	mulu.d	r6,r12,r9
80004d22:	a3 97       	lsr	r7,0x3
80004d24:	ee 07 00 27 	add	r7,r7,r7<<0x2
80004d28:	f8 07 01 1c 	sub	r12,r12,r7<<0x1
80004d2c:	2d 0c       	sub	r12,-48
80004d2e:	fb 6c 00 11 	st.b	sp[17],r12
80004d32:	f6 0b 00 2b 	add	r11,r11,r11<<0x2
80004d36:	f4 0b 01 1a 	sub	r10,r10,r11<<0x1
80004d3a:	2d 0a       	sub	r10,-48
80004d3c:	fb 6a 00 12 	st.b	sp[18],r10
80004d40:	11 9a       	ld.ub	r10,r8[0x1]
80004d42:	f4 09 06 46 	mulu.d	r6,r10,r9
80004d46:	0e 99       	mov	r9,r7
80004d48:	a3 99       	lsr	r9,0x3
80004d4a:	f2 cb ff d0 	sub	r11,r9,-48
80004d4e:	fb 6b 00 0c 	st.b	sp[12],r11
80004d52:	f2 09 00 29 	add	r9,r9,r9<<0x2
80004d56:	f4 09 01 1a 	sub	r10,r10,r9<<0x1
80004d5a:	2d 0a       	sub	r10,-48
80004d5c:	fb 6a 00 0d 	st.b	sp[13],r10
80004d60:	11 a9       	ld.ub	r9,r8[0x2]
80004d62:	f3 d9 c0 46 	bfextu	r9,r9,0x2,0x6
80004d66:	e0 6b 66 67 	mov	r11,26215
80004d6a:	ea 1b 66 66 	orh	r11,0x6666
80004d6e:	f2 0b 04 4a 	muls.d	r10,r9,r11
80004d72:	f6 08 14 02 	asr	r8,r11,0x2
80004d76:	f0 ca ff d0 	sub	r10,r8,-48
80004d7a:	fb 6a 00 08 	st.b	sp[8],r10
80004d7e:	f0 08 00 28 	add	r8,r8,r8<<0x2
80004d82:	f2 08 01 19 	sub	r9,r9,r8<<0x1
80004d86:	2d 09       	sub	r9,-48
80004d88:	fb 69 00 09 	st.b	sp[9],r9
80004d8c:	4e 68       	lddpc	r8,80004f24 <_settingsDateMenu+0x304>
80004d8e:	11 88       	ld.ub	r8,r8[0x0]
80004d90:	f1 d8 c0 01 	bfextu	r8,r8,0x0,0x1
80004d94:	c0 90       	breq	80004da6 <_settingsDateMenu+0x186>
80004d96:	30 4a       	mov	r10,4
80004d98:	4d ab       	lddpc	r11,80004f00 <_settingsDateMenu+0x2e0>
80004d9a:	1a 9c       	mov	r12,sp
80004d9c:	f0 1f 00 57 	mcall	80004ef8 <_settingsDateMenu+0x2d8>
80004da0:	30 08       	mov	r8,0
80004da2:	50 18       	stdsp	sp[0x4],r8
80004da4:	c0 98       	rjmp	80004db6 <_settingsDateMenu+0x196>
80004da6:	30 4a       	mov	r10,4
80004da8:	4d 6b       	lddpc	r11,80004f00 <_settingsDateMenu+0x2e0>
80004daa:	fa 0a 00 0c 	add	r12,sp,r10
80004dae:	f0 1f 00 53 	mcall	80004ef8 <_settingsDateMenu+0x2d8>
80004db2:	30 08       	mov	r8,0
80004db4:	50 08       	stdsp	sp[0x0],r8
80004db6:	e0 68 00 d7 	mov	r8,215
80004dba:	e0 69 00 96 	mov	r9,150
80004dbe:	e0 6a 00 c8 	mov	r10,200
80004dc2:	37 8b       	mov	r11,120
80004dc4:	fa cc ff d8 	sub	r12,sp,-40
80004dc8:	f0 1f 00 48 	mcall	80004ee8 <_settingsDateMenu+0x2c8>
80004dcc:	40 08       	lddsp	r8,sp[0x0]
80004dce:	1a d8       	st.w	--sp,r8
80004dd0:	fa e8 00 2c 	ld.d	r8,sp[44]
80004dd4:	bb 29       	st.d	--sp,r8
80004dd6:	f0 1f 00 46 	mcall	80004eec <_settingsDateMenu+0x2cc>
80004dda:	30 4a       	mov	r10,4
80004ddc:	4d 3b       	lddpc	r11,80004f28 <_settingsDateMenu+0x308>
80004dde:	fa cc ff c4 	sub	r12,sp,-60
80004de2:	f0 1f 00 46 	mcall	80004ef8 <_settingsDateMenu+0x2d8>
80004de6:	40 48       	lddsp	r8,sp[0x10]
80004de8:	1a d8       	st.w	--sp,r8
80004dea:	41 08       	lddsp	r8,sp[0x40]
80004dec:	1a d8       	st.w	--sp,r8
80004dee:	30 0a       	mov	r10,0
80004df0:	30 3b       	mov	r11,3
80004df2:	fa cc ff dc 	sub	r12,sp,-36
80004df6:	f0 1f 00 4e 	mcall	80004f2c <_settingsDateMenu+0x30c>
80004dfa:	4c b8       	lddpc	r8,80004f24 <_settingsDateMenu+0x304>
80004dfc:	11 88       	ld.ub	r8,r8[0x0]
80004dfe:	e2 18 00 02 	andl	r8,0x2,COH
80004e02:	2f bd       	sub	sp,-20
80004e04:	58 08       	cp.w	r8,0
80004e06:	c0 90       	breq	80004e18 <_settingsDateMenu+0x1f8>
80004e08:	30 4a       	mov	r10,4
80004e0a:	4b eb       	lddpc	r11,80004f00 <_settingsDateMenu+0x2e0>
80004e0c:	1a 9c       	mov	r12,sp
80004e0e:	f0 1f 00 3b 	mcall	80004ef8 <_settingsDateMenu+0x2d8>
80004e12:	30 08       	mov	r8,0
80004e14:	50 18       	stdsp	sp[0x4],r8
80004e16:	c0 98       	rjmp	80004e28 <_settingsDateMenu+0x208>
80004e18:	30 4a       	mov	r10,4
80004e1a:	4b ab       	lddpc	r11,80004f00 <_settingsDateMenu+0x2e0>
80004e1c:	fa 0a 00 0c 	add	r12,sp,r10
80004e20:	f0 1f 00 36 	mcall	80004ef8 <_settingsDateMenu+0x2d8>
80004e24:	30 08       	mov	r8,0
80004e26:	50 08       	stdsp	sp[0x0],r8
80004e28:	e0 68 00 c3 	mov	r8,195
80004e2c:	e0 69 00 8c 	mov	r9,140
80004e30:	e0 6a 00 b4 	mov	r10,180
80004e34:	37 8b       	mov	r11,120
80004e36:	fa cc ff cc 	sub	r12,sp,-52
80004e3a:	f0 1f 00 2c 	mcall	80004ee8 <_settingsDateMenu+0x2c8>
80004e3e:	40 08       	lddsp	r8,sp[0x0]
80004e40:	1a d8       	st.w	--sp,r8
80004e42:	fa e8 00 38 	ld.d	r8,sp[56]
80004e46:	bb 29       	st.d	--sp,r8
80004e48:	f0 1f 00 29 	mcall	80004eec <_settingsDateMenu+0x2cc>
80004e4c:	30 4a       	mov	r10,4
80004e4e:	4b 9b       	lddpc	r11,80004f30 <_settingsDateMenu+0x310>
80004e50:	fa cc ff b8 	sub	r12,sp,-72
80004e54:	f0 1f 00 29 	mcall	80004ef8 <_settingsDateMenu+0x2d8>
80004e58:	40 48       	lddsp	r8,sp[0x10]
80004e5a:	1a d8       	st.w	--sp,r8
80004e5c:	41 38       	lddsp	r8,sp[0x4c]
80004e5e:	1a d8       	st.w	--sp,r8
80004e60:	30 0a       	mov	r10,0
80004e62:	30 2b       	mov	r11,2
80004e64:	fa cc ff e0 	sub	r12,sp,-32
80004e68:	f0 1f 00 31 	mcall	80004f2c <_settingsDateMenu+0x30c>
80004e6c:	4a e8       	lddpc	r8,80004f24 <_settingsDateMenu+0x304>
80004e6e:	11 88       	ld.ub	r8,r8[0x0]
80004e70:	e2 18 00 04 	andl	r8,0x4,COH
80004e74:	2f bd       	sub	sp,-20
80004e76:	58 08       	cp.w	r8,0
80004e78:	c0 90       	breq	80004e8a <_settingsDateMenu+0x26a>
80004e7a:	30 4a       	mov	r10,4
80004e7c:	4a 1b       	lddpc	r11,80004f00 <_settingsDateMenu+0x2e0>
80004e7e:	1a 9c       	mov	r12,sp
80004e80:	f0 1f 00 1e 	mcall	80004ef8 <_settingsDateMenu+0x2d8>
80004e84:	30 08       	mov	r8,0
80004e86:	50 18       	stdsp	sp[0x4],r8
80004e88:	c0 98       	rjmp	80004e9a <_settingsDateMenu+0x27a>
80004e8a:	30 4a       	mov	r10,4
80004e8c:	49 db       	lddpc	r11,80004f00 <_settingsDateMenu+0x2e0>
80004e8e:	fa 0a 00 0c 	add	r12,sp,r10
80004e92:	f0 1f 00 1a 	mcall	80004ef8 <_settingsDateMenu+0x2d8>
80004e96:	30 08       	mov	r8,0
80004e98:	50 08       	stdsp	sp[0x0],r8
80004e9a:	e0 68 00 af 	mov	r8,175
80004e9e:	e0 69 00 96 	mov	r9,150
80004ea2:	e0 6a 00 a0 	mov	r10,160
80004ea6:	36 4b       	mov	r11,100
80004ea8:	fa cc ff c0 	sub	r12,sp,-64
80004eac:	f0 1f 00 0f 	mcall	80004ee8 <_settingsDateMenu+0x2c8>
80004eb0:	40 08       	lddsp	r8,sp[0x0]
80004eb2:	1a d8       	st.w	--sp,r8
80004eb4:	fa e8 00 44 	ld.d	r8,sp[68]
80004eb8:	bb 29       	st.d	--sp,r8
80004eba:	f0 1f 00 0d 	mcall	80004eec <_settingsDateMenu+0x2cc>
80004ebe:	30 4a       	mov	r10,4
80004ec0:	49 db       	lddpc	r11,80004f34 <_settingsDateMenu+0x314>
80004ec2:	fa cc ff ac 	sub	r12,sp,-84
80004ec6:	f0 1f 00 0d 	mcall	80004ef8 <_settingsDateMenu+0x2d8>
80004eca:	40 48       	lddsp	r8,sp[0x10]
80004ecc:	1a d8       	st.w	--sp,r8
80004ece:	41 68       	lddsp	r8,sp[0x58]
80004ed0:	1a d8       	st.w	--sp,r8
80004ed2:	30 0a       	mov	r10,0
80004ed4:	30 2b       	mov	r11,2
80004ed6:	fa cc ff e4 	sub	r12,sp,-28
80004eda:	f0 1f 00 15 	mcall	80004f2c <_settingsDateMenu+0x30c>
80004ede:	2f bd       	sub	sp,-20
80004ee0:	2e dd       	sub	sp,-76
80004ee2:	e3 cd 80 e0 	ldm	sp++,r5-r7,pc
80004ee6:	00 00       	add	r0,r0
80004ee8:	80 00       	ld.sh	r0,r0[0x0]
80004eea:	5e 20       	reths	r0
80004eec:	80 00       	ld.sh	r0,r0[0x0]
80004eee:	5f 94       	srgt	r4
80004ef0:	80 00       	ld.sh	r0,r0[0x0]
80004ef2:	4b 3c       	lddpc	r12,80004fbc <_settingsHourMenu+0x84>
80004ef4:	80 00       	ld.sh	r0,r0[0x0]
80004ef6:	ac d2       	st.b	r6[0x5],r2
80004ef8:	80 00       	ld.sh	r0,r0[0x0]
80004efa:	76 9c       	ld.w	r12,r11[0x24]
80004efc:	80 00       	ld.sh	r0,r0[0x0]
80004efe:	3e d8       	mov	r8,-19
80004f00:	00 00       	add	r0,r0
80004f02:	04 0c       	add	r12,r2
80004f04:	80 00       	ld.sh	r0,r0[0x0]
80004f06:	ad 84       	lsr	r4,0xc
80004f08:	80 00       	ld.sh	r0,r0[0x0]
80004f0a:	42 54       	lddsp	r4,sp[0x94]
80004f0c:	00 00       	add	r0,r0
80004f0e:	08 00       	add	r0,r4
80004f10:	80 00       	ld.sh	r0,r0[0x0]
80004f12:	ac f6       	st.b	r6[0x7],r6
80004f14:	80 00       	ld.sh	r0,r0[0x0]
80004f16:	ad 98       	lsr	r8,0xd
80004f18:	80 00       	ld.sh	r0,r0[0x0]
80004f1a:	ad a4       	sbr	r4,0xc
80004f1c:	80 00       	ld.sh	r0,r0[0x0]
80004f1e:	ad b0       	sbr	r0,0xd
80004f20:	00 00       	add	r0,r0
80004f22:	08 01       	add	r1,r4
80004f24:	00 00       	add	r0,r0
80004f26:	04 4f       	or	pc,r2
80004f28:	80 00       	ld.sh	r0,r0[0x0]
80004f2a:	ac ce       	st.b	r6[0x4],lr
80004f2c:	80 00       	ld.sh	r0,r0[0x0]
80004f2e:	3e f4       	mov	r4,-17
80004f30:	80 00       	ld.sh	r0,r0[0x0]
80004f32:	ac e6       	st.b	r6[0x6],r6
80004f34:	80 00       	ld.sh	r0,r0[0x0]
80004f36:	ad 4e       	asr	lr,0xc

80004f38 <_settingsHourMenu>:
80004f38:	eb cd 40 e0 	pushm	r5-r7,lr
80004f3c:	20 fd       	sub	sp,60
80004f3e:	58 0c       	cp.w	r12,0
80004f40:	c5 00       	breq	80004fe0 <_settingsHourMenu+0xa8>
80004f42:	30 06       	mov	r6,0
80004f44:	50 46       	stdsp	sp[0x10],r6
80004f46:	e0 68 00 f0 	mov	r8,240
80004f4a:	e0 69 01 40 	mov	r9,320
80004f4e:	0c 9a       	mov	r10,r6
80004f50:	0c 9b       	mov	r11,r6
80004f52:	fa cc ff ec 	sub	r12,sp,-20
80004f56:	f0 1f 00 68 	mcall	800050f4 <_settingsHourMenu+0x1bc>
80004f5a:	40 48       	lddsp	r8,sp[0x10]
80004f5c:	1a d8       	st.w	--sp,r8
80004f5e:	fa e8 00 18 	ld.d	r8,sp[24]
80004f62:	bb 29       	st.d	--sp,r8
80004f64:	f0 1f 00 65 	mcall	800050f8 <_settingsHourMenu+0x1c0>
80004f68:	f0 1f 00 65 	mcall	800050fc <_settingsHourMenu+0x1c4>
80004f6c:	30 47       	mov	r7,4
80004f6e:	0e 9a       	mov	r10,r7
80004f70:	4e 4b       	lddpc	r11,80005100 <_settingsHourMenu+0x1c8>
80004f72:	fa cc ff d8 	sub	r12,sp,-40
80004f76:	f0 1f 00 64 	mcall	80005104 <_settingsHourMenu+0x1cc>
80004f7a:	40 a8       	lddsp	r8,sp[0x28]
80004f7c:	1a d8       	st.w	--sp,r8
80004f7e:	f0 1f 00 63 	mcall	80005108 <_settingsHourMenu+0x1d0>
80004f82:	4e 35       	lddpc	r5,8000510c <_settingsHourMenu+0x1d4>
80004f84:	20 1d       	sub	sp,4
80004f86:	0e 9a       	mov	r10,r7
80004f88:	0a 9b       	mov	r11,r5
80004f8a:	1a 9c       	mov	r12,sp
80004f8c:	f0 1f 00 5e 	mcall	80005104 <_settingsHourMenu+0x1cc>
80004f90:	30 1a       	mov	r10,1
80004f92:	31 0b       	mov	r11,16
80004f94:	4d fc       	lddpc	r12,80005110 <_settingsHourMenu+0x1d8>
80004f96:	f0 1f 00 60 	mcall	80005114 <_settingsHourMenu+0x1dc>
80004f9a:	4e 08       	lddpc	r8,80005118 <_settingsHourMenu+0x1e0>
80004f9c:	b0 86       	st.b	r8[0x0],r6
80004f9e:	0e 9a       	mov	r10,r7
80004fa0:	4d fb       	lddpc	r11,8000511c <_settingsHourMenu+0x1e4>
80004fa2:	fa cc ff cc 	sub	r12,sp,-52
80004fa6:	f0 1f 00 58 	mcall	80005104 <_settingsHourMenu+0x1cc>
80004faa:	40 d8       	lddsp	r8,sp[0x34]
80004fac:	1a d8       	st.w	--sp,r8
80004fae:	f0 1f 00 57 	mcall	80005108 <_settingsHourMenu+0x1d0>
80004fb2:	20 1d       	sub	sp,4
80004fb4:	0e 9a       	mov	r10,r7
80004fb6:	0a 9b       	mov	r11,r5
80004fb8:	1a 9c       	mov	r12,sp
80004fba:	f0 1f 00 53 	mcall	80005104 <_settingsHourMenu+0x1cc>
80004fbe:	30 1a       	mov	r10,1
80004fc0:	30 7b       	mov	r11,7
80004fc2:	4d 8c       	lddpc	r12,80005120 <_settingsHourMenu+0x1e8>
80004fc4:	f0 1f 00 54 	mcall	80005114 <_settingsHourMenu+0x1dc>
80004fc8:	20 1d       	sub	sp,4
80004fca:	0e 9a       	mov	r10,r7
80004fcc:	0a 9b       	mov	r11,r5
80004fce:	1a 9c       	mov	r12,sp
80004fd0:	f0 1f 00 4d 	mcall	80005104 <_settingsHourMenu+0x1cc>
80004fd4:	30 1a       	mov	r10,1
80004fd6:	30 9b       	mov	r11,9
80004fd8:	4d 3c       	lddpc	r12,80005124 <_settingsHourMenu+0x1ec>
80004fda:	f0 1f 00 4f 	mcall	80005114 <_settingsHourMenu+0x1dc>
80004fde:	2f 8d       	sub	sp,-32
80004fe0:	4d 28       	lddpc	r8,80005128 <_settingsHourMenu+0x1f0>
80004fe2:	11 c7       	ld.ub	r7,r8[0x4]
80004fe4:	ef d7 c0 27 	bfextu	r7,r7,0x1,0x7
80004fe8:	11 d6       	ld.ub	r6,r8[0x5]
80004fea:	ed d6 c0 27 	bfextu	r6,r6,0x1,0x7
80004fee:	4d 08       	lddpc	r8,8000512c <_settingsHourMenu+0x1f4>
80004ff0:	11 88       	ld.ub	r8,r8[0x0]
80004ff2:	f1 d8 c0 01 	bfextu	r8,r8,0x0,0x1
80004ff6:	c0 90       	breq	80005008 <_settingsHourMenu+0xd0>
80004ff8:	30 4a       	mov	r10,4
80004ffa:	4c 5b       	lddpc	r11,8000510c <_settingsHourMenu+0x1d4>
80004ffc:	1a 9c       	mov	r12,sp
80004ffe:	f0 1f 00 42 	mcall	80005104 <_settingsHourMenu+0x1cc>
80005002:	30 08       	mov	r8,0
80005004:	50 18       	stdsp	sp[0x4],r8
80005006:	c0 98       	rjmp	80005018 <_settingsHourMenu+0xe0>
80005008:	30 4a       	mov	r10,4
8000500a:	4c 1b       	lddpc	r11,8000510c <_settingsHourMenu+0x1d4>
8000500c:	fa 0a 00 0c 	add	r12,sp,r10
80005010:	f0 1f 00 3d 	mcall	80005104 <_settingsHourMenu+0x1cc>
80005014:	30 08       	mov	r8,0
80005016:	50 08       	stdsp	sp[0x0],r8
80005018:	e0 68 66 67 	mov	r8,26215
8000501c:	ea 18 66 66 	orh	r8,0x6666
80005020:	ec 08 04 4a 	muls.d	r10,r6,r8
80005024:	f6 09 14 02 	asr	r9,r11,0x2
80005028:	f2 ca ff d0 	sub	r10,r9,-48
8000502c:	fb 6a 00 08 	st.b	sp[8],r10
80005030:	f2 09 00 29 	add	r9,r9,r9<<0x2
80005034:	ec 09 01 16 	sub	r6,r6,r9<<0x1
80005038:	2d 06       	sub	r6,-48
8000503a:	fb 66 00 09 	st.b	sp[9],r6
8000503e:	ee 08 04 48 	muls.d	r8,r7,r8
80005042:	f2 08 14 02 	asr	r8,r9,0x2
80005046:	f0 c9 ff d0 	sub	r9,r8,-48
8000504a:	fb 69 00 0c 	st.b	sp[12],r9
8000504e:	f0 08 00 28 	add	r8,r8,r8<<0x2
80005052:	ee 08 01 17 	sub	r7,r7,r8<<0x1
80005056:	2d 07       	sub	r7,-48
80005058:	fb 67 00 0d 	st.b	sp[13],r7
8000505c:	e0 68 00 d7 	mov	r8,215
80005060:	e0 69 00 82 	mov	r9,130
80005064:	e0 6a 00 c8 	mov	r10,200
80005068:	36 eb       	mov	r11,110
8000506a:	fa cc ff dc 	sub	r12,sp,-36
8000506e:	f0 1f 00 22 	mcall	800050f4 <_settingsHourMenu+0x1bc>
80005072:	40 08       	lddsp	r8,sp[0x0]
80005074:	1a d8       	st.w	--sp,r8
80005076:	fa e8 00 28 	ld.d	r8,sp[40]
8000507a:	bb 29       	st.d	--sp,r8
8000507c:	f0 1f 00 1f 	mcall	800050f8 <_settingsHourMenu+0x1c0>
80005080:	30 47       	mov	r7,4
80005082:	0e 9a       	mov	r10,r7
80005084:	4a bb       	lddpc	r11,80005130 <_settingsHourMenu+0x1f8>
80005086:	fa cc ff c8 	sub	r12,sp,-56
8000508a:	f0 1f 00 1f 	mcall	80005104 <_settingsHourMenu+0x1cc>
8000508e:	40 48       	lddsp	r8,sp[0x10]
80005090:	1a d8       	st.w	--sp,r8
80005092:	40 f8       	lddsp	r8,sp[0x3c]
80005094:	1a d8       	st.w	--sp,r8
80005096:	30 0a       	mov	r10,0
80005098:	30 2b       	mov	r11,2
8000509a:	fa cc ff e0 	sub	r12,sp,-32
8000509e:	f0 1f 00 26 	mcall	80005134 <_settingsHourMenu+0x1fc>
800050a2:	e0 68 00 c3 	mov	r8,195
800050a6:	e0 69 00 96 	mov	r9,150
800050aa:	e0 6a 00 b4 	mov	r10,180
800050ae:	e0 6b 00 82 	mov	r11,130
800050b2:	fa cc ff bc 	sub	r12,sp,-68
800050b6:	f0 1f 00 10 	mcall	800050f4 <_settingsHourMenu+0x1bc>
800050ba:	40 68       	lddsp	r8,sp[0x18]
800050bc:	1a d8       	st.w	--sp,r8
800050be:	fa e8 00 48 	ld.d	r8,sp[72]
800050c2:	bb 29       	st.d	--sp,r8
800050c4:	f0 1f 00 0d 	mcall	800050f8 <_settingsHourMenu+0x1c0>
800050c8:	2f 8d       	sub	sp,-32
800050ca:	0e 9a       	mov	r10,r7
800050cc:	49 bb       	lddpc	r11,80005138 <_settingsHourMenu+0x200>
800050ce:	fa cc ff c8 	sub	r12,sp,-56
800050d2:	f0 1f 00 0d 	mcall	80005104 <_settingsHourMenu+0x1cc>
800050d6:	40 08       	lddsp	r8,sp[0x0]
800050d8:	1a d8       	st.w	--sp,r8
800050da:	40 f8       	lddsp	r8,sp[0x3c]
800050dc:	1a d8       	st.w	--sp,r8
800050de:	30 0a       	mov	r10,0
800050e0:	30 2b       	mov	r11,2
800050e2:	fa cc ff f0 	sub	r12,sp,-16
800050e6:	f0 1f 00 14 	mcall	80005134 <_settingsHourMenu+0x1fc>
800050ea:	2f ed       	sub	sp,-8
800050ec:	2f 1d       	sub	sp,-60
800050ee:	e3 cd 80 e0 	ldm	sp++,r5-r7,pc
800050f2:	00 00       	add	r0,r0
800050f4:	80 00       	ld.sh	r0,r0[0x0]
800050f6:	5e 20       	reths	r0
800050f8:	80 00       	ld.sh	r0,r0[0x0]
800050fa:	5f 94       	srgt	r4
800050fc:	80 00       	ld.sh	r0,r0[0x0]
800050fe:	4b 3c       	lddpc	r12,800051c8 <_drawMusicButton+0x8c>
80005100:	80 00       	ld.sh	r0,r0[0x0]
80005102:	ad 0e       	ld.d	lr,r6
80005104:	80 00       	ld.sh	r0,r0[0x0]
80005106:	76 9c       	ld.w	r12,r11[0x24]
80005108:	80 00       	ld.sh	r0,r0[0x0]
8000510a:	3e d8       	mov	r8,-19
8000510c:	00 00       	add	r0,r0
8000510e:	04 0c       	add	r12,r2
80005110:	80 00       	ld.sh	r0,r0[0x0]
80005112:	ad 84       	lsr	r4,0xc
80005114:	80 00       	ld.sh	r0,r0[0x0]
80005116:	42 54       	lddsp	r4,sp[0x94]
80005118:	00 00       	add	r0,r0
8000511a:	08 00       	add	r0,r4
8000511c:	80 00       	ld.sh	r0,r0[0x0]
8000511e:	ad 16       	ld.d	r6,--r6
80005120:	80 00       	ld.sh	r0,r0[0x0]
80005122:	ad b8       	sbr	r8,0xd
80005124:	80 00       	ld.sh	r0,r0[0x0]
80005126:	ad c0       	cbr	r0,0xc
80005128:	00 00       	add	r0,r0
8000512a:	08 01       	add	r1,r4
8000512c:	00 00       	add	r0,r0
8000512e:	04 4f       	or	pc,r2
80005130:	80 00       	ld.sh	r0,r0[0x0]
80005132:	ad 02       	ld.d	r2,r6
80005134:	80 00       	ld.sh	r0,r0[0x0]
80005136:	3e f4       	mov	r4,-17
80005138:	80 00       	ld.sh	r0,r0[0x0]
8000513a:	ad 12       	ld.d	r2,--r6

8000513c <_drawMusicButton>:
8000513c:	eb cd 40 c0 	pushm	r6-r7,lr
80005140:	20 4d       	sub	sp,16
80005142:	30 47       	mov	r7,4
80005144:	0e 9a       	mov	r10,r7
80005146:	4a 8b       	lddpc	r11,800051e4 <_drawMusicButton+0xa8>
80005148:	1a 9c       	mov	r12,sp
8000514a:	f0 1f 00 28 	mcall	800051e8 <_drawMusicButton+0xac>
8000514e:	4a 86       	lddpc	r6,800051ec <_drawMusicButton+0xb0>
80005150:	20 1d       	sub	sp,4
80005152:	0e 9a       	mov	r10,r7
80005154:	0c 9b       	mov	r11,r6
80005156:	1a 9c       	mov	r12,sp
80005158:	f0 1f 00 24 	mcall	800051e8 <_drawMusicButton+0xac>
8000515c:	40 18       	lddsp	r8,sp[0x4]
8000515e:	1a d8       	st.w	--sp,r8
80005160:	0e 9a       	mov	r10,r7
80005162:	4a 4b       	lddpc	r11,800051f0 <_drawMusicButton+0xb4>
80005164:	4a 4c       	lddpc	r12,800051f4 <_drawMusicButton+0xb8>
80005166:	f0 1f 00 25 	mcall	800051f8 <_drawMusicButton+0xbc>
8000516a:	0e 9a       	mov	r10,r7
8000516c:	4a 4b       	lddpc	r11,800051fc <_drawMusicButton+0xc0>
8000516e:	fa cc ff f4 	sub	r12,sp,-12
80005172:	f0 1f 00 1e 	mcall	800051e8 <_drawMusicButton+0xac>
80005176:	20 1d       	sub	sp,4
80005178:	0e 9a       	mov	r10,r7
8000517a:	0c 9b       	mov	r11,r6
8000517c:	1a 9c       	mov	r12,sp
8000517e:	f0 1f 00 1b 	mcall	800051e8 <_drawMusicButton+0xac>
80005182:	40 48       	lddsp	r8,sp[0x10]
80005184:	1a d8       	st.w	--sp,r8
80005186:	30 7a       	mov	r10,7
80005188:	49 eb       	lddpc	r11,80005200 <_drawMusicButton+0xc4>
8000518a:	49 fc       	lddpc	r12,80005204 <_drawMusicButton+0xc8>
8000518c:	f0 1f 00 1b 	mcall	800051f8 <_drawMusicButton+0xbc>
80005190:	0e 9a       	mov	r10,r7
80005192:	49 eb       	lddpc	r11,80005208 <_drawMusicButton+0xcc>
80005194:	fa cc ff e8 	sub	r12,sp,-24
80005198:	f0 1f 00 14 	mcall	800051e8 <_drawMusicButton+0xac>
8000519c:	20 1d       	sub	sp,4
8000519e:	0e 9a       	mov	r10,r7
800051a0:	0c 9b       	mov	r11,r6
800051a2:	1a 9c       	mov	r12,sp
800051a4:	f0 1f 00 11 	mcall	800051e8 <_drawMusicButton+0xac>
800051a8:	40 78       	lddsp	r8,sp[0x1c]
800051aa:	1a d8       	st.w	--sp,r8
800051ac:	30 5a       	mov	r10,5
800051ae:	49 8b       	lddpc	r11,8000520c <_drawMusicButton+0xd0>
800051b0:	49 8c       	lddpc	r12,80005210 <_drawMusicButton+0xd4>
800051b2:	f0 1f 00 12 	mcall	800051f8 <_drawMusicButton+0xbc>
800051b6:	0e 9a       	mov	r10,r7
800051b8:	49 7b       	lddpc	r11,80005214 <_drawMusicButton+0xd8>
800051ba:	fa cc ff dc 	sub	r12,sp,-36
800051be:	f0 1f 00 0b 	mcall	800051e8 <_drawMusicButton+0xac>
800051c2:	20 1d       	sub	sp,4
800051c4:	0e 9a       	mov	r10,r7
800051c6:	0c 9b       	mov	r11,r6
800051c8:	1a 9c       	mov	r12,sp
800051ca:	f0 1f 00 08 	mcall	800051e8 <_drawMusicButton+0xac>
800051ce:	40 a8       	lddsp	r8,sp[0x28]
800051d0:	1a d8       	st.w	--sp,r8
800051d2:	30 5a       	mov	r10,5
800051d4:	49 1b       	lddpc	r11,80005218 <_drawMusicButton+0xdc>
800051d6:	49 2c       	lddpc	r12,8000521c <_drawMusicButton+0xe0>
800051d8:	f0 1f 00 08 	mcall	800051f8 <_drawMusicButton+0xbc>
800051dc:	2f 8d       	sub	sp,-32
800051de:	2f cd       	sub	sp,-16
800051e0:	e3 cd 80 c0 	ldm	sp++,r6-r7,pc
800051e4:	80 00       	ld.sh	r0,r0[0x0]
800051e6:	ac be       	st.b	r6[0x3],lr
800051e8:	80 00       	ld.sh	r0,r0[0x0]
800051ea:	76 9c       	ld.w	r12,r11[0x24]
800051ec:	00 00       	add	r0,r0
800051ee:	04 0c       	add	r12,r2
800051f0:	80 00       	ld.sh	r0,r0[0x0]
800051f2:	ad 58       	asr	r8,0xd
800051f4:	80 00       	ld.sh	r0,r0[0x0]
800051f6:	ad cc       	cbr	r12,0xc
800051f8:	80 00       	ld.sh	r0,r0[0x0]
800051fa:	40 b8       	lddsp	r8,sp[0x2c]
800051fc:	80 00       	ld.sh	r0,r0[0x0]
800051fe:	ac e2       	st.b	r6[0x6],r2
80005200:	80 00       	ld.sh	r0,r0[0x0]
80005202:	ad d0       	cbr	r0,0xd
80005204:	80 00       	ld.sh	r0,r0[0x0]
80005206:	ad 60       	lsl	r0,0xc
80005208:	80 00       	ld.sh	r0,r0[0x0]
8000520a:	ac d6       	st.b	r6[0x5],r6
8000520c:	80 00       	ld.sh	r0,r0[0x0]
8000520e:	ad d8       	cbr	r8,0xd
80005210:	80 00       	ld.sh	r0,r0[0x0]
80005212:	ac bc       	st.b	r6[0x3],r12
80005214:	80 00       	ld.sh	r0,r0[0x0]
80005216:	ac ea       	st.b	r6[0x6],r10
80005218:	80 00       	ld.sh	r0,r0[0x0]
8000521a:	ad e0       	*unknown*
8000521c:	80 00       	ld.sh	r0,r0[0x0]
8000521e:	ad e8       	*unknown*

80005220 <_musicPlayerMenu>:
80005220:	eb cd 40 c0 	pushm	r6-r7,lr
80005224:	20 4d       	sub	sp,16
80005226:	58 0c       	cp.w	r12,0
80005228:	c3 10       	breq	8000528a <_musicPlayerMenu+0x6a>
8000522a:	30 07       	mov	r7,0
8000522c:	50 07       	stdsp	sp[0x0],r7
8000522e:	e0 68 00 f0 	mov	r8,240
80005232:	e0 69 01 40 	mov	r9,320
80005236:	0e 9a       	mov	r10,r7
80005238:	0e 9b       	mov	r11,r7
8000523a:	fa cc ff fc 	sub	r12,sp,-4
8000523e:	f0 1f 00 15 	mcall	80005290 <_musicPlayerMenu+0x70>
80005242:	40 08       	lddsp	r8,sp[0x0]
80005244:	1a d8       	st.w	--sp,r8
80005246:	fa e8 00 08 	ld.d	r8,sp[8]
8000524a:	bb 29       	st.d	--sp,r8
8000524c:	f0 1f 00 12 	mcall	80005294 <_musicPlayerMenu+0x74>
80005250:	f0 1f 00 12 	mcall	80005298 <_musicPlayerMenu+0x78>
80005254:	30 46       	mov	r6,4
80005256:	0c 9a       	mov	r10,r6
80005258:	49 1b       	lddpc	r11,8000529c <_musicPlayerMenu+0x7c>
8000525a:	fa cc ff e8 	sub	r12,sp,-24
8000525e:	f0 1f 00 11 	mcall	800052a0 <_musicPlayerMenu+0x80>
80005262:	40 68       	lddsp	r8,sp[0x18]
80005264:	1a d8       	st.w	--sp,r8
80005266:	f0 1f 00 10 	mcall	800052a4 <_musicPlayerMenu+0x84>
8000526a:	20 1d       	sub	sp,4
8000526c:	0c 9a       	mov	r10,r6
8000526e:	48 fb       	lddpc	r11,800052a8 <_musicPlayerMenu+0x88>
80005270:	1a 9c       	mov	r12,sp
80005272:	f0 1f 00 0c 	mcall	800052a0 <_musicPlayerMenu+0x80>
80005276:	30 1a       	mov	r10,1
80005278:	30 ab       	mov	r11,10
8000527a:	48 dc       	lddpc	r12,800052ac <_musicPlayerMenu+0x8c>
8000527c:	f0 1f 00 0d 	mcall	800052b0 <_musicPlayerMenu+0x90>
80005280:	48 d8       	lddpc	r8,800052b4 <_musicPlayerMenu+0x94>
80005282:	b0 87       	st.b	r8[0x0],r7
80005284:	f0 1f 00 0d 	mcall	800052b8 <_musicPlayerMenu+0x98>
80005288:	2f bd       	sub	sp,-20
8000528a:	2f cd       	sub	sp,-16
8000528c:	e3 cd 80 c0 	ldm	sp++,r6-r7,pc
80005290:	80 00       	ld.sh	r0,r0[0x0]
80005292:	5e 20       	reths	r0
80005294:	80 00       	ld.sh	r0,r0[0x0]
80005296:	5f 94       	srgt	r4
80005298:	80 00       	ld.sh	r0,r0[0x0]
8000529a:	51 3c       	stdsp	sp[0x4c],r12
8000529c:	80 00       	ld.sh	r0,r0[0x0]
8000529e:	ac f2       	st.b	r6[0x7],r2
800052a0:	80 00       	ld.sh	r0,r0[0x0]
800052a2:	76 9c       	ld.w	r12,r11[0x24]
800052a4:	80 00       	ld.sh	r0,r0[0x0]
800052a6:	3e d8       	mov	r8,-19
800052a8:	00 00       	add	r0,r0
800052aa:	04 0c       	add	r12,r2
800052ac:	80 00       	ld.sh	r0,r0[0x0]
800052ae:	ad ec       	*unknown*
800052b0:	80 00       	ld.sh	r0,r0[0x0]
800052b2:	42 54       	lddsp	r4,sp[0x94]
800052b4:	00 00       	add	r0,r0
800052b6:	08 00       	add	r0,r4
800052b8:	80 00       	ld.sh	r0,r0[0x0]
800052ba:	3c 94       	mov	r4,-55

800052bc <_drawCommonButton>:
800052bc:	eb cd 40 c0 	pushm	r6-r7,lr
800052c0:	20 4d       	sub	sp,16
800052c2:	30 47       	mov	r7,4
800052c4:	0e 9a       	mov	r10,r7
800052c6:	4a 8b       	lddpc	r11,80005364 <_drawCommonButton+0xa8>
800052c8:	1a 9c       	mov	r12,sp
800052ca:	f0 1f 00 28 	mcall	80005368 <_drawCommonButton+0xac>
800052ce:	4a 86       	lddpc	r6,8000536c <_drawCommonButton+0xb0>
800052d0:	20 1d       	sub	sp,4
800052d2:	0e 9a       	mov	r10,r7
800052d4:	0c 9b       	mov	r11,r6
800052d6:	1a 9c       	mov	r12,sp
800052d8:	f0 1f 00 24 	mcall	80005368 <_drawCommonButton+0xac>
800052dc:	40 18       	lddsp	r8,sp[0x4]
800052de:	1a d8       	st.w	--sp,r8
800052e0:	0e 9a       	mov	r10,r7
800052e2:	4a 4b       	lddpc	r11,80005370 <_drawCommonButton+0xb4>
800052e4:	4a 4c       	lddpc	r12,80005374 <_drawCommonButton+0xb8>
800052e6:	f0 1f 00 25 	mcall	80005378 <_drawCommonButton+0xbc>
800052ea:	0e 9a       	mov	r10,r7
800052ec:	4a 4b       	lddpc	r11,8000537c <_drawCommonButton+0xc0>
800052ee:	fa cc ff f4 	sub	r12,sp,-12
800052f2:	f0 1f 00 1e 	mcall	80005368 <_drawCommonButton+0xac>
800052f6:	20 1d       	sub	sp,4
800052f8:	0e 9a       	mov	r10,r7
800052fa:	0c 9b       	mov	r11,r6
800052fc:	1a 9c       	mov	r12,sp
800052fe:	f0 1f 00 1b 	mcall	80005368 <_drawCommonButton+0xac>
80005302:	40 48       	lddsp	r8,sp[0x10]
80005304:	1a d8       	st.w	--sp,r8
80005306:	0e 9a       	mov	r10,r7
80005308:	49 eb       	lddpc	r11,80005380 <_drawCommonButton+0xc4>
8000530a:	49 fc       	lddpc	r12,80005384 <_drawCommonButton+0xc8>
8000530c:	f0 1f 00 1b 	mcall	80005378 <_drawCommonButton+0xbc>
80005310:	0e 9a       	mov	r10,r7
80005312:	49 eb       	lddpc	r11,80005388 <_drawCommonButton+0xcc>
80005314:	fa cc ff e8 	sub	r12,sp,-24
80005318:	f0 1f 00 14 	mcall	80005368 <_drawCommonButton+0xac>
8000531c:	20 1d       	sub	sp,4
8000531e:	0e 9a       	mov	r10,r7
80005320:	0c 9b       	mov	r11,r6
80005322:	1a 9c       	mov	r12,sp
80005324:	f0 1f 00 11 	mcall	80005368 <_drawCommonButton+0xac>
80005328:	40 78       	lddsp	r8,sp[0x1c]
8000532a:	1a d8       	st.w	--sp,r8
8000532c:	0e 9a       	mov	r10,r7
8000532e:	49 8b       	lddpc	r11,8000538c <_drawCommonButton+0xd0>
80005330:	49 8c       	lddpc	r12,80005390 <_drawCommonButton+0xd4>
80005332:	f0 1f 00 12 	mcall	80005378 <_drawCommonButton+0xbc>
80005336:	0e 9a       	mov	r10,r7
80005338:	49 7b       	lddpc	r11,80005394 <_drawCommonButton+0xd8>
8000533a:	fa cc ff dc 	sub	r12,sp,-36
8000533e:	f0 1f 00 0b 	mcall	80005368 <_drawCommonButton+0xac>
80005342:	20 1d       	sub	sp,4
80005344:	0e 9a       	mov	r10,r7
80005346:	0c 9b       	mov	r11,r6
80005348:	1a 9c       	mov	r12,sp
8000534a:	f0 1f 00 08 	mcall	80005368 <_drawCommonButton+0xac>
8000534e:	40 a8       	lddsp	r8,sp[0x28]
80005350:	1a d8       	st.w	--sp,r8
80005352:	0e 9a       	mov	r10,r7
80005354:	49 1b       	lddpc	r11,80005398 <_drawCommonButton+0xdc>
80005356:	49 2c       	lddpc	r12,8000539c <_drawCommonButton+0xe0>
80005358:	f0 1f 00 08 	mcall	80005378 <_drawCommonButton+0xbc>
8000535c:	2f 8d       	sub	sp,-32
8000535e:	2f cd       	sub	sp,-16
80005360:	e3 cd 80 c0 	ldm	sp++,r6-r7,pc
80005364:	80 00       	ld.sh	r0,r0[0x0]
80005366:	ac da       	st.b	r6[0x5],r10
80005368:	80 00       	ld.sh	r0,r0[0x0]
8000536a:	76 9c       	ld.w	r12,r11[0x24]
8000536c:	00 00       	add	r0,r0
8000536e:	04 0c       	add	r12,r2
80005370:	80 00       	ld.sh	r0,r0[0x0]
80005372:	ad 58       	asr	r8,0xd
80005374:	80 00       	ld.sh	r0,r0[0x0]
80005376:	ad 60       	lsl	r0,0xc
80005378:	80 00       	ld.sh	r0,r0[0x0]
8000537a:	40 b8       	lddsp	r8,sp[0x2c]
8000537c:	80 00       	ld.sh	r0,r0[0x0]
8000537e:	ac ee       	st.b	r6[0x6],lr
80005380:	80 00       	ld.sh	r0,r0[0x0]
80005382:	ad f8       	*unknown*
80005384:	80 00       	ld.sh	r0,r0[0x0]
80005386:	ad fc       	*unknown*
80005388:	80 00       	ld.sh	r0,r0[0x0]
8000538a:	ad 06       	ld.d	r6,r6
8000538c:	80 00       	ld.sh	r0,r0[0x0]
8000538e:	ae 00       	st.h	r7[0x0],r0
80005390:	80 00       	ld.sh	r0,r0[0x0]
80005392:	ad 80       	lsr	r0,0xc
80005394:	80 00       	ld.sh	r0,r0[0x0]
80005396:	ac fe       	st.b	r6[0x7],lr
80005398:	80 00       	ld.sh	r0,r0[0x0]
8000539a:	ae 08       	st.h	r7[0x0],r8
8000539c:	80 00       	ld.sh	r0,r0[0x0]
8000539e:	ac bc       	st.b	r6[0x3],r12

800053a0 <_alarmMenu>:
800053a0:	eb cd 40 f8 	pushm	r3-r7,lr
800053a4:	20 5d       	sub	sp,20
800053a6:	18 97       	mov	r7,r12
800053a8:	58 0c       	cp.w	r12,0
800053aa:	c2 f0       	breq	80005408 <_alarmMenu+0x68>
800053ac:	30 06       	mov	r6,0
800053ae:	50 06       	stdsp	sp[0x0],r6
800053b0:	e0 68 00 f0 	mov	r8,240
800053b4:	e0 69 01 40 	mov	r9,320
800053b8:	0c 9a       	mov	r10,r6
800053ba:	0c 9b       	mov	r11,r6
800053bc:	fa cc ff fc 	sub	r12,sp,-4
800053c0:	f0 1f 00 3b 	mcall	800054ac <_alarmMenu+0x10c>
800053c4:	40 08       	lddsp	r8,sp[0x0]
800053c6:	1a d8       	st.w	--sp,r8
800053c8:	fa e8 00 08 	ld.d	r8,sp[8]
800053cc:	bb 29       	st.d	--sp,r8
800053ce:	f0 1f 00 39 	mcall	800054b0 <_alarmMenu+0x110>
800053d2:	f0 1f 00 39 	mcall	800054b4 <_alarmMenu+0x114>
800053d6:	4b 98       	lddpc	r8,800054b8 <_alarmMenu+0x118>
800053d8:	b0 86       	st.b	r8[0x0],r6
800053da:	30 46       	mov	r6,4
800053dc:	0c 9a       	mov	r10,r6
800053de:	4b 8b       	lddpc	r11,800054bc <_alarmMenu+0x11c>
800053e0:	fa cc ff e8 	sub	r12,sp,-24
800053e4:	f0 1f 00 37 	mcall	800054c0 <_alarmMenu+0x120>
800053e8:	40 68       	lddsp	r8,sp[0x18]
800053ea:	1a d8       	st.w	--sp,r8
800053ec:	f0 1f 00 36 	mcall	800054c4 <_alarmMenu+0x124>
800053f0:	20 1d       	sub	sp,4
800053f2:	0c 9a       	mov	r10,r6
800053f4:	4b 5b       	lddpc	r11,800054c8 <_alarmMenu+0x128>
800053f6:	1a 9c       	mov	r12,sp
800053f8:	f0 1f 00 32 	mcall	800054c0 <_alarmMenu+0x120>
800053fc:	30 1a       	mov	r10,1
800053fe:	30 cb       	mov	r11,12
80005400:	4b 3c       	lddpc	r12,800054cc <_alarmMenu+0x12c>
80005402:	f0 1f 00 34 	mcall	800054d0 <_alarmMenu+0x130>
80005406:	2f bd       	sub	sp,-20
80005408:	30 45       	mov	r5,4
8000540a:	0a 9a       	mov	r10,r5
8000540c:	4b 2b       	lddpc	r11,800054d4 <_alarmMenu+0x134>
8000540e:	fa cc ff f0 	sub	r12,sp,-16
80005412:	f0 1f 00 2c 	mcall	800054c0 <_alarmMenu+0x120>
80005416:	40 48       	lddsp	r8,sp[0x10]
80005418:	1a d8       	st.w	--sp,r8
8000541a:	f0 1f 00 2b 	mcall	800054c4 <_alarmMenu+0x124>
8000541e:	4a f4       	lddpc	r4,800054d8 <_alarmMenu+0x138>
80005420:	09 86       	ld.ub	r6,r4[0x0]
80005422:	ed d6 c0 01 	bfextu	r6,r6,0x0,0x1
80005426:	4a 93       	lddpc	r3,800054c8 <_alarmMenu+0x128>
80005428:	20 1d       	sub	sp,4
8000542a:	0a 9a       	mov	r10,r5
8000542c:	06 9b       	mov	r11,r3
8000542e:	1a 9c       	mov	r12,sp
80005430:	f0 1f 00 24 	mcall	800054c0 <_alarmMenu+0x120>
80005434:	0e 98       	mov	r8,r7
80005436:	0e 99       	mov	r9,r7
80005438:	0c 9a       	mov	r10,r6
8000543a:	31 2b       	mov	r11,18
8000543c:	4a 8c       	lddpc	r12,800054dc <_alarmMenu+0x13c>
8000543e:	f0 1f 00 29 	mcall	800054e0 <_alarmMenu+0x140>
80005442:	09 86       	ld.ub	r6,r4[0x0]
80005444:	ed d6 c0 21 	bfextu	r6,r6,0x1,0x1
80005448:	20 1d       	sub	sp,4
8000544a:	0a 9a       	mov	r10,r5
8000544c:	06 9b       	mov	r11,r3
8000544e:	1a 9c       	mov	r12,sp
80005450:	f0 1f 00 1c 	mcall	800054c0 <_alarmMenu+0x120>
80005454:	0e 98       	mov	r8,r7
80005456:	0e 99       	mov	r9,r7
80005458:	0c 9a       	mov	r10,r6
8000545a:	31 2b       	mov	r11,18
8000545c:	4a 2c       	lddpc	r12,800054e4 <_alarmMenu+0x144>
8000545e:	f0 1f 00 21 	mcall	800054e0 <_alarmMenu+0x140>
80005462:	09 86       	ld.ub	r6,r4[0x0]
80005464:	ed d6 c0 41 	bfextu	r6,r6,0x2,0x1
80005468:	20 1d       	sub	sp,4
8000546a:	0a 9a       	mov	r10,r5
8000546c:	06 9b       	mov	r11,r3
8000546e:	1a 9c       	mov	r12,sp
80005470:	f0 1f 00 14 	mcall	800054c0 <_alarmMenu+0x120>
80005474:	0e 98       	mov	r8,r7
80005476:	0e 99       	mov	r9,r7
80005478:	0c 9a       	mov	r10,r6
8000547a:	31 2b       	mov	r11,18
8000547c:	49 bc       	lddpc	r12,800054e8 <_alarmMenu+0x148>
8000547e:	f0 1f 00 19 	mcall	800054e0 <_alarmMenu+0x140>
80005482:	09 86       	ld.ub	r6,r4[0x0]
80005484:	ed d6 c0 61 	bfextu	r6,r6,0x3,0x1
80005488:	20 1d       	sub	sp,4
8000548a:	0a 9a       	mov	r10,r5
8000548c:	06 9b       	mov	r11,r3
8000548e:	1a 9c       	mov	r12,sp
80005490:	f0 1f 00 0c 	mcall	800054c0 <_alarmMenu+0x120>
80005494:	0e 98       	mov	r8,r7
80005496:	0e 99       	mov	r9,r7
80005498:	0c 9a       	mov	r10,r6
8000549a:	31 2b       	mov	r11,18
8000549c:	49 4c       	lddpc	r12,800054ec <_alarmMenu+0x14c>
8000549e:	f0 1f 00 11 	mcall	800054e0 <_alarmMenu+0x140>
800054a2:	2f bd       	sub	sp,-20
800054a4:	2f bd       	sub	sp,-20
800054a6:	e3 cd 80 f8 	ldm	sp++,r3-r7,pc
800054aa:	00 00       	add	r0,r0
800054ac:	80 00       	ld.sh	r0,r0[0x0]
800054ae:	5e 20       	reths	r0
800054b0:	80 00       	ld.sh	r0,r0[0x0]
800054b2:	5f 94       	srgt	r4
800054b4:	80 00       	ld.sh	r0,r0[0x0]
800054b6:	52 bc       	stdsp	sp[0xac],r12
800054b8:	00 00       	add	r0,r0
800054ba:	08 00       	add	r0,r4
800054bc:	80 00       	ld.sh	r0,r0[0x0]
800054be:	ac de       	st.b	r6[0x5],lr
800054c0:	80 00       	ld.sh	r0,r0[0x0]
800054c2:	76 9c       	ld.w	r12,r11[0x24]
800054c4:	80 00       	ld.sh	r0,r0[0x0]
800054c6:	3e d8       	mov	r8,-19
800054c8:	00 00       	add	r0,r0
800054ca:	04 0c       	add	r12,r2
800054cc:	80 00       	ld.sh	r0,r0[0x0]
800054ce:	ae 0c       	st.h	r7[0x0],r12
800054d0:	80 00       	ld.sh	r0,r0[0x0]
800054d2:	42 54       	lddsp	r4,sp[0x94]
800054d4:	80 00       	ld.sh	r0,r0[0x0]
800054d6:	ac ca       	st.b	r6[0x4],r10
800054d8:	00 00       	add	r0,r0
800054da:	04 4f       	or	pc,r2
800054dc:	80 00       	ld.sh	r0,r0[0x0]
800054de:	ae 1c       	st.h	r7[0x2],r12
800054e0:	80 00       	ld.sh	r0,r0[0x0]
800054e2:	41 38       	lddsp	r8,sp[0x4c]
800054e4:	80 00       	ld.sh	r0,r0[0x0]
800054e6:	ae 30       	st.h	r7[0x6],r0
800054e8:	80 00       	ld.sh	r0,r0[0x0]
800054ea:	ae 44       	st.h	r7[0x8],r4
800054ec:	80 00       	ld.sh	r0,r0[0x0]
800054ee:	ae 58       	st.h	r7[0xa],r8

800054f0 <_settingsMenu>:
800054f0:	d4 31       	pushm	r0-r7,lr
800054f2:	21 dd       	sub	sp,116
800054f4:	18 97       	mov	r7,r12
800054f6:	58 0c       	cp.w	r12,0
800054f8:	c3 30       	breq	8000555e <_settingsMenu+0x6e>
800054fa:	30 06       	mov	r6,0
800054fc:	51 86       	stdsp	sp[0x60],r6
800054fe:	e0 68 00 f0 	mov	r8,240
80005502:	e0 69 01 40 	mov	r9,320
80005506:	0c 9a       	mov	r10,r6
80005508:	0c 9b       	mov	r11,r6
8000550a:	fa cc ff 9c 	sub	r12,sp,-100
8000550e:	f0 1f 00 b1 	mcall	800057d0 <_settingsMenu+0x2e0>
80005512:	41 88       	lddsp	r8,sp[0x60]
80005514:	1a d8       	st.w	--sp,r8
80005516:	fa e8 00 68 	ld.d	r8,sp[104]
8000551a:	bb 29       	st.d	--sp,r8
8000551c:	f0 1f 00 ae 	mcall	800057d4 <_settingsMenu+0x2e4>
80005520:	f0 1f 00 ae 	mcall	800057d8 <_settingsMenu+0x2e8>
80005524:	fe f8 02 b8 	ld.w	r8,pc[696]
80005528:	b0 86       	st.b	r8[0x0],r6
8000552a:	30 46       	mov	r6,4
8000552c:	0c 9a       	mov	r10,r6
8000552e:	fe fb 02 b2 	ld.w	r11,pc[690]
80005532:	fa cc ff 88 	sub	r12,sp,-120
80005536:	f0 1f 00 ac 	mcall	800057e4 <_settingsMenu+0x2f4>
8000553a:	41 e8       	lddsp	r8,sp[0x78]
8000553c:	1a d8       	st.w	--sp,r8
8000553e:	f0 1f 00 ab 	mcall	800057e8 <_settingsMenu+0x2f8>
80005542:	20 1d       	sub	sp,4
80005544:	0c 9a       	mov	r10,r6
80005546:	fe fb 02 a6 	ld.w	r11,pc[678]
8000554a:	1a 9c       	mov	r12,sp
8000554c:	f0 1f 00 a6 	mcall	800057e4 <_settingsMenu+0x2f4>
80005550:	30 1a       	mov	r10,1
80005552:	31 0b       	mov	r11,16
80005554:	fe fc 02 9c 	ld.w	r12,pc[668]
80005558:	f0 1f 00 a7 	mcall	800057f4 <_settingsMenu+0x304>
8000555c:	2f bd       	sub	sp,-20
8000555e:	fe f9 02 9a 	ld.w	r9,pc[666]
80005562:	13 c1       	ld.ub	r1,r9[0x4]
80005564:	e3 d1 c0 27 	bfextu	r1,r1,0x1,0x7
80005568:	50 01       	stdsp	sp[0x0],r1
8000556a:	13 d3       	ld.ub	r3,r9[0x5]
8000556c:	e7 d3 c0 27 	bfextu	r3,r3,0x1,0x7
80005570:	30 0a       	mov	r10,0
80005572:	30 0b       	mov	r11,0
80005574:	fa eb 00 4c 	st.d	sp[76],r10
80005578:	fa eb 00 54 	st.d	sp[84],r10
8000557c:	30 02       	mov	r2,0
8000557e:	fb 62 00 5c 	st.b	sp[92],r2
80005582:	35 48       	mov	r8,84
80005584:	fb 68 00 44 	st.b	sp[68],r8
80005588:	36 98       	mov	r8,105
8000558a:	fb 68 00 45 	st.b	sp[69],r8
8000558e:	36 d4       	mov	r4,109
80005590:	fb 64 00 46 	st.b	sp[70],r4
80005594:	36 5e       	mov	lr,101
80005596:	fb 6e 00 47 	st.b	sp[71],lr
8000559a:	32 08       	mov	r8,32
8000559c:	fb 68 00 48 	st.b	sp[72],r8
800055a0:	33 d5       	mov	r5,61
800055a2:	fb 65 00 49 	st.b	sp[73],r5
800055a6:	fb 68 00 4a 	st.b	sp[74],r8
800055aa:	e0 6c 66 67 	mov	r12,26215
800055ae:	ea 1c 66 66 	orh	r12,0x6666
800055b2:	e2 0c 04 40 	muls.d	r0,r1,r12
800055b6:	fa e1 00 04 	st.d	sp[4],r0
800055ba:	40 16       	lddsp	r6,sp[0x4]
800055bc:	a3 46       	asr	r6,0x2
800055be:	ec c0 ff d0 	sub	r0,r6,-48
800055c2:	fb 60 00 4b 	st.b	sp[75],r0
800055c6:	ec 06 00 26 	add	r6,r6,r6<<0x2
800055ca:	40 00       	lddsp	r0,sp[0x0]
800055cc:	e0 06 01 11 	sub	r1,r0,r6<<0x1
800055d0:	2d 01       	sub	r1,-48
800055d2:	fb 61 00 4c 	st.b	sp[76],r1
800055d6:	36 86       	mov	r6,104
800055d8:	fb 66 00 4d 	st.b	sp[77],r6
800055dc:	fb 68 00 4e 	st.b	sp[78],r8
800055e0:	e6 0c 04 40 	muls.d	r0,r3,r12
800055e4:	e2 0c 14 02 	asr	r12,r1,0x2
800055e8:	f8 c6 ff d0 	sub	r6,r12,-48
800055ec:	fb 66 00 4f 	st.b	sp[79],r6
800055f0:	f8 0c 00 2c 	add	r12,r12,r12<<0x2
800055f4:	e6 0c 01 13 	sub	r3,r3,r12<<0x1
800055f8:	2d 03       	sub	r3,-48
800055fa:	fb 63 00 50 	st.b	sp[80],r3
800055fe:	fb 64 00 51 	st.b	sp[81],r4
80005602:	13 a4       	ld.ub	r4,r9[0x2]
80005604:	e9 d4 c0 46 	bfextu	r4,r4,0x2,0x6
80005608:	13 93       	ld.ub	r3,r9[0x1]
8000560a:	13 86       	ld.ub	r6,r9[0x0]
8000560c:	fa eb 00 14 	st.d	sp[20],r10
80005610:	fa eb 00 1c 	st.d	sp[28],r10
80005614:	fb 62 00 24 	st.b	sp[36],r2
80005618:	37 49       	mov	r9,116
8000561a:	fb 69 00 0c 	st.b	sp[12],r9
8000561e:	fb 6e 00 0d 	st.b	sp[13],lr
80005622:	37 8a       	mov	r10,120
80005624:	fb 6a 00 0e 	st.b	sp[14],r10
80005628:	fb 69 00 0f 	st.b	sp[15],r9
8000562c:	34 39       	mov	r9,67
8000562e:	fb 69 00 10 	st.b	sp[16],r9
80005632:	36 f9       	mov	r9,111
80005634:	fb 69 00 11 	st.b	sp[17],r9
80005638:	36 ca       	mov	r10,108
8000563a:	fb 6a 00 12 	st.b	sp[18],r10
8000563e:	fb 69 00 13 	st.b	sp[19],r9
80005642:	37 29       	mov	r9,114
80005644:	fb 69 00 14 	st.b	sp[20],r9
80005648:	fb 68 00 15 	st.b	sp[21],r8
8000564c:	fb 65 00 16 	st.b	sp[22],r5
80005650:	fb 68 00 17 	st.b	sp[23],r8
80005654:	4e a8       	lddpc	r8,800057fc <_settingsMenu+0x30c>
80005656:	11 89       	ld.ub	r9,r8[0x0]
80005658:	f2 09 00 29 	add	r9,r9,r9<<0x2
8000565c:	4e 98       	lddpc	r8,80005800 <_settingsMenu+0x310>
8000565e:	f0 09 00 19 	add	r9,r8,r9<<0x1
80005662:	fa c8 ff e8 	sub	r8,sp,-24
80005666:	fa cb ff e3 	sub	r11,sp,-29
8000566a:	13 3a       	ld.ub	r10,r9++
8000566c:	10 ca       	st.b	r8++,r10
8000566e:	16 38       	cp.w	r8,r11
80005670:	cf d1       	brne	8000566a <_settingsMenu+0x17a>
80005672:	30 45       	mov	r5,4
80005674:	0a 9a       	mov	r10,r5
80005676:	4e 4b       	lddpc	r11,80005804 <_settingsMenu+0x314>
80005678:	fa cc ff 90 	sub	r12,sp,-112
8000567c:	f0 1f 00 5a 	mcall	800057e4 <_settingsMenu+0x2f4>
80005680:	30 08       	mov	r8,0
80005682:	30 09       	mov	r9,0
80005684:	fa e9 00 38 	st.d	sp[56],r8
80005688:	30 08       	mov	r8,0
8000568a:	fb 68 00 40 	st.b	sp[64],r8
8000568e:	34 48       	mov	r8,68
80005690:	fb 68 00 28 	st.b	sp[40],r8
80005694:	36 18       	mov	r8,97
80005696:	fb 68 00 29 	st.b	sp[41],r8
8000569a:	37 48       	mov	r8,116
8000569c:	fb 68 00 2a 	st.b	sp[42],r8
800056a0:	36 58       	mov	r8,101
800056a2:	fb 68 00 2b 	st.b	sp[43],r8
800056a6:	32 08       	mov	r8,32
800056a8:	fb 68 00 2c 	st.b	sp[44],r8
800056ac:	33 d9       	mov	r9,61
800056ae:	fb 69 00 2d 	st.b	sp[45],r9
800056b2:	fb 68 00 2e 	st.b	sp[46],r8
800056b6:	e0 69 66 67 	mov	r9,26215
800056ba:	ea 19 66 66 	orh	r9,0x6666
800056be:	e8 09 04 48 	muls.d	r8,r4,r9
800056c2:	f2 08 14 02 	asr	r8,r9,0x2
800056c6:	f0 c9 ff d0 	sub	r9,r8,-48
800056ca:	fb 69 00 2f 	st.b	sp[47],r9
800056ce:	f0 08 00 28 	add	r8,r8,r8<<0x2
800056d2:	e8 08 01 14 	sub	r4,r4,r8<<0x1
800056d6:	2d 04       	sub	r4,-48
800056d8:	fb 64 00 30 	st.b	sp[48],r4
800056dc:	32 fa       	mov	r10,47
800056de:	fb 6a 00 31 	st.b	sp[49],r10
800056e2:	e0 69 cc cd 	mov	r9,52429
800056e6:	ea 19 cc cc 	orh	r9,0xcccc
800056ea:	e6 09 06 40 	mulu.d	r0,r3,r9
800056ee:	e2 08 16 03 	lsr	r8,r1,0x3
800056f2:	f0 cb ff d0 	sub	r11,r8,-48
800056f6:	fb 6b 00 32 	st.b	sp[50],r11
800056fa:	f0 08 00 28 	add	r8,r8,r8<<0x2
800056fe:	e6 08 01 13 	sub	r3,r3,r8<<0x1
80005702:	2d 03       	sub	r3,-48
80005704:	fb 63 00 33 	st.b	sp[51],r3
80005708:	fb 6a 00 34 	st.b	sp[52],r10
8000570c:	33 28       	mov	r8,50
8000570e:	fb 68 00 35 	st.b	sp[53],r8
80005712:	e0 6b 85 1f 	mov	r11,34079
80005716:	ea 1b 51 eb 	orh	r11,0x51eb
8000571a:	ec 0b 06 4a 	mulu.d	r10,r6,r11
8000571e:	f6 08 16 05 	lsr	r8,r11,0x5
80005722:	2d 08       	sub	r8,-48
80005724:	fb 68 00 36 	st.b	sp[54],r8
80005728:	ec 09 06 4a 	mulu.d	r10,r6,r9
8000572c:	f6 08 16 03 	lsr	r8,r11,0x3
80005730:	f5 d8 c0 08 	bfextu	r10,r8,0x0,0x8
80005734:	f4 09 06 42 	mulu.d	r2,r10,r9
80005738:	e6 09 16 03 	lsr	r9,r3,0x3
8000573c:	f2 09 00 29 	add	r9,r9,r9<<0x2
80005740:	f4 09 01 1a 	sub	r10,r10,r9<<0x1
80005744:	2d 0a       	sub	r10,-48
80005746:	fb 6a 00 37 	st.b	sp[55],r10
8000574a:	f0 08 00 28 	add	r8,r8,r8<<0x2
8000574e:	ec 08 01 16 	sub	r6,r6,r8<<0x1
80005752:	2d 06       	sub	r6,-48
80005754:	fb 66 00 38 	st.b	sp[56],r6
80005758:	41 c8       	lddsp	r8,sp[0x70]
8000575a:	1a d8       	st.w	--sp,r8
8000575c:	f0 1f 00 23 	mcall	800057e8 <_settingsMenu+0x2f8>
80005760:	4a a4       	lddpc	r4,80005808 <_settingsMenu+0x318>
80005762:	09 86       	ld.ub	r6,r4[0x0]
80005764:	ed d6 c0 01 	bfextu	r6,r6,0x0,0x1
80005768:	4a 13       	lddpc	r3,800057ec <_settingsMenu+0x2fc>
8000576a:	20 1d       	sub	sp,4
8000576c:	0a 9a       	mov	r10,r5
8000576e:	06 9b       	mov	r11,r3
80005770:	1a 9c       	mov	r12,sp
80005772:	f0 1f 00 1d 	mcall	800057e4 <_settingsMenu+0x2f4>
80005776:	0e 98       	mov	r8,r7
80005778:	0e 99       	mov	r9,r7
8000577a:	0c 9a       	mov	r10,r6
8000577c:	31 9b       	mov	r11,25
8000577e:	fa cc ff b4 	sub	r12,sp,-76
80005782:	f0 1f 00 23 	mcall	8000580c <_settingsMenu+0x31c>
80005786:	09 86       	ld.ub	r6,r4[0x0]
80005788:	ed d6 c0 21 	bfextu	r6,r6,0x1,0x1
8000578c:	20 1d       	sub	sp,4
8000578e:	0a 9a       	mov	r10,r5
80005790:	06 9b       	mov	r11,r3
80005792:	1a 9c       	mov	r12,sp
80005794:	f0 1f 00 14 	mcall	800057e4 <_settingsMenu+0x2f4>
80005798:	0e 98       	mov	r8,r7
8000579a:	0e 99       	mov	r9,r7
8000579c:	0c 9a       	mov	r10,r6
8000579e:	31 9b       	mov	r11,25
800057a0:	fa cc ff cc 	sub	r12,sp,-52
800057a4:	f0 1f 00 1a 	mcall	8000580c <_settingsMenu+0x31c>
800057a8:	09 86       	ld.ub	r6,r4[0x0]
800057aa:	ed d6 c0 41 	bfextu	r6,r6,0x2,0x1
800057ae:	20 1d       	sub	sp,4
800057b0:	0a 9a       	mov	r10,r5
800057b2:	06 9b       	mov	r11,r3
800057b4:	1a 9c       	mov	r12,sp
800057b6:	f0 1f 00 0c 	mcall	800057e4 <_settingsMenu+0x2f4>
800057ba:	0e 98       	mov	r8,r7
800057bc:	0e 99       	mov	r9,r7
800057be:	0c 9a       	mov	r10,r6
800057c0:	31 9b       	mov	r11,25
800057c2:	fa cc ff e4 	sub	r12,sp,-28
800057c6:	f0 1f 00 12 	mcall	8000580c <_settingsMenu+0x31c>
800057ca:	2f cd       	sub	sp,-16
800057cc:	2e 3d       	sub	sp,-116
800057ce:	d8 32       	popm	r0-r7,pc
800057d0:	80 00       	ld.sh	r0,r0[0x0]
800057d2:	5e 20       	reths	r0
800057d4:	80 00       	ld.sh	r0,r0[0x0]
800057d6:	5f 94       	srgt	r4
800057d8:	80 00       	ld.sh	r0,r0[0x0]
800057da:	52 bc       	stdsp	sp[0xac],r12
800057dc:	00 00       	add	r0,r0
800057de:	08 00       	add	r0,r4
800057e0:	80 00       	ld.sh	r0,r0[0x0]
800057e2:	ad 0a       	ld.d	r10,r6
800057e4:	80 00       	ld.sh	r0,r0[0x0]
800057e6:	76 9c       	ld.w	r12,r11[0x24]
800057e8:	80 00       	ld.sh	r0,r0[0x0]
800057ea:	3e d8       	mov	r8,-19
800057ec:	00 00       	add	r0,r0
800057ee:	04 0c       	add	r12,r2
800057f0:	80 00       	ld.sh	r0,r0[0x0]
800057f2:	ae 6c       	st.h	r7[0xc],r12
800057f4:	80 00       	ld.sh	r0,r0[0x0]
800057f6:	42 54       	lddsp	r4,sp[0x94]
800057f8:	00 00       	add	r0,r0
800057fa:	0a f3       	st.b	--r5,r3
800057fc:	00 00       	add	r0,r0
800057fe:	07 fb       	ld.ub	r11,r3[0x7]
80005800:	80 00       	ld.sh	r0,r0[0x0]
80005802:	ad 1a       	ld.d	r10,--r6
80005804:	80 00       	ld.sh	r0,r0[0x0]
80005806:	ad 52       	asr	r2,0xd
80005808:	00 00       	add	r0,r0
8000580a:	04 4f       	or	pc,r2
8000580c:	80 00       	ld.sh	r0,r0[0x0]
8000580e:	41 38       	lddsp	r8,sp[0x4c]

80005810 <_musicMenu>:
80005810:	d4 31       	pushm	r0-r7,lr
80005812:	20 9d       	sub	sp,36
80005814:	18 95       	mov	r5,r12
80005816:	58 0c       	cp.w	r12,0
80005818:	c3 70       	breq	80005886 <_musicMenu+0x76>
8000581a:	30 09       	mov	r9,0
8000581c:	4d 38       	lddpc	r8,80005968 <_musicMenu+0x158>
8000581e:	b0 89       	st.b	r8[0x0],r9
80005820:	f0 1f 00 53 	mcall	8000596c <_musicMenu+0x15c>
80005824:	c0 30       	breq	8000582a <_musicMenu+0x1a>
80005826:	f0 1f 00 53 	mcall	80005970 <_musicMenu+0x160>
8000582a:	30 07       	mov	r7,0
8000582c:	50 07       	stdsp	sp[0x0],r7
8000582e:	e0 68 00 f0 	mov	r8,240
80005832:	e0 69 01 40 	mov	r9,320
80005836:	0e 9a       	mov	r10,r7
80005838:	0e 9b       	mov	r11,r7
8000583a:	fa cc ff fc 	sub	r12,sp,-4
8000583e:	f0 1f 00 4e 	mcall	80005974 <_musicMenu+0x164>
80005842:	40 08       	lddsp	r8,sp[0x0]
80005844:	1a d8       	st.w	--sp,r8
80005846:	fa e8 00 08 	ld.d	r8,sp[8]
8000584a:	bb 29       	st.d	--sp,r8
8000584c:	f0 1f 00 4b 	mcall	80005978 <_musicMenu+0x168>
80005850:	f0 1f 00 4b 	mcall	8000597c <_musicMenu+0x16c>
80005854:	4c b8       	lddpc	r8,80005980 <_musicMenu+0x170>
80005856:	b0 87       	st.b	r8[0x0],r7
80005858:	30 47       	mov	r7,4
8000585a:	0e 9a       	mov	r10,r7
8000585c:	4c ab       	lddpc	r11,80005984 <_musicMenu+0x174>
8000585e:	fa cc ff e8 	sub	r12,sp,-24
80005862:	f0 1f 00 4a 	mcall	80005988 <_musicMenu+0x178>
80005866:	40 68       	lddsp	r8,sp[0x18]
80005868:	1a d8       	st.w	--sp,r8
8000586a:	f0 1f 00 49 	mcall	8000598c <_musicMenu+0x17c>
8000586e:	20 1d       	sub	sp,4
80005870:	0e 9a       	mov	r10,r7
80005872:	4c 8b       	lddpc	r11,80005990 <_musicMenu+0x180>
80005874:	1a 9c       	mov	r12,sp
80005876:	f0 1f 00 45 	mcall	80005988 <_musicMenu+0x178>
8000587a:	30 1a       	mov	r10,1
8000587c:	30 eb       	mov	r11,14
8000587e:	4c 6c       	lddpc	r12,80005994 <_musicMenu+0x184>
80005880:	f0 1f 00 46 	mcall	80005998 <_musicMenu+0x188>
80005884:	2f bd       	sub	sp,-20
80005886:	30 4a       	mov	r10,4
80005888:	4c 5b       	lddpc	r11,8000599c <_musicMenu+0x18c>
8000588a:	fa cc ff f0 	sub	r12,sp,-16
8000588e:	f0 1f 00 3f 	mcall	80005988 <_musicMenu+0x178>
80005892:	40 48       	lddsp	r8,sp[0x10]
80005894:	1a d8       	st.w	--sp,r8
80005896:	f0 1f 00 3e 	mcall	8000598c <_musicMenu+0x17c>
8000589a:	f0 1f 00 35 	mcall	8000596c <_musicMenu+0x15c>
8000589e:	2f fd       	sub	sp,-4
800058a0:	4b 28       	lddpc	r8,80005968 <_musicMenu+0x158>
800058a2:	11 88       	ld.ub	r8,r8[0x0]
800058a4:	f8 08 18 00 	cp.b	r8,r12
800058a8:	c2 80       	breq	800058f8 <_musicMenu+0xe8>
800058aa:	30 08       	mov	r8,0
800058ac:	50 58       	stdsp	sp[0x14],r8
800058ae:	e0 68 00 dc 	mov	r8,220
800058b2:	e0 69 01 40 	mov	r9,320
800058b6:	30 ea       	mov	r10,14
800058b8:	31 4b       	mov	r11,20
800058ba:	fa cc ff e8 	sub	r12,sp,-24
800058be:	f0 1f 00 2e 	mcall	80005974 <_musicMenu+0x164>
800058c2:	40 58       	lddsp	r8,sp[0x14]
800058c4:	1a d8       	st.w	--sp,r8
800058c6:	fa e8 00 1c 	ld.d	r8,sp[28]
800058ca:	bb 29       	st.d	--sp,r8
800058cc:	f0 1f 00 2b 	mcall	80005978 <_musicMenu+0x168>
800058d0:	f0 1f 00 27 	mcall	8000596c <_musicMenu+0x15c>
800058d4:	4a 58       	lddpc	r8,80005968 <_musicMenu+0x158>
800058d6:	b0 8c       	st.b	r8[0x0],r12
800058d8:	2f dd       	sub	sp,-12
800058da:	58 0c       	cp.w	r12,0
800058dc:	c1 41       	brne	80005904 <_musicMenu+0xf4>
800058de:	30 08       	mov	r8,0
800058e0:	50 88       	stdsp	sp[0x20],r8
800058e2:	31 f8       	mov	r8,31
800058e4:	fb 58 00 20 	st.h	sp[32],r8
800058e8:	40 88       	lddsp	r8,sp[0x20]
800058ea:	1a d8       	st.w	--sp,r8
800058ec:	0a 9a       	mov	r10,r5
800058ee:	30 cb       	mov	r11,12
800058f0:	4a cc       	lddpc	r12,800059a0 <_musicMenu+0x190>
800058f2:	f0 1f 00 2a 	mcall	80005998 <_musicMenu+0x188>
800058f6:	2f fd       	sub	sp,-4
800058f8:	49 c8       	lddpc	r8,80005968 <_musicMenu+0x158>
800058fa:	11 89       	ld.ub	r9,r8[0x0]
800058fc:	30 08       	mov	r8,0
800058fe:	f0 09 18 00 	cp.b	r9,r8
80005902:	c3 00       	breq	80005962 <_musicMenu+0x152>
80005904:	4a 88       	lddpc	r8,800059a4 <_musicMenu+0x194>
80005906:	11 89       	ld.ub	r9,r8[0x0]
80005908:	30 68       	mov	r8,6
8000590a:	f0 09 0d 48 	min	r8,r8,r9
8000590e:	58 08       	cp.w	r8,0
80005910:	e0 8a 00 29 	brle	80005962 <_musicMenu+0x152>
80005914:	30 06       	mov	r6,0
80005916:	0c 97       	mov	r7,r6
80005918:	4a 43       	lddpc	r3,800059a8 <_musicMenu+0x198>
8000591a:	4a 52       	lddpc	r2,800059ac <_musicMenu+0x19c>
8000591c:	49 d1       	lddpc	r1,80005990 <_musicMenu+0x180>
8000591e:	30 40       	mov	r0,4
80005920:	0a 94       	mov	r4,r5
80005922:	0c 95       	mov	r5,r6
80005924:	07 86       	ld.ub	r6,r3[0x0]
80005926:	ec 07 08 46 	asr	r6,r6,r7
8000592a:	ed d6 c0 01 	bfextu	r6,r6,0x0,0x1
8000592e:	a5 77       	lsl	r7,0x5
80005930:	04 07       	add	r7,r2
80005932:	20 1d       	sub	sp,4
80005934:	00 9a       	mov	r10,r0
80005936:	02 9b       	mov	r11,r1
80005938:	1a 9c       	mov	r12,sp
8000593a:	f0 1f 00 14 	mcall	80005988 <_musicMenu+0x178>
8000593e:	08 98       	mov	r8,r4
80005940:	08 99       	mov	r9,r4
80005942:	0c 9a       	mov	r10,r6
80005944:	31 9b       	mov	r11,25
80005946:	0e 9c       	mov	r12,r7
80005948:	f0 1f 00 1a 	mcall	800059b0 <_musicMenu+0x1a0>
8000594c:	2f f5       	sub	r5,-1
8000594e:	5c 55       	castu.b	r5
80005950:	0a 97       	mov	r7,r5
80005952:	49 59       	lddpc	r9,800059a4 <_musicMenu+0x194>
80005954:	13 88       	ld.ub	r8,r9[0x0]
80005956:	30 69       	mov	r9,6
80005958:	f2 08 0d 48 	min	r8,r9,r8
8000595c:	2f fd       	sub	sp,-4
8000595e:	10 35       	cp.w	r5,r8
80005960:	ce 25       	brlt	80005924 <_musicMenu+0x114>
80005962:	2f 7d       	sub	sp,-36
80005964:	d8 32       	popm	r0-r7,pc
80005966:	00 00       	add	r0,r0
80005968:	00 00       	add	r0,r0
8000596a:	07 fd       	ld.ub	sp,r3[0x7]
8000596c:	80 00       	ld.sh	r0,r0[0x0]
8000596e:	72 38       	ld.w	r8,r9[0xc]
80005970:	80 00       	ld.sh	r0,r0[0x0]
80005972:	72 44       	ld.w	r4,r9[0x10]
80005974:	80 00       	ld.sh	r0,r0[0x0]
80005976:	5e 20       	reths	r0
80005978:	80 00       	ld.sh	r0,r0[0x0]
8000597a:	5f 94       	srgt	r4
8000597c:	80 00       	ld.sh	r0,r0[0x0]
8000597e:	52 bc       	stdsp	sp[0xac],r12
80005980:	00 00       	add	r0,r0
80005982:	08 00       	add	r0,r4
80005984:	80 00       	ld.sh	r0,r0[0x0]
80005986:	ad 4a       	asr	r10,0xc
80005988:	80 00       	ld.sh	r0,r0[0x0]
8000598a:	76 9c       	ld.w	r12,r11[0x24]
8000598c:	80 00       	ld.sh	r0,r0[0x0]
8000598e:	3e d8       	mov	r8,-19
80005990:	00 00       	add	r0,r0
80005992:	04 0c       	add	r12,r2
80005994:	80 00       	ld.sh	r0,r0[0x0]
80005996:	ae 80       	st.b	r7[0x0],r0
80005998:	80 00       	ld.sh	r0,r0[0x0]
8000599a:	42 54       	lddsp	r4,sp[0x94]
8000599c:	80 00       	ld.sh	r0,r0[0x0]
8000599e:	ae e4       	st.b	r7[0x6],r4
800059a0:	80 00       	ld.sh	r0,r0[0x0]
800059a2:	ae 90       	st.b	r7[0x1],r0
800059a4:	00 00       	add	r0,r0
800059a6:	17 8c       	ld.ub	r12,r11[0x0]
800059a8:	00 00       	add	r0,r0
800059aa:	04 4f       	or	pc,r2
800059ac:	00 00       	add	r0,r0
800059ae:	0b 0c       	ld.w	r12,r5++
800059b0:	80 00       	ld.sh	r0,r0[0x0]
800059b2:	41 38       	lddsp	r8,sp[0x4c]

800059b4 <_mainMenu>:
800059b4:	d4 31       	pushm	r0-r7,lr
800059b6:	21 6d       	sub	sp,88
800059b8:	18 97       	mov	r7,r12
800059ba:	58 0c       	cp.w	r12,0
800059bc:	c3 30       	breq	80005a22 <_mainMenu+0x6e>
800059be:	30 06       	mov	r6,0
800059c0:	51 16       	stdsp	sp[0x44],r6
800059c2:	e0 68 00 f0 	mov	r8,240
800059c6:	e0 69 01 40 	mov	r9,320
800059ca:	0c 9a       	mov	r10,r6
800059cc:	0c 9b       	mov	r11,r6
800059ce:	fa cc ff b8 	sub	r12,sp,-72
800059d2:	f0 1f 00 b4 	mcall	80005ca0 <_mainMenu+0x2ec>
800059d6:	41 18       	lddsp	r8,sp[0x44]
800059d8:	1a d8       	st.w	--sp,r8
800059da:	fa e8 00 4c 	ld.d	r8,sp[76]
800059de:	bb 29       	st.d	--sp,r8
800059e0:	f0 1f 00 b1 	mcall	80005ca4 <_mainMenu+0x2f0>
800059e4:	f0 1f 00 b1 	mcall	80005ca8 <_mainMenu+0x2f4>
800059e8:	fe f8 02 c4 	ld.w	r8,pc[708]
800059ec:	b0 86       	st.b	r8[0x0],r6
800059ee:	30 46       	mov	r6,4
800059f0:	0c 9a       	mov	r10,r6
800059f2:	fe fb 02 be 	ld.w	r11,pc[702]
800059f6:	fa cc ff a4 	sub	r12,sp,-92
800059fa:	f0 1f 00 af 	mcall	80005cb4 <_mainMenu+0x300>
800059fe:	41 78       	lddsp	r8,sp[0x5c]
80005a00:	1a d8       	st.w	--sp,r8
80005a02:	f0 1f 00 ae 	mcall	80005cb8 <_mainMenu+0x304>
80005a06:	20 1d       	sub	sp,4
80005a08:	0c 9a       	mov	r10,r6
80005a0a:	fe fb 02 b2 	ld.w	r11,pc[690]
80005a0e:	1a 9c       	mov	r12,sp
80005a10:	f0 1f 00 a9 	mcall	80005cb4 <_mainMenu+0x300>
80005a14:	30 1a       	mov	r10,1
80005a16:	31 1b       	mov	r11,17
80005a18:	fe fc 02 a8 	ld.w	r12,pc[680]
80005a1c:	f0 1f 00 aa 	mcall	80005cc4 <_mainMenu+0x310>
80005a20:	2f bd       	sub	sp,-20
80005a22:	fe f6 02 a6 	ld.w	r6,pc[678]
80005a26:	0d c9       	ld.ub	r9,r6[0x4]
80005a28:	f3 d9 c0 27 	bfextu	r9,r9,0x1,0x7
80005a2c:	0d d1       	ld.ub	r1,r6[0x5]
80005a2e:	e3 d1 c0 27 	bfextu	r1,r1,0x1,0x7
80005a32:	50 01       	stdsp	sp[0x0],r1
80005a34:	30 02       	mov	r2,0
80005a36:	30 03       	mov	r3,0
80005a38:	fa e3 00 30 	st.d	sp[48],r2
80005a3c:	fa e3 00 38 	st.d	sp[56],r2
80005a40:	30 05       	mov	r5,0
80005a42:	fb 65 00 40 	st.b	sp[64],r5
80005a46:	35 48       	mov	r8,84
80005a48:	fb 68 00 28 	st.b	sp[40],r8
80005a4c:	36 98       	mov	r8,105
80005a4e:	fb 68 00 29 	st.b	sp[41],r8
80005a52:	36 dc       	mov	r12,109
80005a54:	fb 6c 00 2a 	st.b	sp[42],r12
80005a58:	36 5e       	mov	lr,101
80005a5a:	fb 6e 00 2b 	st.b	sp[43],lr
80005a5e:	32 08       	mov	r8,32
80005a60:	fb 68 00 2c 	st.b	sp[44],r8
80005a64:	33 d4       	mov	r4,61
80005a66:	fb 64 00 2d 	st.b	sp[45],r4
80005a6a:	fb 68 00 2e 	st.b	sp[46],r8
80005a6e:	e0 6a 66 67 	mov	r10,26215
80005a72:	ea 1a 66 66 	orh	r10,0x6666
80005a76:	f2 0a 04 40 	muls.d	r0,r9,r10
80005a7a:	fa e1 00 04 	st.d	sp[4],r0
80005a7e:	40 1b       	lddsp	r11,sp[0x4]
80005a80:	a3 4b       	asr	r11,0x2
80005a82:	f6 c0 ff d0 	sub	r0,r11,-48
80005a86:	fb 60 00 2f 	st.b	sp[47],r0
80005a8a:	f6 0b 00 2b 	add	r11,r11,r11<<0x2
80005a8e:	f2 0b 01 19 	sub	r9,r9,r11<<0x1
80005a92:	2d 09       	sub	r9,-48
80005a94:	fb 69 00 30 	st.b	sp[48],r9
80005a98:	36 89       	mov	r9,104
80005a9a:	fb 69 00 31 	st.b	sp[49],r9
80005a9e:	fb 68 00 32 	st.b	sp[50],r8
80005aa2:	40 00       	lddsp	r0,sp[0x0]
80005aa4:	e0 0a 04 40 	muls.d	r0,r0,r10
80005aa8:	fa e1 00 04 	st.d	sp[4],r0
80005aac:	40 19       	lddsp	r9,sp[0x4]
80005aae:	a3 49       	asr	r9,0x2
80005ab0:	f2 cb ff d0 	sub	r11,r9,-48
80005ab4:	fb 6b 00 33 	st.b	sp[51],r11
80005ab8:	f2 09 00 29 	add	r9,r9,r9<<0x2
80005abc:	40 0b       	lddsp	r11,sp[0x0]
80005abe:	f6 09 01 11 	sub	r1,r11,r9<<0x1
80005ac2:	2d 01       	sub	r1,-48
80005ac4:	fb 61 00 34 	st.b	sp[52],r1
80005ac8:	fb 6c 00 35 	st.b	sp[53],r12
80005acc:	0d ab       	ld.ub	r11,r6[0x2]
80005ace:	f7 db c0 46 	bfextu	r11,r11,0x2,0x6
80005ad2:	0d 9c       	ld.ub	r12,r6[0x1]
80005ad4:	0d 89       	ld.ub	r9,r6[0x0]
80005ad6:	fa e3 00 1c 	st.d	sp[28],r2
80005ada:	fb 65 00 24 	st.b	sp[36],r5
80005ade:	34 43       	mov	r3,68
80005ae0:	fb 63 00 0c 	st.b	sp[12],r3
80005ae4:	36 13       	mov	r3,97
80005ae6:	fb 63 00 0d 	st.b	sp[13],r3
80005aea:	37 43       	mov	r3,116
80005aec:	fb 63 00 0e 	st.b	sp[14],r3
80005af0:	fb 6e 00 0f 	st.b	sp[15],lr
80005af4:	fb 68 00 10 	st.b	sp[16],r8
80005af8:	fb 64 00 11 	st.b	sp[17],r4
80005afc:	fb 68 00 12 	st.b	sp[18],r8
80005b00:	f6 0a 04 42 	muls.d	r2,r11,r10
80005b04:	e6 0a 14 02 	asr	r10,r3,0x2
80005b08:	f4 c8 ff d0 	sub	r8,r10,-48
80005b0c:	fb 68 00 13 	st.b	sp[19],r8
80005b10:	f4 0a 00 2a 	add	r10,r10,r10<<0x2
80005b14:	f6 0a 01 1b 	sub	r11,r11,r10<<0x1
80005b18:	2d 0b       	sub	r11,-48
80005b1a:	fb 6b 00 14 	st.b	sp[20],r11
80005b1e:	32 fb       	mov	r11,47
80005b20:	fb 6b 00 15 	st.b	sp[21],r11
80005b24:	e0 6a cc cd 	mov	r10,52429
80005b28:	ea 1a cc cc 	orh	r10,0xcccc
80005b2c:	f8 0a 06 42 	mulu.d	r2,r12,r10
80005b30:	e6 08 16 03 	lsr	r8,r3,0x3
80005b34:	f0 ce ff d0 	sub	lr,r8,-48
80005b38:	fb 6e 00 16 	st.b	sp[22],lr
80005b3c:	f0 08 00 28 	add	r8,r8,r8<<0x2
80005b40:	f8 08 01 1c 	sub	r12,r12,r8<<0x1
80005b44:	2d 0c       	sub	r12,-48
80005b46:	fb 6c 00 17 	st.b	sp[23],r12
80005b4a:	fb 6b 00 18 	st.b	sp[24],r11
80005b4e:	33 28       	mov	r8,50
80005b50:	fb 68 00 19 	st.b	sp[25],r8
80005b54:	e0 63 85 1f 	mov	r3,34079
80005b58:	ea 13 51 eb 	orh	r3,0x51eb
80005b5c:	f2 03 06 42 	mulu.d	r2,r9,r3
80005b60:	e6 08 16 05 	lsr	r8,r3,0x5
80005b64:	2d 08       	sub	r8,-48
80005b66:	fb 68 00 1a 	st.b	sp[26],r8
80005b6a:	f2 0a 06 42 	mulu.d	r2,r9,r10
80005b6e:	e6 08 16 03 	lsr	r8,r3,0x3
80005b72:	f7 d8 c0 08 	bfextu	r11,r8,0x0,0x8
80005b76:	f6 0a 06 42 	mulu.d	r2,r11,r10
80005b7a:	e6 0a 16 03 	lsr	r10,r3,0x3
80005b7e:	f4 0a 00 2a 	add	r10,r10,r10<<0x2
80005b82:	f6 0a 01 1b 	sub	r11,r11,r10<<0x1
80005b86:	2d 0b       	sub	r11,-48
80005b88:	fb 6b 00 1b 	st.b	sp[27],r11
80005b8c:	f0 08 00 28 	add	r8,r8,r8<<0x2
80005b90:	f2 08 01 19 	sub	r9,r9,r8<<0x1
80005b94:	2d 09       	sub	r9,-48
80005b96:	fb 69 00 1c 	st.b	sp[28],r9
80005b9a:	30 44       	mov	r4,4
80005b9c:	08 9a       	mov	r10,r4
80005b9e:	4c cb       	lddpc	r11,80005ccc <_mainMenu+0x318>
80005ba0:	fa cc ff ac 	sub	r12,sp,-84
80005ba4:	f0 1f 00 44 	mcall	80005cb4 <_mainMenu+0x300>
80005ba8:	41 58       	lddsp	r8,sp[0x54]
80005baa:	1a d8       	st.w	--sp,r8
80005bac:	f0 1f 00 43 	mcall	80005cb8 <_mainMenu+0x304>
80005bb0:	0d b3       	ld.ub	r3,r6[0x3]
80005bb2:	e7 d3 c0 a3 	bfextu	r3,r3,0x5,0x3
80005bb6:	e6 03 00 33 	add	r3,r3,r3<<0x3
80005bba:	4c 68       	lddpc	r8,80005cd0 <_mainMenu+0x31c>
80005bbc:	f0 03 00 03 	add	r3,r8,r3
80005bc0:	4b f6       	lddpc	r6,80005cbc <_mainMenu+0x308>
80005bc2:	20 1d       	sub	sp,4
80005bc4:	08 9a       	mov	r10,r4
80005bc6:	0c 9b       	mov	r11,r6
80005bc8:	1a 9c       	mov	r12,sp
80005bca:	f0 1f 00 3b 	mcall	80005cb4 <_mainMenu+0x300>
80005bce:	0e 98       	mov	r8,r7
80005bd0:	0e 99       	mov	r9,r7
80005bd2:	30 0a       	mov	r10,0
80005bd4:	30 8b       	mov	r11,8
80005bd6:	06 9c       	mov	r12,r3
80005bd8:	f0 1f 00 3f 	mcall	80005cd4 <_mainMenu+0x320>
80005bdc:	20 1d       	sub	sp,4
80005bde:	08 9a       	mov	r10,r4
80005be0:	0c 9b       	mov	r11,r6
80005be2:	1a 9c       	mov	r12,sp
80005be4:	f0 1f 00 34 	mcall	80005cb4 <_mainMenu+0x300>
80005be8:	0e 98       	mov	r8,r7
80005bea:	0e 99       	mov	r9,r7
80005bec:	30 0a       	mov	r10,0
80005bee:	31 9b       	mov	r11,25
80005bf0:	fa cc ff e8 	sub	r12,sp,-24
80005bf4:	f0 1f 00 38 	mcall	80005cd4 <_mainMenu+0x320>
80005bf8:	2f ed       	sub	sp,-8
80005bfa:	4b 88       	lddpc	r8,80005cd8 <_mainMenu+0x324>
80005bfc:	11 88       	ld.ub	r8,r8[0x0]
80005bfe:	ea 08 18 00 	cp.b	r8,r5
80005c02:	ee 05 17 00 	moveq	r5,r7
80005c06:	f9 b5 01 01 	movne	r5,1
80005c0a:	5c 55       	castu.b	r5
80005c0c:	08 9a       	mov	r10,r4
80005c0e:	0c 9b       	mov	r11,r6
80005c10:	1a 9c       	mov	r12,sp
80005c12:	f0 1f 00 29 	mcall	80005cb4 <_mainMenu+0x300>
80005c16:	0e 98       	mov	r8,r7
80005c18:	0a 99       	mov	r9,r5
80005c1a:	30 0a       	mov	r10,0
80005c1c:	31 9b       	mov	r11,25
80005c1e:	fa cc ff d4 	sub	r12,sp,-44
80005c22:	f0 1f 00 2d 	mcall	80005cd4 <_mainMenu+0x320>
80005c26:	4a e8       	lddpc	r8,80005cdc <_mainMenu+0x328>
80005c28:	11 88       	ld.ub	r8,r8[0x0]
80005c2a:	08 0d       	add	sp,r4
80005c2c:	58 08       	cp.w	r8,0
80005c2e:	c1 21       	brne	80005c52 <_mainMenu+0x29e>
80005c30:	4a c7       	lddpc	r7,80005ce0 <_mainMenu+0x32c>
80005c32:	0f 86       	ld.ub	r6,r7[0x0]
80005c34:	20 1d       	sub	sp,4
80005c36:	08 9a       	mov	r10,r4
80005c38:	4a 1b       	lddpc	r11,80005cbc <_mainMenu+0x308>
80005c3a:	1a 9c       	mov	r12,sp
80005c3c:	f0 1f 00 1e 	mcall	80005cb4 <_mainMenu+0x300>
80005c40:	0c 9a       	mov	r10,r6
80005c42:	30 fb       	mov	r11,15
80005c44:	4a 8c       	lddpc	r12,80005ce4 <_mainMenu+0x330>
80005c46:	f0 1f 00 29 	mcall	80005ce8 <_mainMenu+0x334>
80005c4a:	30 08       	mov	r8,0
80005c4c:	ae 88       	st.b	r7[0x0],r8
80005c4e:	08 0d       	add	sp,r4
80005c50:	c2 68       	rjmp	80005c9c <_mainMenu+0x2e8>
80005c52:	30 19       	mov	r9,1
80005c54:	f2 08 18 00 	cp.b	r8,r9
80005c58:	c1 21       	brne	80005c7c <_mainMenu+0x2c8>
80005c5a:	4a 27       	lddpc	r7,80005ce0 <_mainMenu+0x32c>
80005c5c:	0f 86       	ld.ub	r6,r7[0x0]
80005c5e:	20 1d       	sub	sp,4
80005c60:	30 4a       	mov	r10,4
80005c62:	49 7b       	lddpc	r11,80005cbc <_mainMenu+0x308>
80005c64:	1a 9c       	mov	r12,sp
80005c66:	f0 1f 00 14 	mcall	80005cb4 <_mainMenu+0x300>
80005c6a:	0c 9a       	mov	r10,r6
80005c6c:	31 0b       	mov	r11,16
80005c6e:	4a 0c       	lddpc	r12,80005cec <_mainMenu+0x338>
80005c70:	f0 1f 00 1e 	mcall	80005ce8 <_mainMenu+0x334>
80005c74:	30 08       	mov	r8,0
80005c76:	ae 88       	st.b	r7[0x0],r8
80005c78:	2f fd       	sub	sp,-4
80005c7a:	c1 18       	rjmp	80005c9c <_mainMenu+0x2e8>
80005c7c:	49 97       	lddpc	r7,80005ce0 <_mainMenu+0x32c>
80005c7e:	0f 86       	ld.ub	r6,r7[0x0]
80005c80:	20 1d       	sub	sp,4
80005c82:	30 4a       	mov	r10,4
80005c84:	48 eb       	lddpc	r11,80005cbc <_mainMenu+0x308>
80005c86:	1a 9c       	mov	r12,sp
80005c88:	f0 1f 00 0b 	mcall	80005cb4 <_mainMenu+0x300>
80005c8c:	0c 9a       	mov	r10,r6
80005c8e:	30 bb       	mov	r11,11
80005c90:	49 8c       	lddpc	r12,80005cf0 <_mainMenu+0x33c>
80005c92:	f0 1f 00 16 	mcall	80005ce8 <_mainMenu+0x334>
80005c96:	30 08       	mov	r8,0
80005c98:	ae 88       	st.b	r7[0x0],r8
80005c9a:	2f fd       	sub	sp,-4
80005c9c:	2e ad       	sub	sp,-88
80005c9e:	d8 32       	popm	r0-r7,pc
80005ca0:	80 00       	ld.sh	r0,r0[0x0]
80005ca2:	5e 20       	reths	r0
80005ca4:	80 00       	ld.sh	r0,r0[0x0]
80005ca6:	5f 94       	srgt	r4
80005ca8:	80 00       	ld.sh	r0,r0[0x0]
80005caa:	52 bc       	stdsp	sp[0xac],r12
80005cac:	00 00       	add	r0,r0
80005cae:	08 00       	add	r0,r4
80005cb0:	80 00       	ld.sh	r0,r0[0x0]
80005cb2:	ad 42       	asr	r2,0xc
80005cb4:	80 00       	ld.sh	r0,r0[0x0]
80005cb6:	76 9c       	ld.w	r12,r11[0x24]
80005cb8:	80 00       	ld.sh	r0,r0[0x0]
80005cba:	3e d8       	mov	r8,-19
80005cbc:	00 00       	add	r0,r0
80005cbe:	04 0c       	add	r12,r2
80005cc0:	80 00       	ld.sh	r0,r0[0x0]
80005cc2:	ae a0       	st.b	r7[0x2],r0
80005cc4:	80 00       	ld.sh	r0,r0[0x0]
80005cc6:	42 54       	lddsp	r4,sp[0x94]
80005cc8:	00 00       	add	r0,r0
80005cca:	0a f3       	st.b	--r5,r3
80005ccc:	80 00       	ld.sh	r0,r0[0x0]
80005cce:	ad 46       	asr	r6,0xc
80005cd0:	00 00       	add	r0,r0
80005cd2:	04 10       	sub	r0,r2
80005cd4:	80 00       	ld.sh	r0,r0[0x0]
80005cd6:	41 38       	lddsp	r8,sp[0x4c]
80005cd8:	00 00       	add	r0,r0
80005cda:	08 18       	sub	r8,r4
80005cdc:	00 00       	add	r0,r0
80005cde:	07 fe       	ld.ub	lr,r3[0x7]
80005ce0:	00 00       	add	r0,r0
80005ce2:	04 6c       	and	r12,r2
80005ce4:	80 00       	ld.sh	r0,r0[0x0]
80005ce6:	ae b4       	st.b	r7[0x3],r4
80005ce8:	80 00       	ld.sh	r0,r0[0x0]
80005cea:	40 74       	lddsp	r4,sp[0x1c]
80005cec:	80 00       	ld.sh	r0,r0[0x0]
80005cee:	ae 6c       	st.h	r7[0xc],r12
80005cf0:	80 00       	ld.sh	r0,r0[0x0]
80005cf2:	ae c4       	st.b	r7[0x4],r4

80005cf4 <gui_Init>:
80005cf4:	eb cd 40 c0 	pushm	r6-r7,lr
80005cf8:	20 3d       	sub	sp,12
80005cfa:	33 8c       	mov	r12,56
80005cfc:	f0 1f 00 2b 	mcall	80005da8 <gui_Init+0xb4>
80005d00:	33 8c       	mov	r12,56
80005d02:	f0 1f 00 2b 	mcall	80005dac <gui_Init+0xb8>
80005d06:	30 1b       	mov	r11,1
80005d08:	33 8c       	mov	r12,56
80005d0a:	f0 1f 00 2a 	mcall	80005db0 <gui_Init+0xbc>
80005d0e:	33 9c       	mov	r12,57
80005d10:	f0 1f 00 26 	mcall	80005da8 <gui_Init+0xb4>
80005d14:	33 9c       	mov	r12,57
80005d16:	f0 1f 00 26 	mcall	80005dac <gui_Init+0xb8>
80005d1a:	30 1b       	mov	r11,1
80005d1c:	33 9c       	mov	r12,57
80005d1e:	f0 1f 00 25 	mcall	80005db0 <gui_Init+0xbc>
80005d22:	33 ac       	mov	r12,58
80005d24:	f0 1f 00 21 	mcall	80005da8 <gui_Init+0xb4>
80005d28:	33 ac       	mov	r12,58
80005d2a:	f0 1f 00 21 	mcall	80005dac <gui_Init+0xb8>
80005d2e:	30 1b       	mov	r11,1
80005d30:	33 ac       	mov	r12,58
80005d32:	f0 1f 00 20 	mcall	80005db0 <gui_Init+0xbc>
80005d36:	33 bc       	mov	r12,59
80005d38:	f0 1f 00 1c 	mcall	80005da8 <gui_Init+0xb4>
80005d3c:	33 bc       	mov	r12,59
80005d3e:	f0 1f 00 1c 	mcall	80005dac <gui_Init+0xb8>
80005d42:	30 1b       	mov	r11,1
80005d44:	33 bc       	mov	r12,59
80005d46:	f0 1f 00 1b 	mcall	80005db0 <gui_Init+0xbc>
80005d4a:	30 0a       	mov	r10,0
80005d4c:	34 7b       	mov	r11,71
80005d4e:	49 ac       	lddpc	r12,80005db4 <gui_Init+0xc0>
80005d50:	f0 1f 00 1a 	mcall	80005db8 <gui_Init+0xc4>
80005d54:	30 27       	mov	r7,2
80005d56:	50 17       	stdsp	sp[0x4],r7
80005d58:	30 36       	mov	r6,3
80005d5a:	ec 08 15 0d 	lsl	r8,r6,0xd
80005d5e:	30 49       	mov	r9,4
80005d60:	f1 d9 d0 03 	bfins	r8,r9,0x0,0x3
80005d64:	50 28       	stdsp	sp[0x8],r8
80005d66:	30 08       	mov	r8,0
80005d68:	30 19       	mov	r9,1
80005d6a:	f1 d9 d0 81 	bfins	r8,r9,0x4,0x1
80005d6e:	50 08       	stdsp	sp[0x0],r8
80005d70:	fa cb ff fc 	sub	r11,sp,-4
80005d74:	fe 7c 38 00 	mov	r12,-51200
80005d78:	f0 1f 00 11 	mcall	80005dbc <gui_Init+0xc8>
80005d7c:	e0 6a fd e8 	mov	r10,65000
80005d80:	0e 9b       	mov	r11,r7
80005d82:	fe 7c 38 00 	mov	r12,-51200
80005d86:	f0 1f 00 0f 	mcall	80005dc0 <gui_Init+0xcc>
80005d8a:	1a 9a       	mov	r10,sp
80005d8c:	0e 9b       	mov	r11,r7
80005d8e:	fe 7c 38 00 	mov	r12,-51200
80005d92:	f0 1f 00 0d 	mcall	80005dc4 <gui_Init+0xd0>
80005d96:	0c 9a       	mov	r10,r6
80005d98:	e0 6b 01 c2 	mov	r11,450
80005d9c:	48 bc       	lddpc	r12,80005dc8 <gui_Init+0xd4>
80005d9e:	f0 1f 00 07 	mcall	80005db8 <gui_Init+0xc4>
80005da2:	2f dd       	sub	sp,-12
80005da4:	e3 cd 80 c0 	ldm	sp++,r6-r7,pc
80005da8:	80 00       	ld.sh	r0,r0[0x0]
80005daa:	2a 42       	sub	r2,-92
80005dac:	80 00       	ld.sh	r0,r0[0x0]
80005dae:	29 f4       	sub	r4,-97
80005db0:	80 00       	ld.sh	r0,r0[0x0]
80005db2:	2a 58       	sub	r8,-91
80005db4:	80 00       	ld.sh	r0,r0[0x0]
80005db6:	45 a4       	lddsp	r4,sp[0x168]
80005db8:	80 00       	ld.sh	r0,r0[0x0]
80005dba:	2a e4       	sub	r4,-82
80005dbc:	80 00       	ld.sh	r0,r0[0x0]
80005dbe:	30 ea       	mov	r10,14
80005dc0:	80 00       	ld.sh	r0,r0[0x0]
80005dc2:	31 aa       	mov	r10,26
80005dc4:	80 00       	ld.sh	r0,r0[0x0]
80005dc6:	31 de       	mov	lr,29
80005dc8:	80 00       	ld.sh	r0,r0[0x0]
80005dca:	45 64       	lddsp	r4,sp[0x158]

80005dcc <rectangle_GetArea>:
80005dcc:	eb cd 00 10 	pushm	r4
80005dd0:	20 1d       	sub	sp,4
80005dd2:	fa c4 ff f8 	sub	r4,sp,-8
80005dd6:	09 e9       	ld.ub	r9,r4[0x6]
80005dd8:	2f f9       	sub	r9,-1
80005dda:	09 aa       	ld.ub	r10,r4[0x2]
80005ddc:	14 19       	sub	r9,r10
80005dde:	88 a8       	ld.uh	r8,r4[0x4]
80005de0:	2f f8       	sub	r8,-1
80005de2:	88 8a       	ld.uh	r10,r4[0x0]
80005de4:	14 18       	sub	r8,r10
80005de6:	f2 08 02 48 	mul	r8,r9,r8
80005dea:	50 08       	stdsp	sp[0x0],r8
80005dec:	40 0c       	lddsp	r12,sp[0x0]
80005dee:	2f fd       	sub	sp,-4
80005df0:	e3 cd 00 10 	ldm	sp++,r4
80005df4:	5e fc       	retal	r12

80005df6 <rectangle_VerifySize>:
80005df6:	98 08       	ld.sh	r8,r12[0x0]
80005df8:	f6 08 19 00 	cp.h	r8,r11
80005dfc:	f9 fb bc 00 	st.hhi	r12[0x0],r11
80005e00:	98 28       	ld.sh	r8,r12[0x4]
80005e02:	f6 08 19 00 	cp.h	r8,r11
80005e06:	f9 fb bc 02 	st.hhi	r12[0x4],r11
80005e0a:	19 a8       	ld.ub	r8,r12[0x2]
80005e0c:	f4 08 18 00 	cp.b	r8,r10
80005e10:	f9 fa be 02 	st.bhi	r12[0x2],r10
80005e14:	19 e8       	ld.ub	r8,r12[0x6]
80005e16:	f4 08 18 00 	cp.b	r8,r10
80005e1a:	f9 fa be 06 	st.bhi	r12[0x6],r10
80005e1e:	5e fc       	retal	r12

80005e20 <Rect>:
80005e20:	d4 01       	pushm	lr
80005e22:	18 9e       	mov	lr,r12
80005e24:	b8 0b       	st.h	r12[0x0],r11
80005e26:	b8 aa       	st.b	r12[0x2],r10
80005e28:	b8 29       	st.h	r12[0x4],r9
80005e2a:	b8 e8       	st.b	r12[0x6],r8
80005e2c:	d8 02       	popm	pc
80005e2e:	d7 03       	nop

80005e30 <_writeRegister>:
80005e30:	eb cd 40 c0 	pushm	r6-r7,lr
80005e34:	18 96       	mov	r6,r12
80005e36:	16 97       	mov	r7,r11
80005e38:	30 0b       	mov	r11,0
80005e3a:	fe 7c 24 00 	mov	r12,-56320
80005e3e:	f0 1f 00 1a 	mcall	80005ea4 <_writeRegister+0x74>
80005e42:	37 0b       	mov	r11,112
80005e44:	fe 7c 24 00 	mov	r12,-56320
80005e48:	f0 1f 00 18 	mcall	80005ea8 <_writeRegister+0x78>
80005e4c:	30 0b       	mov	r11,0
80005e4e:	fe 7c 24 00 	mov	r12,-56320
80005e52:	f0 1f 00 16 	mcall	80005ea8 <_writeRegister+0x78>
80005e56:	0c 9b       	mov	r11,r6
80005e58:	fe 7c 24 00 	mov	r12,-56320
80005e5c:	f0 1f 00 13 	mcall	80005ea8 <_writeRegister+0x78>
80005e60:	30 0b       	mov	r11,0
80005e62:	fe 7c 24 00 	mov	r12,-56320
80005e66:	f0 1f 00 12 	mcall	80005eac <_writeRegister+0x7c>
80005e6a:	30 0b       	mov	r11,0
80005e6c:	fe 7c 24 00 	mov	r12,-56320
80005e70:	f0 1f 00 0d 	mcall	80005ea4 <_writeRegister+0x74>
80005e74:	37 2b       	mov	r11,114
80005e76:	fe 7c 24 00 	mov	r12,-56320
80005e7a:	f0 1f 00 0c 	mcall	80005ea8 <_writeRegister+0x78>
80005e7e:	f7 d7 c1 08 	bfextu	r11,r7,0x8,0x8
80005e82:	fe 7c 24 00 	mov	r12,-56320
80005e86:	f0 1f 00 09 	mcall	80005ea8 <_writeRegister+0x78>
80005e8a:	0e 9b       	mov	r11,r7
80005e8c:	5c 5b       	castu.b	r11
80005e8e:	fe 7c 24 00 	mov	r12,-56320
80005e92:	f0 1f 00 06 	mcall	80005ea8 <_writeRegister+0x78>
80005e96:	30 0b       	mov	r11,0
80005e98:	fe 7c 24 00 	mov	r12,-56320
80005e9c:	f0 1f 00 04 	mcall	80005eac <_writeRegister+0x7c>
80005ea0:	e3 cd 80 c0 	ldm	sp++,r6-r7,pc
80005ea4:	80 00       	ld.sh	r0,r0[0x0]
80005ea6:	2f 7e       	sub	lr,-9
80005ea8:	80 00       	ld.sh	r0,r0[0x0]
80005eaa:	30 ae       	mov	lr,10
80005eac:	80 00       	ld.sh	r0,r0[0x0]
80005eae:	2f ca       	sub	r10,-4

80005eb0 <_setStart>:
80005eb0:	eb cd 40 10 	pushm	r4,lr
80005eb4:	fa c4 ff f8 	sub	r4,sp,-8
80005eb8:	09 ab       	ld.ub	r11,r4[0x2]
80005eba:	32 0c       	mov	r12,32
80005ebc:	f0 1f 00 04 	mcall	80005ecc <_setStart+0x1c>
80005ec0:	88 8b       	ld.uh	r11,r4[0x0]
80005ec2:	32 1c       	mov	r12,33
80005ec4:	f0 1f 00 02 	mcall	80005ecc <_setStart+0x1c>
80005ec8:	e3 cd 80 10 	ldm	sp++,r4,pc
80005ecc:	80 00       	ld.sh	r0,r0[0x0]
80005ece:	5e 30       	retlo	r0

80005ed0 <_setLimits>:
80005ed0:	eb cd 40 10 	pushm	r4,lr
80005ed4:	fa c4 ff f8 	sub	r4,sp,-8
80005ed8:	09 ab       	ld.ub	r11,r4[0x2]
80005eda:	35 0c       	mov	r12,80
80005edc:	f0 1f 00 08 	mcall	80005efc <_setLimits+0x2c>
80005ee0:	09 eb       	ld.ub	r11,r4[0x6]
80005ee2:	35 1c       	mov	r12,81
80005ee4:	f0 1f 00 06 	mcall	80005efc <_setLimits+0x2c>
80005ee8:	88 8b       	ld.uh	r11,r4[0x0]
80005eea:	35 2c       	mov	r12,82
80005eec:	f0 1f 00 04 	mcall	80005efc <_setLimits+0x2c>
80005ef0:	88 ab       	ld.uh	r11,r4[0x4]
80005ef2:	35 2c       	mov	r12,82
80005ef4:	f0 1f 00 02 	mcall	80005efc <_setLimits+0x2c>
80005ef8:	e3 cd 80 10 	ldm	sp++,r4,pc
80005efc:	80 00       	ld.sh	r0,r0[0x0]
80005efe:	5e 30       	retlo	r0

80005f00 <_selectRegister>:
80005f00:	eb cd 40 80 	pushm	r7,lr
80005f04:	18 97       	mov	r7,r12
80005f06:	30 0b       	mov	r11,0
80005f08:	fe 7c 24 00 	mov	r12,-56320
80005f0c:	f0 1f 00 0c 	mcall	80005f3c <_selectRegister+0x3c>
80005f10:	37 0b       	mov	r11,112
80005f12:	fe 7c 24 00 	mov	r12,-56320
80005f16:	f0 1f 00 0b 	mcall	80005f40 <_selectRegister+0x40>
80005f1a:	30 0b       	mov	r11,0
80005f1c:	fe 7c 24 00 	mov	r12,-56320
80005f20:	f0 1f 00 08 	mcall	80005f40 <_selectRegister+0x40>
80005f24:	0e 9b       	mov	r11,r7
80005f26:	fe 7c 24 00 	mov	r12,-56320
80005f2a:	f0 1f 00 06 	mcall	80005f40 <_selectRegister+0x40>
80005f2e:	30 0b       	mov	r11,0
80005f30:	fe 7c 24 00 	mov	r12,-56320
80005f34:	f0 1f 00 04 	mcall	80005f44 <_selectRegister+0x44>
80005f38:	e3 cd 80 80 	ldm	sp++,r7,pc
80005f3c:	80 00       	ld.sh	r0,r0[0x0]
80005f3e:	2f 7e       	sub	lr,-9
80005f40:	80 00       	ld.sh	r0,r0[0x0]
80005f42:	30 ae       	mov	lr,10
80005f44:	80 00       	ld.sh	r0,r0[0x0]
80005f46:	2f ca       	sub	r10,-4

80005f48 <_writeRAM>:
80005f48:	eb cd 40 80 	pushm	r7,lr
80005f4c:	18 97       	mov	r7,r12
80005f4e:	30 0b       	mov	r11,0
80005f50:	fe 7c 24 00 	mov	r12,-56320
80005f54:	f0 1f 00 0d 	mcall	80005f88 <_writeRAM+0x40>
80005f58:	37 2b       	mov	r11,114
80005f5a:	fe 7c 24 00 	mov	r12,-56320
80005f5e:	f0 1f 00 0c 	mcall	80005f8c <_writeRAM+0x44>
80005f62:	f7 d7 c1 08 	bfextu	r11,r7,0x8,0x8
80005f66:	fe 7c 24 00 	mov	r12,-56320
80005f6a:	f0 1f 00 09 	mcall	80005f8c <_writeRAM+0x44>
80005f6e:	0e 9b       	mov	r11,r7
80005f70:	5c 5b       	castu.b	r11
80005f72:	fe 7c 24 00 	mov	r12,-56320
80005f76:	f0 1f 00 06 	mcall	80005f8c <_writeRAM+0x44>
80005f7a:	30 0b       	mov	r11,0
80005f7c:	fe 7c 24 00 	mov	r12,-56320
80005f80:	f0 1f 00 04 	mcall	80005f90 <_writeRAM+0x48>
80005f84:	e3 cd 80 80 	ldm	sp++,r7,pc
80005f88:	80 00       	ld.sh	r0,r0[0x0]
80005f8a:	2f 7e       	sub	lr,-9
80005f8c:	80 00       	ld.sh	r0,r0[0x0]
80005f8e:	30 ae       	mov	lr,10
80005f90:	80 00       	ld.sh	r0,r0[0x0]
80005f92:	2f ca       	sub	r10,-4

80005f94 <screen_SetPixels>:
80005f94:	eb cd 40 d0 	pushm	r4,r6-r7,lr
80005f98:	20 3d       	sub	sp,12
80005f9a:	fa c4 ff e4 	sub	r4,sp,-28
80005f9e:	e0 6a 00 f0 	mov	r10,240
80005fa2:	e0 6b 01 40 	mov	r11,320
80005fa6:	08 9c       	mov	r12,r4
80005fa8:	f0 1f 00 1b 	mcall	80006014 <screen_SetPixels+0x80>
80005fac:	e8 e8 00 00 	ld.d	r8,r4[0]
80005fb0:	bb 29       	st.d	--sp,r8
80005fb2:	f0 1f 00 1a 	mcall	80006018 <screen_SetPixels+0x84>
80005fb6:	68 08       	ld.w	r8,r4[0x0]
80005fb8:	1a d8       	st.w	--sp,r8
80005fba:	f0 1f 00 19 	mcall	8000601c <screen_SetPixels+0x88>
80005fbe:	32 2c       	mov	r12,34
80005fc0:	f0 1f 00 18 	mcall	80006020 <screen_SetPixels+0x8c>
80005fc4:	e8 e8 00 00 	ld.d	r8,r4[0]
80005fc8:	bb 29       	st.d	--sp,r8
80005fca:	f0 1f 00 17 	mcall	80006024 <screen_SetPixels+0x90>
80005fce:	50 5c       	stdsp	sp[0x14],r12
80005fd0:	40 57       	lddsp	r7,sp[0x14]
80005fd2:	2f bd       	sub	sp,-20
80005fd4:	58 07       	cp.w	r7,0
80005fd6:	c0 70       	breq	80005fe4 <screen_SetPixels+0x50>
80005fd8:	88 c6       	ld.uh	r6,r4[0x8]
80005fda:	0c 9c       	mov	r12,r6
80005fdc:	f0 1f 00 13 	mcall	80006028 <screen_SetPixels+0x94>
80005fe0:	20 17       	sub	r7,1
80005fe2:	cf c1       	brne	80005fda <screen_SetPixels+0x46>
80005fe4:	30 0b       	mov	r11,0
80005fe6:	fe 7c 24 00 	mov	r12,-56320
80005fea:	f0 1f 00 11 	mcall	8000602c <screen_SetPixels+0x98>
80005fee:	e0 68 00 f0 	mov	r8,240
80005ff2:	e0 69 01 40 	mov	r9,320
80005ff6:	30 0a       	mov	r10,0
80005ff8:	14 9b       	mov	r11,r10
80005ffa:	fa cc ff fc 	sub	r12,sp,-4
80005ffe:	f0 1f 00 0d 	mcall	80006030 <screen_SetPixels+0x9c>
80006002:	fa e8 00 04 	ld.d	r8,sp[4]
80006006:	bb 29       	st.d	--sp,r8
80006008:	f0 1f 00 04 	mcall	80006018 <screen_SetPixels+0x84>
8000600c:	2f ed       	sub	sp,-8
8000600e:	2f dd       	sub	sp,-12
80006010:	e3 cd 80 d0 	ldm	sp++,r4,r6-r7,pc
80006014:	80 00       	ld.sh	r0,r0[0x0]
80006016:	5d f6       	*unknown*
80006018:	80 00       	ld.sh	r0,r0[0x0]
8000601a:	5e d0       	retvc	r0
8000601c:	80 00       	ld.sh	r0,r0[0x0]
8000601e:	5e b0       	rethi	r0
80006020:	80 00       	ld.sh	r0,r0[0x0]
80006022:	5f 00       	sreq	r0
80006024:	80 00       	ld.sh	r0,r0[0x0]
80006026:	5d cc       	*unknown*
80006028:	80 00       	ld.sh	r0,r0[0x0]
8000602a:	5f 48       	srge	r8
8000602c:	80 00       	ld.sh	r0,r0[0x0]
8000602e:	2f ca       	sub	r10,-4
80006030:	80 00       	ld.sh	r0,r0[0x0]
80006032:	5e 20       	reths	r0

80006034 <screen_SetPixel>:
80006034:	eb cd 40 10 	pushm	r4,lr
80006038:	fa c4 ff f8 	sub	r4,sp,-8
8000603c:	68 08       	ld.w	r8,r4[0x0]
8000603e:	1a d8       	st.w	--sp,r8
80006040:	f0 1f 00 08 	mcall	80006060 <screen_SetPixel+0x2c>
80006044:	32 2c       	mov	r12,34
80006046:	f0 1f 00 08 	mcall	80006064 <screen_SetPixel+0x30>
8000604a:	88 ac       	ld.uh	r12,r4[0x4]
8000604c:	f0 1f 00 07 	mcall	80006068 <screen_SetPixel+0x34>
80006050:	30 0b       	mov	r11,0
80006052:	fe 7c 24 00 	mov	r12,-56320
80006056:	f0 1f 00 06 	mcall	8000606c <screen_SetPixel+0x38>
8000605a:	2f fd       	sub	sp,-4
8000605c:	e3 cd 80 10 	ldm	sp++,r4,pc
80006060:	80 00       	ld.sh	r0,r0[0x0]
80006062:	5e b0       	rethi	r0
80006064:	80 00       	ld.sh	r0,r0[0x0]
80006066:	5f 00       	sreq	r0
80006068:	80 00       	ld.sh	r0,r0[0x0]
8000606a:	5f 48       	srge	r8
8000606c:	80 00       	ld.sh	r0,r0[0x0]
8000606e:	2f ca       	sub	r10,-4

80006070 <screen_Init>:
80006070:	eb cd 40 80 	pushm	r7,lr
80006074:	21 8d       	sub	sp,96
80006076:	fe f8 03 a2 	ld.w	r8,pc[930]
8000607a:	fa cc ff c0 	sub	r12,sp,-64
8000607e:	f0 ea 00 00 	ld.d	r10,r8[0]
80006082:	f8 eb 00 00 	st.d	r12[0],r10
80006086:	f0 ea 00 08 	ld.d	r10,r8[8]
8000608a:	f8 eb 00 08 	st.d	r12[8],r10
8000608e:	f0 ea 00 10 	ld.d	r10,r8[16]
80006092:	f8 eb 00 10 	st.d	r12[16],r10
80006096:	f0 e8 00 18 	ld.d	r8,r8[24]
8000609a:	f8 e9 00 18 	st.d	r12[24],r8
8000609e:	fe f8 03 7e 	ld.w	r8,pc[894]
800060a2:	fa c7 ff d0 	sub	r7,sp,-48
800060a6:	f0 ea 00 00 	ld.d	r10,r8[0]
800060aa:	ee eb 00 00 	st.d	r7[0],r10
800060ae:	f0 e8 00 08 	ld.d	r8,r8[8]
800060b2:	ee e9 00 08 	st.d	r7[8],r8
800060b6:	30 4b       	mov	r11,4
800060b8:	f0 1f 00 da 	mcall	80006420 <screen_Init+0x3b0>
800060bc:	0e 9b       	mov	r11,r7
800060be:	fe 7c 24 00 	mov	r12,-56320
800060c2:	f0 1f 00 d9 	mcall	80006424 <screen_Init+0x3b4>
800060c6:	fe 7c 24 00 	mov	r12,-56320
800060ca:	f0 1f 00 d8 	mcall	80006428 <screen_Init+0x3b8>
800060ce:	e0 6a 90 00 	mov	r10,36864
800060d2:	ea 1a 03 d0 	orh	r10,0x3d0
800060d6:	0e 9b       	mov	r11,r7
800060d8:	fe 7c 24 00 	mov	r12,-56320
800060dc:	f0 1f 00 d4 	mcall	8000642c <screen_Init+0x3bc>
800060e0:	30 ec       	mov	r12,14
800060e2:	f0 1f 00 d4 	mcall	80006430 <screen_Init+0x3c0>
800060e6:	e1 b8 00 42 	mfsr	r8,0x108
800060ea:	e0 6a a8 00 	mov	r10,43008
800060ee:	ea 1a 00 61 	orh	r10,0x61
800060f2:	f0 0a 00 0a 	add	r10,r8,r10
800060f6:	e1 b9 00 42 	mfsr	r9,0x108
800060fa:	14 38       	cp.w	r8,r10
800060fc:	e0 88 00 08 	brls	8000610c <screen_Init+0x9c>
80006100:	12 38       	cp.w	r8,r9
80006102:	fe 98 ff fa 	brls	800060f6 <screen_Init+0x86>
80006106:	12 3a       	cp.w	r10,r9
80006108:	c4 e3       	brcs	800061a4 <screen_Init+0x134>
8000610a:	cf 6b       	rjmp	800060f6 <screen_Init+0x86>
8000610c:	12 38       	cp.w	r8,r9
8000610e:	e0 8b 00 4b 	brhi	800061a4 <screen_Init+0x134>
80006112:	12 3a       	cp.w	r10,r9
80006114:	c4 83       	brcs	800061a4 <screen_Init+0x134>
80006116:	cf 0b       	rjmp	800060f6 <screen_Init+0x86>
80006118:	e1 b9 00 42 	mfsr	r9,0x108
8000611c:	14 38       	cp.w	r8,r10
8000611e:	e0 88 00 08 	brls	8000612e <screen_Init+0xbe>
80006122:	12 38       	cp.w	r8,r9
80006124:	fe 98 ff fa 	brls	80006118 <screen_Init+0xa8>
80006128:	12 3a       	cp.w	r10,r9
8000612a:	c4 73       	brcs	800061b8 <screen_Init+0x148>
8000612c:	cf 6b       	rjmp	80006118 <screen_Init+0xa8>
8000612e:	12 38       	cp.w	r8,r9
80006130:	e0 8b 00 44 	brhi	800061b8 <screen_Init+0x148>
80006134:	12 3a       	cp.w	r10,r9
80006136:	c4 13       	brcs	800061b8 <screen_Init+0x148>
80006138:	cf 0b       	rjmp	80006118 <screen_Init+0xa8>
8000613a:	e1 b9 00 42 	mfsr	r9,0x108
8000613e:	14 38       	cp.w	r8,r10
80006140:	e0 88 00 08 	brls	80006150 <screen_Init+0xe0>
80006144:	12 38       	cp.w	r8,r9
80006146:	fe 98 ff fa 	brls	8000613a <screen_Init+0xca>
8000614a:	12 3a       	cp.w	r10,r9
8000614c:	c4 73       	brcs	800061da <screen_Init+0x16a>
8000614e:	cf 6b       	rjmp	8000613a <screen_Init+0xca>
80006150:	12 38       	cp.w	r8,r9
80006152:	e0 8b 00 44 	brhi	800061da <screen_Init+0x16a>
80006156:	12 3a       	cp.w	r10,r9
80006158:	c4 13       	brcs	800061da <screen_Init+0x16a>
8000615a:	cf 0b       	rjmp	8000613a <screen_Init+0xca>
8000615c:	e1 b9 00 42 	mfsr	r9,0x108
80006160:	14 38       	cp.w	r8,r10
80006162:	e0 88 00 08 	brls	80006172 <screen_Init+0x102>
80006166:	12 38       	cp.w	r8,r9
80006168:	fe 98 ff fa 	brls	8000615c <screen_Init+0xec>
8000616c:	12 3a       	cp.w	r10,r9
8000616e:	c5 43       	brcs	80006216 <screen_Init+0x1a6>
80006170:	cf 6b       	rjmp	8000615c <screen_Init+0xec>
80006172:	12 38       	cp.w	r8,r9
80006174:	e0 8b 00 51 	brhi	80006216 <screen_Init+0x1a6>
80006178:	12 3a       	cp.w	r10,r9
8000617a:	c4 e3       	brcs	80006216 <screen_Init+0x1a6>
8000617c:	cf 0b       	rjmp	8000615c <screen_Init+0xec>
8000617e:	e1 b9 00 42 	mfsr	r9,0x108
80006182:	14 38       	cp.w	r8,r10
80006184:	e0 88 00 09 	brls	80006196 <screen_Init+0x126>
80006188:	12 38       	cp.w	r8,r9
8000618a:	fe 98 ff fa 	brls	8000617e <screen_Init+0x10e>
8000618e:	12 3a       	cp.w	r10,r9
80006190:	e0 83 00 a0 	brlo	800062d0 <screen_Init+0x260>
80006194:	cf 5b       	rjmp	8000617e <screen_Init+0x10e>
80006196:	12 38       	cp.w	r8,r9
80006198:	e0 8b 00 9c 	brhi	800062d0 <screen_Init+0x260>
8000619c:	12 3a       	cp.w	r10,r9
8000619e:	e0 83 00 99 	brlo	800062d0 <screen_Init+0x260>
800061a2:	ce eb       	rjmp	8000617e <screen_Init+0x10e>
800061a4:	30 ec       	mov	r12,14
800061a6:	f0 1f 00 a4 	mcall	80006434 <screen_Init+0x3c4>
800061aa:	e1 b8 00 42 	mfsr	r8,0x108
800061ae:	e4 69 e2 00 	mov	r9,320000
800061b2:	f0 09 00 0a 	add	r10,r8,r9
800061b6:	cb 1b       	rjmp	80006118 <screen_Init+0xa8>
800061b8:	30 0b       	mov	r11,0
800061ba:	16 9c       	mov	r12,r11
800061bc:	f0 1f 00 9f 	mcall	80006438 <screen_Init+0x3c8>
800061c0:	30 0b       	mov	r11,0
800061c2:	16 9c       	mov	r12,r11
800061c4:	f0 1f 00 9d 	mcall	80006438 <screen_Init+0x3c8>
800061c8:	e1 b8 00 42 	mfsr	r8,0x108
800061cc:	e0 6a a8 00 	mov	r10,43008
800061d0:	ea 1a 00 61 	orh	r10,0x61
800061d4:	f0 0a 00 0a 	add	r10,r8,r10
800061d8:	cb 1b       	rjmp	8000613a <screen_Init+0xca>
800061da:	30 0b       	mov	r11,0
800061dc:	16 9c       	mov	r12,r11
800061de:	f0 1f 00 97 	mcall	80006438 <screen_Init+0x3c8>
800061e2:	30 0b       	mov	r11,0
800061e4:	16 9c       	mov	r12,r11
800061e6:	f0 1f 00 95 	mcall	80006438 <screen_Init+0x3c8>
800061ea:	30 0b       	mov	r11,0
800061ec:	16 9c       	mov	r12,r11
800061ee:	f0 1f 00 93 	mcall	80006438 <screen_Init+0x3c8>
800061f2:	30 0b       	mov	r11,0
800061f4:	16 9c       	mov	r12,r11
800061f6:	f0 1f 00 91 	mcall	80006438 <screen_Init+0x3c8>
800061fa:	30 1b       	mov	r11,1
800061fc:	e0 6c 00 a4 	mov	r12,164
80006200:	f0 1f 00 8e 	mcall	80006438 <screen_Init+0x3c8>
80006204:	e1 b8 00 42 	mfsr	r8,0x108
80006208:	e0 6a a8 00 	mov	r10,43008
8000620c:	ea 1a 00 61 	orh	r10,0x61
80006210:	f0 0a 00 0a 	add	r10,r8,r10
80006214:	ca 4b       	rjmp	8000615c <screen_Init+0xec>
80006216:	e0 6b a7 00 	mov	r11,42752
8000621a:	36 0c       	mov	r12,96
8000621c:	f0 1f 00 87 	mcall	80006438 <screen_Init+0x3c8>
80006220:	e0 6b 08 08 	mov	r11,2056
80006224:	30 8c       	mov	r12,8
80006226:	f0 1f 00 85 	mcall	80006438 <screen_Init+0x3c8>
8000622a:	e0 6b 02 03 	mov	r11,515
8000622e:	33 0c       	mov	r12,48
80006230:	f0 1f 00 82 	mcall	80006438 <screen_Init+0x3c8>
80006234:	e0 6b 08 0f 	mov	r11,2063
80006238:	33 1c       	mov	r12,49
8000623a:	f0 1f 00 80 	mcall	80006438 <screen_Init+0x3c8>
8000623e:	e0 6b 04 01 	mov	r11,1025
80006242:	33 2c       	mov	r12,50
80006244:	f0 1f 00 7d 	mcall	80006438 <screen_Init+0x3c8>
80006248:	e0 6b 05 0b 	mov	r11,1291
8000624c:	33 3c       	mov	r12,51
8000624e:	f0 1f 00 7b 	mcall	80006438 <screen_Init+0x3c8>
80006252:	e0 6b 33 30 	mov	r11,13104
80006256:	33 4c       	mov	r12,52
80006258:	f0 1f 00 78 	mcall	80006438 <screen_Init+0x3c8>
8000625c:	e0 6b 0b 05 	mov	r11,2821
80006260:	33 5c       	mov	r12,53
80006262:	f0 1f 00 76 	mcall	80006438 <screen_Init+0x3c8>
80006266:	30 5b       	mov	r11,5
80006268:	33 6c       	mov	r12,54
8000626a:	f0 1f 00 74 	mcall	80006438 <screen_Init+0x3c8>
8000626e:	e0 6b 0f 08 	mov	r11,3848
80006272:	33 7c       	mov	r12,55
80006274:	f0 1f 00 71 	mcall	80006438 <screen_Init+0x3c8>
80006278:	e0 6b 03 02 	mov	r11,770
8000627c:	33 8c       	mov	r12,56
8000627e:	f0 1f 00 6f 	mcall	80006438 <screen_Init+0x3c8>
80006282:	e0 6b 30 33 	mov	r11,12339
80006286:	33 9c       	mov	r12,57
80006288:	f0 1f 00 6c 	mcall	80006438 <screen_Init+0x3c8>
8000628c:	31 8b       	mov	r11,24
8000628e:	e0 6c 00 90 	mov	r12,144
80006292:	f0 1f 00 6a 	mcall	80006438 <screen_Init+0x3c8>
80006296:	e0 6b 05 30 	mov	r11,1328
8000629a:	31 0c       	mov	r12,16
8000629c:	f0 1f 00 67 	mcall	80006438 <screen_Init+0x3c8>
800062a0:	e0 6b 02 37 	mov	r11,567
800062a4:	31 1c       	mov	r12,17
800062a6:	f0 1f 00 65 	mcall	80006438 <screen_Init+0x3c8>
800062aa:	e0 6b 01 bf 	mov	r11,447
800062ae:	31 2c       	mov	r12,18
800062b0:	f0 1f 00 62 	mcall	80006438 <screen_Init+0x3c8>
800062b4:	e0 6b 10 00 	mov	r11,4096
800062b8:	31 3c       	mov	r12,19
800062ba:	f0 1f 00 60 	mcall	80006438 <screen_Init+0x3c8>
800062be:	e1 b8 00 42 	mfsr	r8,0x108
800062c2:	e0 6a 50 00 	mov	r10,20480
800062c6:	ea 1a 00 c3 	orh	r10,0xc3
800062ca:	f0 0a 00 0a 	add	r10,r8,r10
800062ce:	c5 8b       	rjmp	8000617e <screen_Init+0x10e>
800062d0:	e0 6b 01 00 	mov	r11,256
800062d4:	30 1c       	mov	r12,1
800062d6:	f0 1f 00 59 	mcall	80006438 <screen_Init+0x3c8>
800062da:	e0 6b 02 00 	mov	r11,512
800062de:	30 2c       	mov	r12,2
800062e0:	f0 1f 00 56 	mcall	80006438 <screen_Init+0x3c8>
800062e4:	33 0b       	mov	r11,48
800062e6:	30 3c       	mov	r12,3
800062e8:	f0 1f 00 54 	mcall	80006438 <screen_Init+0x3c8>
800062ec:	30 1b       	mov	r11,1
800062ee:	30 9c       	mov	r12,9
800062f0:	f0 1f 00 52 	mcall	80006438 <screen_Init+0x3c8>
800062f4:	30 8b       	mov	r11,8
800062f6:	30 ac       	mov	r12,10
800062f8:	f0 1f 00 50 	mcall	80006438 <screen_Init+0x3c8>
800062fc:	30 0b       	mov	r11,0
800062fe:	30 cc       	mov	r12,12
80006300:	f0 1f 00 4e 	mcall	80006438 <screen_Init+0x3c8>
80006304:	e0 6b d0 00 	mov	r11,53248
80006308:	30 dc       	mov	r12,13
8000630a:	f0 1f 00 4c 	mcall	80006438 <screen_Init+0x3c8>
8000630e:	33 0b       	mov	r11,48
80006310:	30 ec       	mov	r12,14
80006312:	f0 1f 00 4a 	mcall	80006438 <screen_Init+0x3c8>
80006316:	30 0b       	mov	r11,0
80006318:	30 fc       	mov	r12,15
8000631a:	f0 1f 00 48 	mcall	80006438 <screen_Init+0x3c8>
8000631e:	30 0b       	mov	r11,0
80006320:	32 0c       	mov	r12,32
80006322:	f0 1f 00 46 	mcall	80006438 <screen_Init+0x3c8>
80006326:	30 0b       	mov	r11,0
80006328:	32 1c       	mov	r12,33
8000632a:	f0 1f 00 44 	mcall	80006438 <screen_Init+0x3c8>
8000632e:	32 eb       	mov	r11,46
80006330:	32 9c       	mov	r12,41
80006332:	f0 1f 00 42 	mcall	80006438 <screen_Init+0x3c8>
80006336:	30 0b       	mov	r11,0
80006338:	35 0c       	mov	r12,80
8000633a:	f0 1f 00 40 	mcall	80006438 <screen_Init+0x3c8>
8000633e:	e0 6b 00 f0 	mov	r11,240
80006342:	35 1c       	mov	r12,81
80006344:	f0 1f 00 3d 	mcall	80006438 <screen_Init+0x3c8>
80006348:	30 0b       	mov	r11,0
8000634a:	35 2c       	mov	r12,82
8000634c:	f0 1f 00 3b 	mcall	80006438 <screen_Init+0x3c8>
80006350:	e0 6b 01 40 	mov	r11,320
80006354:	35 2c       	mov	r12,82
80006356:	f0 1f 00 39 	mcall	80006438 <screen_Init+0x3c8>
8000635a:	30 1b       	mov	r11,1
8000635c:	36 1c       	mov	r12,97
8000635e:	f0 1f 00 37 	mcall	80006438 <screen_Init+0x3c8>
80006362:	30 0b       	mov	r11,0
80006364:	36 ac       	mov	r12,106
80006366:	f0 1f 00 35 	mcall	80006438 <screen_Init+0x3c8>
8000636a:	30 0b       	mov	r11,0
8000636c:	e0 6c 00 80 	mov	r12,128
80006370:	f0 1f 00 32 	mcall	80006438 <screen_Init+0x3c8>
80006374:	30 0b       	mov	r11,0
80006376:	e0 6c 00 81 	mov	r12,129
8000637a:	f0 1f 00 30 	mcall	80006438 <screen_Init+0x3c8>
8000637e:	35 fb       	mov	r11,95
80006380:	e0 6c 00 82 	mov	r12,130
80006384:	f0 1f 00 2d 	mcall	80006438 <screen_Init+0x3c8>
80006388:	e0 6b 07 01 	mov	r11,1793
8000638c:	e0 6c 00 93 	mov	r12,147
80006390:	f0 1f 00 2a 	mcall	80006438 <screen_Init+0x3c8>
80006394:	e0 6b 01 00 	mov	r11,256
80006398:	30 7c       	mov	r12,7
8000639a:	f0 1f 00 28 	mcall	80006438 <screen_Init+0x3c8>
8000639e:	30 08       	mov	r8,0
800063a0:	50 88       	stdsp	sp[0x20],r8
800063a2:	50 98       	stdsp	sp[0x24],r8
800063a4:	50 a8       	stdsp	sp[0x28],r8
800063a6:	50 b8       	stdsp	sp[0x2c],r8
800063a8:	30 0a       	mov	r10,0
800063aa:	30 0b       	mov	r11,0
800063ac:	fa eb 00 00 	st.d	sp[0],r10
800063b0:	fa c9 ff f8 	sub	r9,sp,-8
800063b4:	f2 eb 00 00 	st.d	r9[0],r10
800063b8:	fa c9 ff f0 	sub	r9,sp,-16
800063bc:	f2 eb 00 00 	st.d	r9[0],r10
800063c0:	fa c9 ff e8 	sub	r9,sp,-24
800063c4:	f2 eb 00 00 	st.d	r9[0],r10
800063c8:	30 1b       	mov	r11,1
800063ca:	50 1b       	stdsp	sp[0x4],r11
800063cc:	31 49       	mov	r9,20
800063ce:	50 29       	stdsp	sp[0x8],r9
800063d0:	50 48       	stdsp	sp[0x10],r8
800063d2:	40 09       	lddsp	r9,sp[0x0]
800063d4:	f3 d8 d1 01 	bfins	r9,r8,0x8,0x1
800063d8:	50 09       	stdsp	sp[0x0],r9
800063da:	40 09       	lddsp	r9,sp[0x0]
800063dc:	f3 d8 d1 21 	bfins	r9,r8,0x9,0x1
800063e0:	50 09       	stdsp	sp[0x0],r9
800063e2:	40 09       	lddsp	r9,sp[0x0]
800063e4:	f3 d8 d1 41 	bfins	r9,r8,0xa,0x1
800063e8:	50 09       	stdsp	sp[0x0],r9
800063ea:	40 08       	lddsp	r8,sp[0x0]
800063ec:	30 57       	mov	r7,5
800063ee:	f1 d7 d0 04 	bfins	r8,r7,0x0,0x4
800063f2:	50 08       	stdsp	sp[0x0],r8
800063f4:	33 cc       	mov	r12,60
800063f6:	f0 1f 00 12 	mcall	8000643c <screen_Init+0x3cc>
800063fa:	fa cc ff e0 	sub	r12,sp,-32
800063fe:	f0 1f 00 11 	mcall	80006440 <screen_Init+0x3d0>
80006402:	1a 9b       	mov	r11,sp
80006404:	0e 9c       	mov	r12,r7
80006406:	f0 1f 00 10 	mcall	80006444 <screen_Init+0x3d4>
8000640a:	32 0c       	mov	r12,32
8000640c:	f0 1f 00 0f 	mcall	80006448 <screen_Init+0x3d8>
80006410:	2e 8d       	sub	sp,-96
80006412:	e3 cd 80 80 	ldm	sp++,r7,pc
80006416:	00 00       	add	r0,r0
80006418:	80 00       	ld.sh	r0,r0[0x0]
8000641a:	ae e8       	st.b	r7[0x6],r8
8000641c:	80 00       	ld.sh	r0,r0[0x0]
8000641e:	af 08       	ld.d	r8,r7
80006420:	80 00       	ld.sh	r0,r0[0x0]
80006422:	29 c4       	sub	r4,-100
80006424:	80 00       	ld.sh	r0,r0[0x0]
80006426:	2f 1a       	sub	r10,-15
80006428:	80 00       	ld.sh	r0,r0[0x0]
8000642a:	30 a8       	mov	r8,10
8000642c:	80 00       	ld.sh	r0,r0[0x0]
8000642e:	2f f0       	sub	r0,-1
80006430:	80 00       	ld.sh	r0,r0[0x0]
80006432:	2a 26       	sub	r6,-94
80006434:	80 00       	ld.sh	r0,r0[0x0]
80006436:	2a 0a       	sub	r10,-96
80006438:	80 00       	ld.sh	r0,r0[0x0]
8000643a:	5e 30       	retlo	r0
8000643c:	80 00       	ld.sh	r0,r0[0x0]
8000643e:	29 72       	sub	r2,-105
80006440:	80 00       	ld.sh	r0,r0[0x0]
80006442:	2e b4       	sub	r4,-21
80006444:	80 00       	ld.sh	r0,r0[0x0]
80006446:	2e 6c       	sub	r12,-26
80006448:	80 00       	ld.sh	r0,r0[0x0]
8000644a:	2e a2       	sub	r2,-22

8000644c <vector2_Add>:
8000644c:	eb cd 00 10 	pushm	r4
80006450:	fa c4 ff fc 	sub	r4,sp,-4
80006454:	09 ea       	ld.ub	r10,r4[0x6]
80006456:	09 a9       	ld.ub	r9,r4[0x2]
80006458:	f4 09 00 09 	add	r9,r10,r9
8000645c:	88 2b       	ld.sh	r11,r4[0x4]
8000645e:	88 0a       	ld.sh	r10,r4[0x0]
80006460:	f6 0a 00 0a 	add	r10,r11,r10
80006464:	b8 0a       	st.h	r12[0x0],r10
80006466:	b8 a9       	st.b	r12[0x2],r9
80006468:	e3 cd 00 10 	ldm	sp++,r4
8000646c:	5e fc       	retal	r12
8000646e:	d7 03       	nop

80006470 <dac_Init>:
80006470:	d4 01       	pushm	lr
80006472:	e0 69 ff ff 	mov	r9,65535
80006476:	fe 78 10 00 	mov	r8,-61440
8000647a:	f1 49 01 44 	st.w	r8[324],r9
8000647e:	31 9c       	mov	r12,25
80006480:	f0 1f 00 0c 	mcall	800064b0 <dac_Init+0x40>
80006484:	32 cc       	mov	r12,44
80006486:	f0 1f 00 0b 	mcall	800064b0 <dac_Init+0x40>
8000648a:	32 dc       	mov	r12,45
8000648c:	f0 1f 00 09 	mcall	800064b0 <dac_Init+0x40>
80006490:	32 ec       	mov	r12,46
80006492:	f0 1f 00 08 	mcall	800064b0 <dac_Init+0x40>
80006496:	32 ac       	mov	r12,42
80006498:	f0 1f 00 06 	mcall	800064b0 <dac_Init+0x40>
8000649c:	32 fc       	mov	r12,47
8000649e:	f0 1f 00 05 	mcall	800064b0 <dac_Init+0x40>
800064a2:	32 fc       	mov	r12,47
800064a4:	f0 1f 00 04 	mcall	800064b4 <dac_Init+0x44>
800064a8:	32 fc       	mov	r12,47
800064aa:	f0 1f 00 02 	mcall	800064b0 <dac_Init+0x40>
800064ae:	d8 02       	popm	pc
800064b0:	80 00       	ld.sh	r0,r0[0x0]
800064b2:	2a 0a       	sub	r10,-96
800064b4:	80 00       	ld.sh	r0,r0[0x0]
800064b6:	2a 26       	sub	r6,-94

800064b8 <usart_Init>:
800064b8:	d4 21       	pushm	r4-r7,lr
800064ba:	20 dd       	sub	sp,52
800064bc:	49 78       	lddpc	r8,80006518 <usart_Init+0x60>
800064be:	fa cb ff d8 	sub	r11,sp,-40
800064c2:	f0 e6 00 00 	ld.d	r6,r8[0]
800064c6:	f6 e7 00 00 	st.d	r11[0],r6
800064ca:	70 28       	ld.w	r8,r8[0x8]
800064cc:	97 28       	st.w	r11[0x8],r8
800064ce:	49 48       	lddpc	r8,8000651c <usart_Init+0x64>
800064d0:	1a 97       	mov	r7,sp
800064d2:	f0 e4 00 00 	ld.d	r4,r8[0]
800064d6:	fa e5 00 00 	st.d	sp[0],r4
800064da:	f0 e4 00 08 	ld.d	r4,r8[8]
800064de:	fa e5 00 08 	st.d	sp[8],r4
800064e2:	f0 e4 00 10 	ld.d	r4,r8[16]
800064e6:	fa e5 00 10 	st.d	sp[16],r4
800064ea:	f0 e4 00 18 	ld.d	r4,r8[24]
800064ee:	fa e5 00 18 	st.d	sp[24],r4
800064f2:	f0 e8 00 20 	ld.d	r8,r8[32]
800064f6:	fa e9 00 20 	st.d	sp[32],r8
800064fa:	e0 6a 48 00 	mov	r10,18432
800064fe:	ea 1a 01 e8 	orh	r10,0x1e8
80006502:	fe 7c 18 00 	mov	r12,-59392
80006506:	f0 1f 00 07 	mcall	80006520 <usart_Init+0x68>
8000650a:	30 5b       	mov	r11,5
8000650c:	1a 9c       	mov	r12,sp
8000650e:	f0 1f 00 06 	mcall	80006524 <usart_Init+0x6c>
80006512:	2f 3d       	sub	sp,-52
80006514:	d8 22       	popm	r4-r7,pc
80006516:	00 00       	add	r0,r0
80006518:	80 00       	ld.sh	r0,r0[0x0]
8000651a:	af 18       	ld.d	r8,--r7
8000651c:	80 00       	ld.sh	r0,r0[0x0]
8000651e:	af 24       	st.d	r7++,r4
80006520:	80 00       	ld.sh	r0,r0[0x0]
80006522:	36 a0       	mov	r0,106
80006524:	80 00       	ld.sh	r0,r0[0x0]
80006526:	29 c4       	sub	r4,-100

80006528 <twi_Init>:
80006528:	eb cd 40 80 	pushm	r7,lr
8000652c:	20 7d       	sub	sp,28
8000652e:	31 fc       	mov	r12,31
80006530:	f0 1f 00 1d 	mcall	800065a4 <twi_Init+0x7c>
80006534:	31 dc       	mov	r12,29
80006536:	f0 1f 00 1c 	mcall	800065a4 <twi_Init+0x7c>
8000653a:	31 fc       	mov	r12,31
8000653c:	f0 1f 00 1b 	mcall	800065a8 <twi_Init+0x80>
80006540:	49 b8       	lddpc	r8,800065ac <twi_Init+0x84>
80006542:	fa c7 ff f0 	sub	r7,sp,-16
80006546:	f0 ea 00 00 	ld.d	r10,r8[0]
8000654a:	ee eb 00 00 	st.d	r7[0],r10
8000654e:	70 28       	ld.w	r8,r8[0x8]
80006550:	8f 28       	st.w	r7[0x8],r8
80006552:	49 88       	lddpc	r8,800065b0 <twi_Init+0x88>
80006554:	1a 9c       	mov	r12,sp
80006556:	f0 ea 00 00 	ld.d	r10,r8[0]
8000655a:	fa eb 00 00 	st.d	sp[0],r10
8000655e:	f0 e8 00 08 	ld.d	r8,r8[8]
80006562:	fa e9 00 08 	st.d	sp[8],r8
80006566:	30 2b       	mov	r11,2
80006568:	f0 1f 00 13 	mcall	800065b4 <twi_Init+0x8c>
8000656c:	0e 9b       	mov	r11,r7
8000656e:	fe 7c 2c 00 	mov	r12,-54272
80006572:	f0 1f 00 12 	mcall	800065b8 <twi_Init+0x90>
80006576:	31 cc       	mov	r12,28
80006578:	f0 1f 00 11 	mcall	800065bc <twi_Init+0x94>
8000657c:	31 cc       	mov	r12,28
8000657e:	f0 1f 00 11 	mcall	800065c0 <twi_Init+0x98>
80006582:	30 2b       	mov	r11,2
80006584:	31 cc       	mov	r12,28
80006586:	f0 1f 00 10 	mcall	800065c4 <twi_Init+0x9c>
8000658a:	30 0a       	mov	r10,0
8000658c:	34 3b       	mov	r11,67
8000658e:	48 fc       	lddpc	r12,800065c8 <twi_Init+0xa0>
80006590:	f0 1f 00 0f 	mcall	800065cc <twi_Init+0xa4>
80006594:	30 49       	mov	r9,4
80006596:	fe 78 2c 00 	mov	r8,-54272
8000659a:	91 09       	st.w	r8[0x0],r9
8000659c:	2f 9d       	sub	sp,-28
8000659e:	e3 cd 80 80 	ldm	sp++,r7,pc
800065a2:	00 00       	add	r0,r0
800065a4:	80 00       	ld.sh	r0,r0[0x0]
800065a6:	2a 0a       	sub	r10,-96
800065a8:	80 00       	ld.sh	r0,r0[0x0]
800065aa:	2a 26       	sub	r6,-94
800065ac:	80 00       	ld.sh	r0,r0[0x0]
800065ae:	af 5c       	asr	r12,0xf
800065b0:	80 00       	ld.sh	r0,r0[0x0]
800065b2:	af 78       	lsl	r8,0xf
800065b4:	80 00       	ld.sh	r0,r0[0x0]
800065b6:	29 c4       	sub	r4,-100
800065b8:	80 00       	ld.sh	r0,r0[0x0]
800065ba:	35 3c       	mov	r12,83
800065bc:	80 00       	ld.sh	r0,r0[0x0]
800065be:	2a 42       	sub	r2,-92
800065c0:	80 00       	ld.sh	r0,r0[0x0]
800065c2:	29 f4       	sub	r4,-97
800065c4:	80 00       	ld.sh	r0,r0[0x0]
800065c6:	2a 58       	sub	r8,-91
800065c8:	80 00       	ld.sh	r0,r0[0x0]
800065ca:	6d ec       	ld.w	r12,r6[0x78]
800065cc:	80 00       	ld.sh	r0,r0[0x0]
800065ce:	2a e4       	sub	r4,-82

800065d0 <tc1_Init>:
800065d0:	d4 01       	pushm	lr
800065d2:	48 db       	lddpc	r11,80006604 <tc1_Init+0x34>
800065d4:	fe 7c 38 00 	mov	r12,-51200
800065d8:	f0 1f 00 0c 	mcall	80006608 <tc1_Init+0x38>
800065dc:	e0 6a 00 b5 	mov	r10,181
800065e0:	30 1b       	mov	r11,1
800065e2:	fe 7c 38 00 	mov	r12,-51200
800065e6:	f0 1f 00 0a 	mcall	8000660c <tc1_Init+0x3c>
800065ea:	48 aa       	lddpc	r10,80006610 <tc1_Init+0x40>
800065ec:	30 1b       	mov	r11,1
800065ee:	fe 7c 38 00 	mov	r12,-51200
800065f2:	f0 1f 00 09 	mcall	80006614 <tc1_Init+0x44>
800065f6:	30 0a       	mov	r10,0
800065f8:	e0 6b 01 c1 	mov	r11,449
800065fc:	48 7c       	lddpc	r12,80006618 <tc1_Init+0x48>
800065fe:	f0 1f 00 08 	mcall	8000661c <tc1_Init+0x4c>
80006602:	d8 02       	popm	pc
80006604:	80 00       	ld.sh	r0,r0[0x0]
80006606:	af b4       	sbr	r4,0xf
80006608:	80 00       	ld.sh	r0,r0[0x0]
8000660a:	30 ea       	mov	r10,14
8000660c:	80 00       	ld.sh	r0,r0[0x0]
8000660e:	31 aa       	mov	r10,26
80006610:	80 00       	ld.sh	r0,r0[0x0]
80006612:	af 88       	lsr	r8,0xe
80006614:	80 00       	ld.sh	r0,r0[0x0]
80006616:	31 de       	mov	lr,29
80006618:	80 00       	ld.sh	r0,r0[0x0]
8000661a:	3b 94       	mov	r4,-71
8000661c:	80 00       	ld.sh	r0,r0[0x0]
8000661e:	2a e4       	sub	r4,-82

80006620 <spi1_Init>:
80006620:	eb cd 40 c0 	pushm	r6-r7,lr
80006624:	21 2d       	sub	sp,72
80006626:	4a b8       	lddpc	r8,800066d0 <spi1_Init+0xb0>
80006628:	fa cc ff e0 	sub	r12,sp,-32
8000662c:	f0 ea 00 00 	ld.d	r10,r8[0]
80006630:	f8 eb 00 00 	st.d	r12[0],r10
80006634:	f0 ea 00 08 	ld.d	r10,r8[8]
80006638:	f8 eb 00 08 	st.d	r12[8],r10
8000663c:	f0 ea 00 10 	ld.d	r10,r8[16]
80006640:	f8 eb 00 10 	st.d	r12[16],r10
80006644:	f0 ea 00 18 	ld.d	r10,r8[24]
80006648:	f8 eb 00 18 	st.d	r12[24],r10
8000664c:	f0 e8 00 20 	ld.d	r8,r8[32]
80006650:	f8 e9 00 20 	st.d	r12[32],r8
80006654:	4a 08       	lddpc	r8,800066d4 <spi1_Init+0xb4>
80006656:	fa c6 ff f0 	sub	r6,sp,-16
8000665a:	f0 ea 00 00 	ld.d	r10,r8[0]
8000665e:	ec eb 00 00 	st.d	r6[0],r10
80006662:	f0 e8 00 08 	ld.d	r8,r8[8]
80006666:	ec e9 00 08 	st.d	r6[8],r8
8000666a:	49 c8       	lddpc	r8,800066d8 <spi1_Init+0xb8>
8000666c:	1a 97       	mov	r7,sp
8000666e:	f0 ea 00 00 	ld.d	r10,r8[0]
80006672:	fa eb 00 00 	st.d	sp[0],r10
80006676:	f0 e8 00 08 	ld.d	r8,r8[8]
8000667a:	fa e9 00 08 	st.d	sp[8],r8
8000667e:	30 5b       	mov	r11,5
80006680:	f0 1f 00 17 	mcall	800066dc <spi1_Init+0xbc>
80006684:	1a 9b       	mov	r11,sp
80006686:	fe 7c 28 00 	mov	r12,-55296
8000668a:	f0 1f 00 16 	mcall	800066e0 <spi1_Init+0xc0>
8000668e:	30 09       	mov	r9,0
80006690:	12 9a       	mov	r10,r9
80006692:	12 9b       	mov	r11,r9
80006694:	fe 7c 28 00 	mov	r12,-55296
80006698:	f0 1f 00 13 	mcall	800066e4 <spi1_Init+0xc4>
8000669c:	e0 6a 90 00 	mov	r10,36864
800066a0:	ea 1a 03 d0 	orh	r10,0x3d0
800066a4:	0c 9b       	mov	r11,r6
800066a6:	fe 7c 28 00 	mov	r12,-55296
800066aa:	f0 1f 00 10 	mcall	800066e8 <spi1_Init+0xc8>
800066ae:	e0 6a 90 00 	mov	r10,36864
800066b2:	ea 1a 03 d0 	orh	r10,0x3d0
800066b6:	1a 9b       	mov	r11,sp
800066b8:	fe 7c 28 00 	mov	r12,-55296
800066bc:	f0 1f 00 0b 	mcall	800066e8 <spi1_Init+0xc8>
800066c0:	fe 7c 28 00 	mov	r12,-55296
800066c4:	f0 1f 00 0a 	mcall	800066ec <spi1_Init+0xcc>
800066c8:	2e ed       	sub	sp,-72
800066ca:	e3 cd 80 c0 	ldm	sp++,r6-r7,pc
800066ce:	00 00       	add	r0,r0
800066d0:	80 00       	ld.sh	r0,r0[0x0]
800066d2:	af 8c       	lsr	r12,0xe
800066d4:	80 00       	ld.sh	r0,r0[0x0]
800066d6:	af 4c       	asr	r12,0xe
800066d8:	80 00       	ld.sh	r0,r0[0x0]
800066da:	af 68       	lsl	r8,0xe
800066dc:	80 00       	ld.sh	r0,r0[0x0]
800066de:	29 c4       	sub	r4,-100
800066e0:	80 00       	ld.sh	r0,r0[0x0]
800066e2:	2f 1a       	sub	r10,-15
800066e4:	80 00       	ld.sh	r0,r0[0x0]
800066e6:	2f 52       	sub	r2,-11
800066e8:	80 00       	ld.sh	r0,r0[0x0]
800066ea:	2f f0       	sub	r0,-1
800066ec:	80 00       	ld.sh	r0,r0[0x0]
800066ee:	30 a8       	mov	r8,10

800066f0 <board_init>:
800066f0:	d4 01       	pushm	lr
800066f2:	f0 1f 00 09 	mcall	80006714 <board_init+0x24>
800066f6:	d3 03       	ssrf	0x10
800066f8:	f0 1f 00 08 	mcall	80006718 <board_init+0x28>
800066fc:	d5 03       	csrf	0x10
800066fe:	f0 1f 00 08 	mcall	8000671c <board_init+0x2c>
80006702:	f0 1f 00 08 	mcall	80006720 <board_init+0x30>
80006706:	f0 1f 00 08 	mcall	80006724 <board_init+0x34>
8000670a:	f0 1f 00 08 	mcall	80006728 <board_init+0x38>
8000670e:	f0 1f 00 08 	mcall	8000672c <board_init+0x3c>
80006712:	d8 02       	popm	pc
80006714:	80 00       	ld.sh	r0,r0[0x0]
80006716:	75 fc       	ld.w	r12,r10[0x7c]
80006718:	80 00       	ld.sh	r0,r0[0x0]
8000671a:	2b 64       	sub	r4,-74
8000671c:	80 00       	ld.sh	r0,r0[0x0]
8000671e:	65 28       	ld.w	r8,r2[0x48]
80006720:	80 00       	ld.sh	r0,r0[0x0]
80006722:	64 b8       	ld.w	r8,r2[0x2c]
80006724:	80 00       	ld.sh	r0,r0[0x0]
80006726:	66 20       	ld.w	r0,r3[0x8]
80006728:	80 00       	ld.sh	r0,r0[0x0]
8000672a:	65 d0       	ld.w	r0,r2[0x74]
8000672c:	80 00       	ld.sh	r0,r0[0x0]
8000672e:	64 70       	ld.w	r0,r2[0x1c]

80006730 <mainCentre>:
80006730:	d4 31       	pushm	r0-r7,lr
80006732:	f0 1f 00 22 	mcall	800067b8 <mainCentre+0x88>
80006736:	f0 1f 00 22 	mcall	800067bc <mainCentre+0x8c>
8000673a:	f0 1f 00 22 	mcall	800067c0 <mainCentre+0x90>
8000673e:	f0 1f 00 22 	mcall	800067c4 <mainCentre+0x94>
80006742:	f0 1f 00 22 	mcall	800067c8 <mainCentre+0x98>
80006746:	f0 1f 00 22 	mcall	800067cc <mainCentre+0x9c>
8000674a:	30 19       	mov	r9,1
8000674c:	4a 18       	lddpc	r8,800067d0 <mainCentre+0xa0>
8000674e:	b0 89       	st.b	r8[0x0],r9
80006750:	4a 18       	lddpc	r8,800067d4 <mainCentre+0xa4>
80006752:	11 89       	ld.ub	r9,r8[0x0]
80006754:	4a 18       	lddpc	r8,800067d8 <mainCentre+0xa8>
80006756:	f0 09 03 28 	ld.w	r8,r8[r9<<0x2]
8000675a:	30 1c       	mov	r12,1
8000675c:	5d 18       	icall	r8
8000675e:	4a 02       	lddpc	r2,800067dc <mainCentre+0xac>
80006760:	49 d3       	lddpc	r3,800067d4 <mainCentre+0xa4>
80006762:	4a 05       	lddpc	r5,800067e0 <mainCentre+0xb0>
80006764:	30 07       	mov	r7,0
80006766:	49 b6       	lddpc	r6,800067d0 <mainCentre+0xa0>
80006768:	49 c0       	lddpc	r0,800067d8 <mainCentre+0xa8>
8000676a:	30 01       	mov	r1,0
8000676c:	49 e4       	lddpc	r4,800067e4 <mainCentre+0xb4>
8000676e:	07 88       	ld.ub	r8,r3[0x0]
80006770:	e4 08 03 28 	ld.w	r8,r2[r8<<0x2]
80006774:	5d 18       	icall	r8
80006776:	0b 88       	ld.ub	r8,r5[0x0]
80006778:	ee 08 18 00 	cp.b	r8,r7
8000677c:	c0 51       	brne	80006786 <mainCentre+0x56>
8000677e:	0d 88       	ld.ub	r8,r6[0x0]
80006780:	ee 08 18 00 	cp.b	r8,r7
80006784:	c0 f0       	breq	800067a2 <mainCentre+0x72>
80006786:	07 88       	ld.ub	r8,r3[0x0]
80006788:	e0 08 03 28 	ld.w	r8,r0[r8<<0x2]
8000678c:	49 79       	lddpc	r9,800067e8 <mainCentre+0xb8>
8000678e:	13 8c       	ld.ub	r12,r9[0x0]
80006790:	5d 18       	icall	r8
80006792:	aa 87       	st.b	r5[0x0],r7
80006794:	0d 88       	ld.ub	r8,r6[0x0]
80006796:	ee 08 18 00 	cp.b	r8,r7
8000679a:	c0 40       	breq	800067a2 <mainCentre+0x72>
8000679c:	ac 87       	st.b	r6[0x0],r7
8000679e:	f0 1f 00 0b 	mcall	800067c8 <mainCentre+0x98>
800067a2:	02 9c       	mov	r12,r1
800067a4:	f0 1f 00 12 	mcall	800067ec <mainCentre+0xbc>
800067a8:	09 88       	ld.ub	r8,r4[0x0]
800067aa:	ee 08 18 00 	cp.b	r8,r7
800067ae:	ce 00       	breq	8000676e <mainCentre+0x3e>
800067b0:	a8 87       	st.b	r4[0x0],r7
800067b2:	f0 1f 00 10 	mcall	800067f0 <mainCentre+0xc0>
800067b6:	cd cb       	rjmp	8000676e <mainCentre+0x3e>
800067b8:	80 00       	ld.sh	r0,r0[0x0]
800067ba:	66 f0       	ld.w	r0,r3[0x3c]
800067bc:	80 00       	ld.sh	r0,r0[0x0]
800067be:	60 70       	ld.w	r0,r0[0x1c]
800067c0:	80 00       	ld.sh	r0,r0[0x0]
800067c2:	6c a8       	ld.w	r8,r6[0x28]
800067c4:	80 00       	ld.sh	r0,r0[0x0]
800067c6:	6d b0       	ld.w	r0,r6[0x6c]
800067c8:	80 00       	ld.sh	r0,r0[0x0]
800067ca:	6b 3c       	ld.w	r12,r5[0x4c]
800067cc:	80 00       	ld.sh	r0,r0[0x0]
800067ce:	5c f4       	rol	r4
800067d0:	00 00       	add	r0,r0
800067d2:	08 18       	sub	r8,r4
800067d4:	00 00       	add	r0,r0
800067d6:	07 ff       	ld.ub	pc,r3[0x7]
800067d8:	00 00       	add	r0,r0
800067da:	04 70       	tst	r0,r2
800067dc:	00 00       	add	r0,r0
800067de:	04 50       	eor	r0,r2
800067e0:	00 00       	add	r0,r0
800067e2:	07 fa       	ld.ub	r10,r3[0x7]
800067e4:	00 00       	add	r0,r0
800067e6:	08 2d       	rsub	sp,r4
800067e8:	00 00       	add	r0,r0
800067ea:	08 00       	add	r0,r4
800067ec:	80 00       	ld.sh	r0,r0[0x0]
800067ee:	3d 18       	mov	r8,-47
800067f0:	80 00       	ld.sh	r0,r0[0x0]
800067f2:	6c f4       	ld.w	r4,r6[0x3c]

800067f4 <rtc_getDay>:
800067f4:	49 ca       	lddpc	r10,80006864 <rtc_getDay+0x70>
800067f6:	15 89       	ld.ub	r9,r10[0x0]
800067f8:	f2 c9 f8 30 	sub	r9,r9,-2000
800067fc:	15 9b       	ld.ub	r11,r10[0x1]
800067fe:	58 2b       	cp.w	r11,2
80006800:	5f 88       	srls	r8
80006802:	10 19       	sub	r9,r8
80006804:	15 aa       	ld.ub	r10,r10[0x2]
80006806:	f5 da c0 46 	bfextu	r10,r10,0x2,0x6
8000680a:	2f aa       	sub	r10,-6
8000680c:	12 0a       	add	r10,r9
8000680e:	49 78       	lddpc	r8,80006868 <rtc_getDay+0x74>
80006810:	f0 0b 00 0b 	add	r11,r8,r11
80006814:	f7 38 ff ff 	ld.ub	r8,r11[-1]
80006818:	10 0a       	add	r10,r8
8000681a:	f2 08 16 02 	lsr	r8,r9,0x2
8000681e:	10 0a       	add	r10,r8
80006820:	e0 68 85 1f 	mov	r8,34079
80006824:	ea 18 51 eb 	orh	r8,0x51eb
80006828:	f2 08 06 48 	mulu.d	r8,r9,r8
8000682c:	f2 0b 16 07 	lsr	r11,r9,0x7
80006830:	16 0a       	add	r10,r11
80006832:	a5 99       	lsr	r9,0x5
80006834:	f4 09 01 08 	sub	r8,r10,r9
80006838:	e0 6b 49 25 	mov	r11,18725
8000683c:	ea 1b 24 92 	orh	r11,0x2492
80006840:	f0 0b 06 4a 	mulu.d	r10,r8,r11
80006844:	f0 0b 01 09 	sub	r9,r8,r11
80006848:	a1 99       	lsr	r9,0x1
8000684a:	f2 0b 00 0b 	add	r11,r9,r11
8000684e:	f6 09 16 02 	lsr	r9,r11,0x2
80006852:	f2 0a 15 03 	lsl	r10,r9,0x3
80006856:	f4 09 01 09 	sub	r9,r10,r9
8000685a:	12 18       	sub	r8,r9
8000685c:	f9 d8 c0 08 	bfextu	r12,r8,0x0,0x8
80006860:	5e fc       	retal	r12
80006862:	00 00       	add	r0,r0
80006864:	00 00       	add	r0,r0
80006866:	0a f3       	st.b	--r5,r3
80006868:	80 00       	ld.sh	r0,r0[0x0]
8000686a:	af bc       	sbr	r12,0xf

8000686c <_timeToBCD>:
8000686c:	d4 31       	pushm	r0-r7,lr
8000686e:	fa c4 ff dc 	sub	r4,sp,-36
80006872:	09 8e       	ld.ub	lr,r4[0x0]
80006874:	09 9b       	ld.ub	r11,r4[0x1]
80006876:	68 19       	ld.w	r9,r4[0x4]
80006878:	f5 d9 c1 27 	bfextu	r10,r9,0x9,0x7
8000687c:	e7 d9 c2 27 	bfextu	r3,r9,0x11,0x7
80006880:	f2 05 16 19 	lsr	r5,r9,0x19
80006884:	68 06       	ld.w	r6,r4[0x0]
80006886:	e5 d6 c0 a3 	bfextu	r2,r6,0x5,0x3
8000688a:	ed d6 c1 46 	bfextu	r6,r6,0xa,0x6
8000688e:	e0 69 85 1f 	mov	r9,34079
80006892:	ea 19 51 eb 	orh	r9,0x51eb
80006896:	fc 09 06 48 	mulu.d	r8,lr,r9
8000689a:	f2 08 16 05 	lsr	r8,r9,0x5
8000689e:	a7 78       	lsl	r8,0x7
800068a0:	e0 67 cc cd 	mov	r7,52429
800068a4:	ea 17 cc cc 	orh	r7,0xcccc
800068a8:	f6 07 06 40 	mulu.d	r0,r11,r7
800068ac:	e2 04 16 03 	lsr	r4,r1,0x3
800068b0:	e8 09 15 04 	lsl	r9,r4,0x4
800068b4:	12 08       	add	r8,r9
800068b6:	e8 04 00 24 	add	r4,r4,r4<<0x2
800068ba:	f6 04 01 1b 	sub	r11,r11,r4<<0x1
800068be:	f0 0b 00 0b 	add	r11,r8,r11
800068c2:	b8 db       	st.b	r12[0x5],r11
800068c4:	fc 07 06 48 	mulu.d	r8,lr,r7
800068c8:	f2 04 16 03 	lsr	r4,r9,0x3
800068cc:	08 98       	mov	r8,r4
800068ce:	5c 58       	castu.b	r8
800068d0:	f0 07 06 40 	mulu.d	r0,r8,r7
800068d4:	e2 07 16 03 	lsr	r7,r1,0x3
800068d8:	ee 07 00 27 	add	r7,r7,r7<<0x2
800068dc:	f0 07 01 18 	sub	r8,r8,r7<<0x1
800068e0:	a5 68       	lsl	r8,0x4
800068e2:	e8 04 00 24 	add	r4,r4,r4<<0x2
800068e6:	fc 04 01 1e 	sub	lr,lr,r4<<0x1
800068ea:	f0 0e 00 0e 	add	lr,r8,lr
800068ee:	b8 ee       	st.b	r12[0x6],lr
800068f0:	e0 68 66 67 	mov	r8,26215
800068f4:	ea 18 66 66 	orh	r8,0x6666
800068f8:	f4 08 04 40 	muls.d	r0,r10,r8
800068fc:	e2 0b 14 02 	asr	r11,r1,0x2
80006900:	f6 09 15 04 	lsl	r9,r11,0x4
80006904:	f6 0b 00 2b 	add	r11,r11,r11<<0x2
80006908:	f4 0b 01 1a 	sub	r10,r10,r11<<0x1
8000690c:	f2 0a 00 0a 	add	r10,r9,r10
80006910:	b8 8a       	st.b	r12[0x0],r10
80006912:	e6 08 04 4a 	muls.d	r10,r3,r8
80006916:	f6 0a 14 02 	asr	r10,r11,0x2
8000691a:	f4 09 15 04 	lsl	r9,r10,0x4
8000691e:	f4 0a 00 2a 	add	r10,r10,r10<<0x2
80006922:	e6 0a 01 13 	sub	r3,r3,r10<<0x1
80006926:	f2 03 00 03 	add	r3,r9,r3
8000692a:	b8 93       	st.b	r12[0x1],r3
8000692c:	ea 08 04 4a 	muls.d	r10,r5,r8
80006930:	f6 09 14 02 	asr	r9,r11,0x2
80006934:	f2 0a 15 04 	lsl	r10,r9,0x4
80006938:	f2 09 00 29 	add	r9,r9,r9<<0x2
8000693c:	ea 09 01 15 	sub	r5,r5,r9<<0x1
80006940:	f4 05 00 05 	add	r5,r10,r5
80006944:	b8 a5       	st.b	r12[0x2],r5
80006946:	b8 b2       	st.b	r12[0x3],r2
80006948:	ec 08 04 48 	muls.d	r8,r6,r8
8000694c:	f2 08 14 02 	asr	r8,r9,0x2
80006950:	f0 09 15 04 	lsl	r9,r8,0x4
80006954:	f0 08 00 28 	add	r8,r8,r8<<0x2
80006958:	ec 08 01 16 	sub	r6,r6,r8<<0x1
8000695c:	f2 06 00 06 	add	r6,r9,r6
80006960:	b8 c6       	st.b	r12[0x4],r6
80006962:	d8 32       	popm	r0-r7,pc

80006964 <_alarmToBCD>:
80006964:	eb cd 40 c0 	pushm	r6-r7,lr
80006968:	40 38       	lddsp	r8,sp[0xc]
8000696a:	f7 d8 c2 27 	bfextu	r11,r8,0x11,0x7
8000696e:	fd d8 c1 27 	bfextu	lr,r8,0x9,0x7
80006972:	e0 69 66 67 	mov	r9,26215
80006976:	ea 19 66 66 	orh	r9,0x6666
8000697a:	fc 09 04 46 	muls.d	r6,lr,r9
8000697e:	0e 9a       	mov	r10,r7
80006980:	a3 4a       	asr	r10,0x2
80006982:	f4 07 15 04 	lsl	r7,r10,0x4
80006986:	f4 0a 00 2a 	add	r10,r10,r10<<0x2
8000698a:	fc 0a 01 1e 	sub	lr,lr,r10<<0x1
8000698e:	ee 0e 00 0e 	add	lr,r7,lr
80006992:	b8 8e       	st.b	r12[0x0],lr
80006994:	f6 09 04 46 	muls.d	r6,r11,r9
80006998:	0e 99       	mov	r9,r7
8000699a:	a3 49       	asr	r9,0x2
8000699c:	f2 0a 15 04 	lsl	r10,r9,0x4
800069a0:	f2 09 00 29 	add	r9,r9,r9<<0x2
800069a4:	f6 09 01 1b 	sub	r11,r11,r9<<0x1
800069a8:	f4 0b 00 0b 	add	r11,r10,r11
800069ac:	b8 9b       	st.b	r12[0x1],r11
800069ae:	bd 98       	lsr	r8,0x1d
800069b0:	a7 a8       	sbr	r8,0x6
800069b2:	b8 a8       	st.b	r12[0x2],r8
800069b4:	e3 cd 80 c0 	ldm	sp++,r6-r7,pc

800069b8 <_BCDToTime>:
800069b8:	eb cd 40 f8 	pushm	r3-r7,lr
800069bc:	17 8a       	ld.ub	r10,r11[0x0]
800069be:	17 9e       	ld.ub	lr,r11[0x1]
800069c0:	17 a7       	ld.ub	r7,r11[0x2]
800069c2:	17 b5       	ld.ub	r5,r11[0x3]
800069c4:	17 c6       	ld.ub	r6,r11[0x4]
800069c6:	17 d9       	ld.ub	r9,r11[0x5]
800069c8:	17 eb       	ld.ub	r11,r11[0x6]
800069ca:	e9 d9 c0 81 	bfextu	r4,r9,0x4,0x1
800069ce:	08 93       	mov	r3,r4
800069d0:	a3 63       	lsl	r3,0x2
800069d2:	06 04       	add	r4,r3
800069d4:	e7 d9 c0 04 	bfextu	r3,r9,0x0,0x4
800069d8:	e6 04 00 14 	add	r4,r3,r4<<0x1
800069dc:	b8 94       	st.b	r12[0x1],r4
800069de:	a7 99       	lsr	r9,0x7
800069e0:	f2 09 10 64 	mul	r9,r9,100
800069e4:	f6 03 16 04 	lsr	r3,r11,0x4
800069e8:	e6 03 00 24 	add	r4,r3,r3<<0x2
800069ec:	f2 04 00 14 	add	r4,r9,r4<<0x1
800069f0:	f7 db c0 04 	bfextu	r11,r11,0x0,0x4
800069f4:	e8 0b 00 0b 	add	r11,r4,r11
800069f8:	b8 8b       	st.b	r12[0x0],r11
800069fa:	ec 09 16 04 	lsr	r9,r6,0x4
800069fe:	f2 09 00 29 	add	r9,r9,r9<<0x2
80006a02:	ed d6 c0 04 	bfextu	r6,r6,0x0,0x4
80006a06:	ec 09 00 16 	add	r6,r6,r9<<0x1
80006a0a:	19 a9       	ld.ub	r9,r12[0x2]
80006a0c:	f3 d6 d0 46 	bfins	r9,r6,0x2,0x6
80006a10:	b8 a9       	st.b	r12[0x2],r9
80006a12:	19 b9       	ld.ub	r9,r12[0x3]
80006a14:	f3 d5 d0 a3 	bfins	r9,r5,0x5,0x3
80006a18:	b8 b9       	st.b	r12[0x3],r9
80006a1a:	f3 d7 c0 82 	bfextu	r9,r7,0x4,0x2
80006a1e:	f2 09 00 29 	add	r9,r9,r9<<0x2
80006a22:	ef d7 c0 04 	bfextu	r7,r7,0x0,0x4
80006a26:	ee 09 00 17 	add	r7,r7,r9<<0x1
80006a2a:	19 c9       	ld.ub	r9,r12[0x4]
80006a2c:	0e 9b       	mov	r11,r7
80006a2e:	f3 db d0 27 	bfins	r9,r11,0x1,0x7
80006a32:	b8 c9       	st.b	r12[0x4],r9
80006a34:	fc 09 16 04 	lsr	r9,lr,0x4
80006a38:	f2 09 00 29 	add	r9,r9,r9<<0x2
80006a3c:	fd de c0 04 	bfextu	lr,lr,0x0,0x4
80006a40:	fc 09 00 1e 	add	lr,lr,r9<<0x1
80006a44:	19 d9       	ld.ub	r9,r12[0x5]
80006a46:	f3 de d0 27 	bfins	r9,lr,0x1,0x7
80006a4a:	b8 d9       	st.b	r12[0x5],r9
80006a4c:	f4 09 16 04 	lsr	r9,r10,0x4
80006a50:	f2 09 00 29 	add	r9,r9,r9<<0x2
80006a54:	f5 da c0 04 	bfextu	r10,r10,0x0,0x4
80006a58:	f4 09 00 1a 	add	r10,r10,r9<<0x1
80006a5c:	19 e9       	ld.ub	r9,r12[0x6]
80006a5e:	f3 da d0 27 	bfins	r9,r10,0x1,0x7
80006a62:	b8 e9       	st.b	r12[0x6],r9
80006a64:	e3 cd 80 f8 	ldm	sp++,r3-r7,pc

80006a68 <_compareToCurrentTime>:
80006a68:	eb cd 40 e0 	pushm	r5-r7,lr
80006a6c:	4a 8e       	lddpc	lr,80006b0c <_compareToCurrentTime+0xa4>
80006a6e:	f8 0c 00 28 	add	r8,r12,r12<<0x2
80006a72:	fc 08 00 08 	add	r8,lr,r8
80006a76:	11 9a       	ld.ub	r10,r8[0x1]
80006a78:	f5 da c0 27 	bfextu	r10,r10,0x1,0x7
80006a7c:	f4 0a 10 3c 	mul	r10,r10,60
80006a80:	11 a9       	ld.ub	r9,r8[0x2]
80006a82:	f3 d9 c0 27 	bfextu	r9,r9,0x1,0x7
80006a86:	14 09       	add	r9,r10
80006a88:	11 88       	ld.ub	r8,r8[0x0]
80006a8a:	f1 d8 c0 a3 	bfextu	r8,r8,0x5,0x3
80006a8e:	20 18       	sub	r8,1
80006a90:	e0 6a 05 a0 	mov	r10,1440
80006a94:	b5 38       	mul	r8,r10
80006a96:	10 09       	add	r9,r8
80006a98:	5c 89       	casts.h	r9
80006a9a:	f6 0b 00 28 	add	r8,r11,r11<<0x2
80006a9e:	10 0e       	add	lr,r8
80006aa0:	1d 97       	ld.ub	r7,lr[0x1]
80006aa2:	f1 d7 c0 27 	bfextu	r8,r7,0x1,0x7
80006aa6:	f0 07 10 3c 	mul	r7,r8,60
80006aaa:	1d a8       	ld.ub	r8,lr[0x2]
80006aac:	f1 d8 c0 27 	bfextu	r8,r8,0x1,0x7
80006ab0:	0e 08       	add	r8,r7
80006ab2:	1d 8e       	ld.ub	lr,lr[0x0]
80006ab4:	fd de c0 a3 	bfextu	lr,lr,0x5,0x3
80006ab8:	20 1e       	sub	lr,1
80006aba:	b5 3e       	mul	lr,r10
80006abc:	1c 08       	add	r8,lr
80006abe:	5c 88       	casts.h	r8
80006ac0:	49 4e       	lddpc	lr,80006b10 <_compareToCurrentTime+0xa8>
80006ac2:	1d c6       	ld.ub	r6,lr[0x4]
80006ac4:	ed d6 c0 27 	bfextu	r6,r6,0x1,0x7
80006ac8:	ec 06 10 3c 	mul	r6,r6,60
80006acc:	1d d7       	ld.ub	r7,lr[0x5]
80006ace:	eb d7 c0 27 	bfextu	r5,r7,0x1,0x7
80006ad2:	0a 97       	mov	r7,r5
80006ad4:	0c 07       	add	r7,r6
80006ad6:	1d be       	ld.ub	lr,lr[0x3]
80006ad8:	fd de c0 a3 	bfextu	lr,lr,0x5,0x3
80006adc:	20 1e       	sub	lr,1
80006ade:	fc 0a 02 4a 	mul	r10,lr,r10
80006ae2:	ee 0a 00 0a 	add	r10,r7,r10
80006ae6:	f4 09 19 00 	cp.h	r9,r10
80006aea:	e0 8b 00 04 	brhi	80006af2 <_compareToCurrentTime+0x8a>
80006aee:	f2 c9 d8 a0 	sub	r9,r9,-10080
80006af2:	f4 08 19 00 	cp.h	r8,r10
80006af6:	e0 8b 00 04 	brhi	80006afe <_compareToCurrentTime+0x96>
80006afa:	f0 c8 d8 a0 	sub	r8,r8,-10080
80006afe:	f0 09 19 00 	cp.h	r9,r8
80006b02:	f6 0c 17 b0 	movhi	r12,r11
80006b06:	e3 cd 80 e0 	ldm	sp++,r5-r7,pc
80006b0a:	00 00       	add	r0,r0
80006b0c:	00 00       	add	r0,r0
80006b0e:	0a c1       	st.b	r5++,r1
80006b10:	00 00       	add	r0,r0
80006b12:	0a f3       	st.b	--r5,r3

80006b14 <_usartWrite>:
80006b14:	eb cd 40 e0 	pushm	r5-r7,lr
80006b18:	18 96       	mov	r6,r12
80006b1a:	16 97       	mov	r7,r11
80006b1c:	58 0b       	cp.w	r11,0
80006b1e:	c0 b0       	breq	80006b34 <_usartWrite+0x20>
80006b20:	fe 75 18 00 	mov	r5,-59392
80006b24:	0d 3b       	ld.ub	r11,r6++
80006b26:	0a 9c       	mov	r12,r5
80006b28:	f0 1f 00 04 	mcall	80006b38 <_usartWrite+0x24>
80006b2c:	c0 41       	brne	80006b34 <_usartWrite+0x20>
80006b2e:	20 17       	sub	r7,1
80006b30:	5c 57       	castu.b	r7
80006b32:	cf 91       	brne	80006b24 <_usartWrite+0x10>
80006b34:	e3 cd 80 e0 	ldm	sp++,r5-r7,pc
80006b38:	80 00       	ld.sh	r0,r0[0x0]
80006b3a:	36 48       	mov	r8,100

80006b3c <rtc_usart_sendTimeToDisplay>:
80006b3c:	d4 01       	pushm	lr
80006b3e:	20 9d       	sub	sp,36
80006b40:	30 7a       	mov	r10,7
80006b42:	4a 8b       	lddpc	r11,80006be0 <rtc_usart_sendTimeToDisplay+0xa4>
80006b44:	1a 9c       	mov	r12,sp
80006b46:	f0 1f 00 28 	mcall	80006be4 <rtc_usart_sendTimeToDisplay+0xa8>
80006b4a:	fa cc ff e4 	sub	r12,sp,-28
80006b4e:	f0 1f 00 27 	mcall	80006be8 <rtc_usart_sendTimeToDisplay+0xac>
80006b52:	30 08       	mov	r8,0
80006b54:	30 09       	mov	r9,0
80006b56:	fa e9 00 10 	st.d	sp[16],r8
80006b5a:	fa c9 ff e8 	sub	r9,sp,-24
80006b5e:	30 08       	mov	r8,0
80006b60:	b2 08       	st.h	r9[0x0],r8
80006b62:	fa c9 ff e6 	sub	r9,sp,-26
80006b66:	b2 88       	st.b	r9[0x0],r8
80006b68:	3a 59       	mov	r9,-91
80006b6a:	fb 69 00 08 	st.b	sp[8],r9
80006b6e:	31 29       	mov	r9,18
80006b70:	fb 69 00 09 	st.b	sp[9],r9
80006b74:	38 09       	mov	r9,-128
80006b76:	fb 69 00 0a 	st.b	sp[10],r9
80006b7a:	fb 68 00 0b 	st.b	sp[11],r8
80006b7e:	fb 38 00 1e 	ld.ub	r8,sp[30]
80006b82:	fb 68 00 0c 	st.b	sp[12],r8
80006b86:	fb 38 00 1d 	ld.ub	r8,sp[29]
80006b8a:	fb 68 00 0d 	st.b	sp[13],r8
80006b8e:	fb 38 00 1c 	ld.ub	r8,sp[28]
80006b92:	fb 68 00 0e 	st.b	sp[14],r8
80006b96:	fb 38 00 1f 	ld.ub	r8,sp[31]
80006b9a:	fb 68 00 0f 	st.b	sp[15],r8
80006b9e:	fb 38 00 20 	ld.ub	r8,sp[32]
80006ba2:	fb 68 00 10 	st.b	sp[16],r8
80006ba6:	fb 38 00 21 	ld.ub	r8,sp[33]
80006baa:	fb 68 00 11 	st.b	sp[17],r8
80006bae:	fb 38 00 22 	ld.ub	r8,sp[34]
80006bb2:	fb 68 00 12 	st.b	sp[18],r8
80006bb6:	fa c8 ff f8 	sub	r8,sp,-8
80006bba:	fa cb ff e6 	sub	r11,sp,-26
80006bbe:	10 9d       	mov	sp,r8
80006bc0:	11 3a       	ld.ub	r10,r8++
80006bc2:	fb 39 00 12 	ld.ub	r9,sp[18]
80006bc6:	f5 e9 20 09 	eor	r9,r10,r9
80006bca:	fb 69 00 12 	st.b	sp[18],r9
80006bce:	16 38       	cp.w	r8,r11
80006bd0:	cf 81       	brne	80006bc0 <rtc_usart_sendTimeToDisplay+0x84>
80006bd2:	31 3b       	mov	r11,19
80006bd4:	1a 9c       	mov	r12,sp
80006bd6:	f0 1f 00 06 	mcall	80006bec <rtc_usart_sendTimeToDisplay+0xb0>
80006bda:	2f 9d       	sub	sp,-28
80006bdc:	d8 02       	popm	pc
80006bde:	00 00       	add	r0,r0
80006be0:	00 00       	add	r0,r0
80006be2:	0a f3       	st.b	--r5,r3
80006be4:	80 00       	ld.sh	r0,r0[0x0]
80006be6:	76 9c       	ld.w	r12,r11[0x24]
80006be8:	80 00       	ld.sh	r0,r0[0x0]
80006bea:	68 6c       	ld.w	r12,r4[0x18]
80006bec:	80 00       	ld.sh	r0,r0[0x0]
80006bee:	6b 14       	ld.w	r4,r5[0x44]

80006bf0 <rtc_write>:
80006bf0:	d4 01       	pushm	lr
80006bf2:	20 4d       	sub	sp,16
80006bf4:	36 88       	mov	r8,104
80006bf6:	ba 88       	st.b	sp[0x0],r8
80006bf8:	ba 9c       	st.b	sp[0x1],r12
80006bfa:	30 08       	mov	r8,0
80006bfc:	ba a8       	st.b	sp[0x2],r8
80006bfe:	ba b8       	st.b	sp[0x3],r8
80006c00:	30 18       	mov	r8,1
80006c02:	50 18       	stdsp	sp[0x4],r8
80006c04:	48 58       	lddpc	r8,80006c18 <rtc_write+0x28>
80006c06:	50 28       	stdsp	sp[0x8],r8
80006c08:	50 3b       	stdsp	sp[0xc],r11
80006c0a:	1a 9b       	mov	r11,sp
80006c0c:	fe 7c 2c 00 	mov	r12,-54272
80006c10:	f0 1f 00 03 	mcall	80006c1c <rtc_write+0x2c>
80006c14:	2f cd       	sub	sp,-16
80006c16:	d8 02       	popm	pc
80006c18:	00 00       	add	r0,r0
80006c1a:	08 1c       	sub	r12,r4
80006c1c:	80 00       	ld.sh	r0,r0[0x0]
80006c1e:	33 d4       	mov	r4,61

80006c20 <rtc_setTime>:
80006c20:	eb cd 40 80 	pushm	r7,lr
80006c24:	20 2d       	sub	sp,8
80006c26:	30 77       	mov	r7,7
80006c28:	0e 9a       	mov	r10,r7
80006c2a:	48 8b       	lddpc	r11,80006c48 <rtc_setTime+0x28>
80006c2c:	1a 9c       	mov	r12,sp
80006c2e:	f0 1f 00 08 	mcall	80006c4c <rtc_setTime+0x2c>
80006c32:	48 8c       	lddpc	r12,80006c50 <rtc_setTime+0x30>
80006c34:	f0 1f 00 08 	mcall	80006c54 <rtc_setTime+0x34>
80006c38:	0e 9b       	mov	r11,r7
80006c3a:	30 0c       	mov	r12,0
80006c3c:	f0 1f 00 07 	mcall	80006c58 <rtc_setTime+0x38>
80006c40:	2f ed       	sub	sp,-8
80006c42:	e3 cd 80 80 	ldm	sp++,r7,pc
80006c46:	00 00       	add	r0,r0
80006c48:	00 00       	add	r0,r0
80006c4a:	0a f3       	st.b	--r5,r3
80006c4c:	80 00       	ld.sh	r0,r0[0x0]
80006c4e:	76 9c       	ld.w	r12,r11[0x24]
80006c50:	00 00       	add	r0,r0
80006c52:	08 1c       	sub	r12,r4
80006c54:	80 00       	ld.sh	r0,r0[0x0]
80006c56:	68 6c       	ld.w	r12,r4[0x18]
80006c58:	80 00       	ld.sh	r0,r0[0x0]
80006c5a:	6b f0       	ld.w	r0,r5[0x7c]

80006c5c <rtc_read>:
80006c5c:	d4 01       	pushm	lr
80006c5e:	20 4d       	sub	sp,16
80006c60:	58 0b       	cp.w	r11,0
80006c62:	c0 c0       	breq	80006c7a <rtc_read+0x1e>
80006c64:	48 f8       	lddpc	r8,80006ca0 <rtc_read+0x44>
80006c66:	f0 ca ff ff 	sub	r10,r8,-1
80006c6a:	f6 c9 00 01 	sub	r9,r11,1
80006c6e:	5c 59       	castu.b	r9
80006c70:	12 0a       	add	r10,r9
80006c72:	30 09       	mov	r9,0
80006c74:	10 c9       	st.b	r8++,r9
80006c76:	14 38       	cp.w	r8,r10
80006c78:	cf e1       	brne	80006c74 <rtc_read+0x18>
80006c7a:	36 88       	mov	r8,104
80006c7c:	ba 88       	st.b	sp[0x0],r8
80006c7e:	ba 9c       	st.b	sp[0x1],r12
80006c80:	30 08       	mov	r8,0
80006c82:	ba a8       	st.b	sp[0x2],r8
80006c84:	ba b8       	st.b	sp[0x3],r8
80006c86:	30 18       	mov	r8,1
80006c88:	50 18       	stdsp	sp[0x4],r8
80006c8a:	48 68       	lddpc	r8,80006ca0 <rtc_read+0x44>
80006c8c:	50 28       	stdsp	sp[0x8],r8
80006c8e:	50 3b       	stdsp	sp[0xc],r11
80006c90:	1a 9b       	mov	r11,sp
80006c92:	fe 7c 2c 00 	mov	r12,-54272
80006c96:	f0 1f 00 04 	mcall	80006ca4 <rtc_read+0x48>
80006c9a:	2f cd       	sub	sp,-16
80006c9c:	d8 02       	popm	pc
80006c9e:	00 00       	add	r0,r0
80006ca0:	00 00       	add	r0,r0
80006ca2:	08 08       	add	r8,r4
80006ca4:	80 00       	ld.sh	r0,r0[0x0]
80006ca6:	34 84       	mov	r4,72

80006ca8 <rtc_setMinutesInterrupt>:
80006ca8:	eb cd 40 80 	pushm	r7,lr
80006cac:	48 e7       	lddpc	r7,80006ce4 <rtc_setMinutesInterrupt+0x3c>
80006cae:	38 08       	mov	r8,-128
80006cb0:	ae 88       	st.b	r7[0x0],r8
80006cb2:	ae 98       	st.b	r7[0x1],r8
80006cb4:	ae a8       	st.b	r7[0x2],r8
80006cb6:	30 3b       	mov	r11,3
80006cb8:	30 bc       	mov	r12,11
80006cba:	f0 1f 00 0c 	mcall	80006ce8 <rtc_setMinutesInterrupt+0x40>
80006cbe:	30 2b       	mov	r11,2
80006cc0:	30 ec       	mov	r12,14
80006cc2:	f0 1f 00 0b 	mcall	80006cec <rtc_setMinutesInterrupt+0x44>
80006cc6:	48 b8       	lddpc	r8,80006cf0 <rtc_setMinutesInterrupt+0x48>
80006cc8:	11 89       	ld.ub	r9,r8[0x0]
80006cca:	e8 19 00 06 	orl	r9,0x6
80006cce:	ae 89       	st.b	r7[0x0],r9
80006cd0:	11 98       	ld.ub	r8,r8[0x1]
80006cd2:	a1 d8       	cbr	r8,0x1
80006cd4:	ae 98       	st.b	r7[0x1],r8
80006cd6:	30 2b       	mov	r11,2
80006cd8:	30 ec       	mov	r12,14
80006cda:	f0 1f 00 04 	mcall	80006ce8 <rtc_setMinutesInterrupt+0x40>
80006cde:	e3 cd 80 80 	ldm	sp++,r7,pc
80006ce2:	00 00       	add	r0,r0
80006ce4:	00 00       	add	r0,r0
80006ce6:	08 1c       	sub	r12,r4
80006ce8:	80 00       	ld.sh	r0,r0[0x0]
80006cea:	6b f0       	ld.w	r0,r5[0x7c]
80006cec:	80 00       	ld.sh	r0,r0[0x0]
80006cee:	6c 5c       	ld.w	r12,r6[0x14]
80006cf0:	00 00       	add	r0,r0
80006cf2:	08 08       	add	r8,r4

80006cf4 <rtc_setNextAlarm>:
80006cf4:	eb cd 40 f8 	pushm	r3-r7,lr
80006cf8:	3f f9       	mov	r9,-1
80006cfa:	4a 48       	lddpc	r8,80006d88 <rtc_setNextAlarm+0x94>
80006cfc:	b0 89       	st.b	r8[0x0],r9
80006cfe:	4a 46       	lddpc	r6,80006d8c <rtc_setNextAlarm+0x98>
80006d00:	2f d6       	sub	r6,-3
80006d02:	30 07       	mov	r7,0
80006d04:	10 95       	mov	r5,r8
80006d06:	12 94       	mov	r4,r9
80006d08:	30 03       	mov	r3,0
80006d0a:	0e 99       	mov	r9,r7
80006d0c:	5c 59       	castu.b	r9
80006d0e:	0b 88       	ld.ub	r8,r5[0x0]
80006d10:	e8 08 18 00 	cp.b	r8,r4
80006d14:	c0 71       	brne	80006d22 <rtc_setNextAlarm+0x2e>
80006d16:	0d 88       	ld.ub	r8,r6[0x0]
80006d18:	e6 08 18 00 	cp.b	r8,r3
80006d1c:	c0 c0       	breq	80006d34 <rtc_setNextAlarm+0x40>
80006d1e:	aa 89       	st.b	r5[0x0],r9
80006d20:	c0 a8       	rjmp	80006d34 <rtc_setNextAlarm+0x40>
80006d22:	0e 9b       	mov	r11,r7
80006d24:	0d 88       	ld.ub	r8,r6[0x0]
80006d26:	e6 08 18 00 	cp.b	r8,r3
80006d2a:	c0 50       	breq	80006d34 <rtc_setNextAlarm+0x40>
80006d2c:	0b 8c       	ld.ub	r12,r5[0x0]
80006d2e:	f0 1f 00 19 	mcall	80006d90 <rtc_setNextAlarm+0x9c>
80006d32:	aa 8c       	st.b	r5[0x0],r12
80006d34:	2f f7       	sub	r7,-1
80006d36:	2f b6       	sub	r6,-5
80006d38:	58 a7       	cp.w	r7,10
80006d3a:	ce 81       	brne	80006d0a <rtc_setNextAlarm+0x16>
80006d3c:	49 38       	lddpc	r8,80006d88 <rtc_setNextAlarm+0x94>
80006d3e:	11 88       	ld.ub	r8,r8[0x0]
80006d40:	49 57       	lddpc	r7,80006d94 <rtc_setNextAlarm+0xa0>
80006d42:	f0 08 00 28 	add	r8,r8,r8<<0x2
80006d46:	20 2d       	sub	sp,8
80006d48:	30 5a       	mov	r10,5
80006d4a:	49 1b       	lddpc	r11,80006d8c <rtc_setNextAlarm+0x98>
80006d4c:	10 0b       	add	r11,r8
80006d4e:	1a 9c       	mov	r12,sp
80006d50:	f0 1f 00 12 	mcall	80006d98 <rtc_setNextAlarm+0xa4>
80006d54:	0e 9c       	mov	r12,r7
80006d56:	f0 1f 00 12 	mcall	80006d9c <rtc_setNextAlarm+0xa8>
80006d5a:	30 3b       	mov	r11,3
80006d5c:	30 8c       	mov	r12,8
80006d5e:	f0 1f 00 11 	mcall	80006da0 <rtc_setNextAlarm+0xac>
80006d62:	30 1b       	mov	r11,1
80006d64:	30 fc       	mov	r12,15
80006d66:	f0 1f 00 10 	mcall	80006da4 <rtc_setNextAlarm+0xb0>
80006d6a:	49 08       	lddpc	r8,80006da8 <rtc_setNextAlarm+0xb4>
80006d6c:	11 88       	ld.ub	r8,r8[0x0]
80006d6e:	a1 c8       	cbr	r8,0x0
80006d70:	ae 88       	st.b	r7[0x0],r8
80006d72:	30 1b       	mov	r11,1
80006d74:	30 fc       	mov	r12,15
80006d76:	f0 1f 00 0b 	mcall	80006da0 <rtc_setNextAlarm+0xac>
80006d7a:	31 cc       	mov	r12,28
80006d7c:	f0 1f 00 0c 	mcall	80006dac <rtc_setNextAlarm+0xb8>
80006d80:	2f ed       	sub	sp,-8
80006d82:	e3 cd 80 f8 	ldm	sp++,r3-r7,pc
80006d86:	00 00       	add	r0,r0
80006d88:	00 00       	add	r0,r0
80006d8a:	08 2c       	rsub	r12,r4
80006d8c:	00 00       	add	r0,r0
80006d8e:	0a c1       	st.b	r5++,r1
80006d90:	80 00       	ld.sh	r0,r0[0x0]
80006d92:	6a 68       	ld.w	r8,r5[0x18]
80006d94:	00 00       	add	r0,r0
80006d96:	08 1c       	sub	r12,r4
80006d98:	80 00       	ld.sh	r0,r0[0x0]
80006d9a:	76 9c       	ld.w	r12,r11[0x24]
80006d9c:	80 00       	ld.sh	r0,r0[0x0]
80006d9e:	69 64       	ld.w	r4,r4[0x58]
80006da0:	80 00       	ld.sh	r0,r0[0x0]
80006da2:	6b f0       	ld.w	r0,r5[0x7c]
80006da4:	80 00       	ld.sh	r0,r0[0x0]
80006da6:	6c 5c       	ld.w	r12,r6[0x14]
80006da8:	00 00       	add	r0,r0
80006daa:	08 08       	add	r8,r4
80006dac:	80 00       	ld.sh	r0,r0[0x0]
80006dae:	2a cc       	sub	r12,-84

80006db0 <rtc_getTime>:
80006db0:	eb cd 40 80 	pushm	r7,lr
80006db4:	20 2d       	sub	sp,8
80006db6:	30 7b       	mov	r11,7
80006db8:	30 0c       	mov	r12,0
80006dba:	f0 1f 00 08 	mcall	80006dd8 <rtc_getTime+0x28>
80006dbe:	1a 97       	mov	r7,sp
80006dc0:	48 7b       	lddpc	r11,80006ddc <rtc_getTime+0x2c>
80006dc2:	1a 9c       	mov	r12,sp
80006dc4:	f0 1f 00 07 	mcall	80006de0 <rtc_getTime+0x30>
80006dc8:	30 7a       	mov	r10,7
80006dca:	1a 9b       	mov	r11,sp
80006dcc:	48 6c       	lddpc	r12,80006de4 <rtc_getTime+0x34>
80006dce:	f0 1f 00 07 	mcall	80006de8 <rtc_getTime+0x38>
80006dd2:	2f ed       	sub	sp,-8
80006dd4:	e3 cd 80 80 	ldm	sp++,r7,pc
80006dd8:	80 00       	ld.sh	r0,r0[0x0]
80006dda:	6c 5c       	ld.w	r12,r6[0x14]
80006ddc:	00 00       	add	r0,r0
80006dde:	08 08       	add	r8,r4
80006de0:	80 00       	ld.sh	r0,r0[0x0]
80006de2:	69 b8       	ld.w	r8,r4[0x6c]
80006de4:	00 00       	add	r0,r0
80006de6:	0a f3       	st.b	--r5,r3
80006de8:	80 00       	ld.sh	r0,r0[0x0]
80006dea:	76 9c       	ld.w	r12,r11[0x24]

80006dec <rtc_rtcISR>:
80006dec:	d4 01       	pushm	lr
80006dee:	30 1b       	mov	r11,1
80006df0:	30 fc       	mov	r12,15
80006df2:	f0 1f 00 0f 	mcall	80006e2c <rtc_rtcISR+0x40>
80006df6:	48 f8       	lddpc	r8,80006e30 <rtc_rtcISR+0x44>
80006df8:	11 88       	ld.ub	r8,r8[0x0]
80006dfa:	f5 d8 c0 21 	bfextu	r10,r8,0x1,0x1
80006dfe:	48 e9       	lddpc	r9,80006e34 <rtc_rtcISR+0x48>
80006e00:	b2 8a       	st.b	r9[0x0],r10
80006e02:	f3 d8 c0 01 	bfextu	r9,r8,0x0,0x1
80006e06:	48 db       	lddpc	r11,80006e38 <rtc_rtcISR+0x4c>
80006e08:	b6 89       	st.b	r11[0x0],r9
80006e0a:	f3 ea 10 19 	or	r9,r9,r10<<0x1
80006e0e:	5c d9       	com	r9
80006e10:	12 68       	and	r8,r9
80006e12:	48 bb       	lddpc	r11,80006e3c <rtc_rtcISR+0x50>
80006e14:	b6 88       	st.b	r11[0x0],r8
80006e16:	30 1b       	mov	r11,1
80006e18:	30 fc       	mov	r12,15
80006e1a:	f0 1f 00 0a 	mcall	80006e40 <rtc_rtcISR+0x54>
80006e1e:	f0 1f 00 0a 	mcall	80006e44 <rtc_rtcISR+0x58>
80006e22:	31 cc       	mov	r12,28
80006e24:	f0 1f 00 09 	mcall	80006e48 <rtc_rtcISR+0x5c>
80006e28:	d4 02       	popm	lr
80006e2a:	d6 03       	rete
80006e2c:	80 00       	ld.sh	r0,r0[0x0]
80006e2e:	6c 5c       	ld.w	r12,r6[0x14]
80006e30:	00 00       	add	r0,r0
80006e32:	08 08       	add	r8,r4
80006e34:	00 00       	add	r0,r0
80006e36:	08 18       	sub	r8,r4
80006e38:	00 00       	add	r0,r0
80006e3a:	08 2d       	rsub	sp,r4
80006e3c:	00 00       	add	r0,r0
80006e3e:	08 1c       	sub	r12,r4
80006e40:	80 00       	ld.sh	r0,r0[0x0]
80006e42:	6b f0       	ld.w	r0,r5[0x7c]
80006e44:	80 00       	ld.sh	r0,r0[0x0]
80006e46:	6d b0       	ld.w	r0,r6[0x6c]
80006e48:	80 00       	ld.sh	r0,r0[0x0]
80006e4a:	2a cc       	sub	r12,-84

80006e4c <sdcard_setFileToRead>:
80006e4c:	a5 7c       	lsl	r12,0x5
80006e4e:	49 78       	lddpc	r8,80006ea8 <sdcard_setFileToRead+0x5c>
80006e50:	f0 0c 00 0c 	add	r12,r8,r12
80006e54:	78 78       	ld.w	r8,r12[0x1c]
80006e56:	49 69       	lddpc	r9,80006eac <sdcard_setFileToRead+0x60>
80006e58:	93 08       	st.w	r9[0x0],r8
80006e5a:	58 08       	cp.w	r8,0
80006e5c:	c0 21       	brne	80006e60 <sdcard_setFileToRead+0x14>
80006e5e:	5e fd       	retal	0
80006e60:	49 49       	lddpc	r9,80006eb0 <sdcard_setFileToRead+0x64>
80006e62:	13 89       	ld.ub	r9,r9[0x0]
80006e64:	20 28       	sub	r8,2
80006e66:	f2 08 02 48 	mul	r8,r9,r8
80006e6a:	49 39       	lddpc	r9,80006eb4 <sdcard_setFileToRead+0x68>
80006e6c:	72 09       	ld.w	r9,r9[0x0]
80006e6e:	12 08       	add	r8,r9
80006e70:	49 29       	lddpc	r9,80006eb8 <sdcard_setFileToRead+0x6c>
80006e72:	93 08       	st.w	r9[0x0],r8
80006e74:	49 29       	lddpc	r9,80006ebc <sdcard_setFileToRead+0x70>
80006e76:	93 08       	st.w	r9[0x0],r8
80006e78:	49 28       	lddpc	r8,80006ec0 <sdcard_setFileToRead+0x74>
80006e7a:	11 89       	ld.ub	r9,r8[0x0]
80006e7c:	30 08       	mov	r8,0
80006e7e:	f0 09 18 00 	cp.b	r9,r8
80006e82:	c0 b0       	breq	80006e98 <sdcard_setFileToRead+0x4c>
80006e84:	30 79       	mov	r9,7
80006e86:	49 08       	lddpc	r8,80006ec4 <sdcard_setFileToRead+0x78>
80006e88:	b0 89       	st.b	r8[0x0],r9
80006e8a:	e0 69 ff f8 	mov	r9,65528
80006e8e:	ea 19 0f ff 	orh	r9,0xfff
80006e92:	48 e8       	lddpc	r8,80006ec8 <sdcard_setFileToRead+0x7c>
80006e94:	91 09       	st.w	r8[0x0],r9
80006e96:	5e ff       	retal	1
80006e98:	30 89       	mov	r9,8
80006e9a:	48 b8       	lddpc	r8,80006ec4 <sdcard_setFileToRead+0x78>
80006e9c:	b0 89       	st.b	r8[0x0],r9
80006e9e:	e0 69 ff ef 	mov	r9,65519
80006ea2:	48 a8       	lddpc	r8,80006ec8 <sdcard_setFileToRead+0x7c>
80006ea4:	91 09       	st.w	r8[0x0],r9
80006ea6:	5e ff       	retal	1
80006ea8:	00 00       	add	r0,r0
80006eaa:	0b 0c       	ld.w	r12,r5++
80006eac:	00 00       	add	r0,r0
80006eae:	0b 00       	ld.w	r0,r5++
80006eb0:	00 00       	add	r0,r0
80006eb2:	0b 08       	ld.w	r8,r5++
80006eb4:	00 00       	add	r0,r0
80006eb6:	19 90       	ld.ub	r0,r12[0x1]
80006eb8:	00 00       	add	r0,r0
80006eba:	0b 04       	ld.w	r4,r5++
80006ebc:	00 00       	add	r0,r0
80006ebe:	19 9c       	ld.ub	r12,r12[0x1]
80006ec0:	00 00       	add	r0,r0
80006ec2:	08 2e       	rsub	lr,r4
80006ec4:	00 00       	add	r0,r0
80006ec6:	19 a0       	ld.ub	r0,r12[0x2]
80006ec8:	00 00       	add	r0,r0
80006eca:	0a fc       	st.b	--r5,r12

80006ecc <pdcaISR>:
80006ecc:	d4 01       	pushm	lr
80006ece:	30 0c       	mov	r12,0
80006ed0:	f0 1f 00 08 	mcall	80006ef0 <pdcaISR+0x24>
80006ed4:	f0 1f 00 08 	mcall	80006ef4 <pdcaISR+0x28>
80006ed8:	30 1c       	mov	r12,1
80006eda:	f0 1f 00 08 	mcall	80006ef8 <pdcaISR+0x2c>
80006ede:	30 0c       	mov	r12,0
80006ee0:	f0 1f 00 06 	mcall	80006ef8 <pdcaISR+0x2c>
80006ee4:	30 19       	mov	r9,1
80006ee6:	48 68       	lddpc	r8,80006efc <pdcaISR+0x30>
80006ee8:	b0 89       	st.b	r8[0x0],r9
80006eea:	d4 02       	popm	lr
80006eec:	d6 03       	rete
80006eee:	00 00       	add	r0,r0
80006ef0:	80 00       	ld.sh	r0,r0[0x0]
80006ef2:	2c 5c       	sub	r12,-59
80006ef4:	80 00       	ld.sh	r0,r0[0x0]
80006ef6:	21 20       	sub	r0,18
80006ef8:	80 00       	ld.sh	r0,r0[0x0]
80006efa:	2c 04       	sub	r4,-64
80006efc:	00 00       	add	r0,r0
80006efe:	08 2f       	rsub	pc,r4

80006f00 <_pdcaInit>:
80006f00:	eb cd 40 b0 	pushm	r4-r5,r7,lr
80006f04:	20 cd       	sub	sp,48
80006f06:	49 78       	lddpc	r8,80006f60 <_pdcaInit+0x60>
80006f08:	fa c7 ff e8 	sub	r7,sp,-24
80006f0c:	f0 ea 00 00 	ld.d	r10,r8[0]
80006f10:	ee eb 00 00 	st.d	r7[0],r10
80006f14:	f0 ea 00 08 	ld.d	r10,r8[8]
80006f18:	ee eb 00 08 	st.d	r7[8],r10
80006f1c:	f0 e8 00 10 	ld.d	r8,r8[16]
80006f20:	ee e9 00 10 	st.d	r7[16],r8
80006f24:	49 08       	lddpc	r8,80006f64 <_pdcaInit+0x64>
80006f26:	1a 9b       	mov	r11,sp
80006f28:	f0 e4 00 00 	ld.d	r4,r8[0]
80006f2c:	fa e5 00 00 	st.d	sp[0],r4
80006f30:	f0 e4 00 08 	ld.d	r4,r8[8]
80006f34:	fa e5 00 08 	st.d	sp[8],r4
80006f38:	f0 e8 00 10 	ld.d	r8,r8[16]
80006f3c:	fa e9 00 10 	st.d	sp[16],r8
80006f40:	30 1c       	mov	r12,1
80006f42:	f0 1f 00 0a 	mcall	80006f68 <_pdcaInit+0x68>
80006f46:	0e 9b       	mov	r11,r7
80006f48:	30 0c       	mov	r12,0
80006f4a:	f0 1f 00 08 	mcall	80006f68 <_pdcaInit+0x68>
80006f4e:	30 1a       	mov	r10,1
80006f50:	36 0b       	mov	r11,96
80006f52:	48 7c       	lddpc	r12,80006f6c <_pdcaInit+0x6c>
80006f54:	f0 1f 00 07 	mcall	80006f70 <_pdcaInit+0x70>
80006f58:	2f 4d       	sub	sp,-48
80006f5a:	e3 cd 80 b0 	ldm	sp++,r4-r5,r7,pc
80006f5e:	00 00       	add	r0,r0
80006f60:	80 00       	ld.sh	r0,r0[0x0]
80006f62:	af c8       	cbr	r8,0xe
80006f64:	80 00       	ld.sh	r0,r0[0x0]
80006f66:	af e0       	*unknown*
80006f68:	80 00       	ld.sh	r0,r0[0x0]
80006f6a:	2c bc       	sub	r12,-53
80006f6c:	80 00       	ld.sh	r0,r0[0x0]
80006f6e:	6e cc       	ld.w	r12,r7[0x30]
80006f70:	80 00       	ld.sh	r0,r0[0x0]
80006f72:	2a e4       	sub	r4,-82

80006f74 <_readSectorFast>:
80006f74:	eb cd 40 80 	pushm	r7,lr
80006f78:	16 97       	mov	r7,r11
80006f7a:	e0 6a 02 00 	mov	r10,512
80006f7e:	18 9b       	mov	r11,r12
80006f80:	30 0c       	mov	r12,0
80006f82:	f0 1f 00 17 	mcall	80006fdc <_readSectorFast+0x68>
80006f86:	e0 6a 02 00 	mov	r10,512
80006f8a:	49 6b       	lddpc	r11,80006fe0 <_readSectorFast+0x6c>
80006f8c:	30 1c       	mov	r12,1
80006f8e:	f0 1f 00 14 	mcall	80006fdc <_readSectorFast+0x68>
80006f92:	30 09       	mov	r9,0
80006f94:	49 48       	lddpc	r8,80006fe4 <_readSectorFast+0x70>
80006f96:	b0 89       	st.b	r8[0x0],r9
80006f98:	0e 9c       	mov	r12,r7
80006f9a:	f0 1f 00 14 	mcall	80006fe8 <_readSectorFast+0x74>
80006f9e:	c1 b0       	breq	80006fd4 <_readSectorFast+0x60>
80006fa0:	30 0c       	mov	r12,0
80006fa2:	f0 1f 00 13 	mcall	80006fec <_readSectorFast+0x78>
80006fa6:	30 1b       	mov	r11,1
80006fa8:	fe 7c 28 00 	mov	r12,-55296
80006fac:	f0 1f 00 11 	mcall	80006ff0 <_readSectorFast+0x7c>
80006fb0:	e0 6b 00 ff 	mov	r11,255
80006fb4:	fe 7c 28 00 	mov	r12,-55296
80006fb8:	f0 1f 00 0f 	mcall	80006ff4 <_readSectorFast+0x80>
80006fbc:	30 0c       	mov	r12,0
80006fbe:	f0 1f 00 0f 	mcall	80006ff8 <_readSectorFast+0x84>
80006fc2:	30 1c       	mov	r12,1
80006fc4:	f0 1f 00 0d 	mcall	80006ff8 <_readSectorFast+0x84>
80006fc8:	48 79       	lddpc	r9,80006fe4 <_readSectorFast+0x70>
80006fca:	13 88       	ld.ub	r8,r9[0x0]
80006fcc:	58 08       	cp.w	r8,0
80006fce:	cf e0       	breq	80006fca <_readSectorFast+0x56>
80006fd0:	e3 cf 90 80 	ldm	sp++,r7,pc,r12=1
80006fd4:	f0 1f 00 0a 	mcall	80006ffc <_readSectorFast+0x88>
80006fd8:	e3 cf 80 80 	ldm	sp++,r7,pc,r12=0
80006fdc:	80 00       	ld.sh	r0,r0[0x0]
80006fde:	2c 84       	sub	r4,-56
80006fe0:	00 00       	add	r0,r0
80006fe2:	04 d4       	st.w	--r2,r4
80006fe4:	00 00       	add	r0,r0
80006fe6:	08 2f       	rsub	pc,r4
80006fe8:	80 00       	ld.sh	r0,r0[0x0]
80006fea:	23 78       	sub	r8,55
80006fec:	80 00       	ld.sh	r0,r0[0x0]
80006fee:	2c 24       	sub	r4,-62
80006ff0:	80 00       	ld.sh	r0,r0[0x0]
80006ff2:	2f 7e       	sub	lr,-9
80006ff4:	80 00       	ld.sh	r0,r0[0x0]
80006ff6:	30 ae       	mov	lr,10
80006ff8:	80 00       	ld.sh	r0,r0[0x0]
80006ffa:	2c 14       	sub	r4,-63
80006ffc:	80 00       	ld.sh	r0,r0[0x0]
80006ffe:	21 20       	sub	r0,18

80007000 <sdcard_getNextSectorFast>:
80007000:	eb cd 40 80 	pushm	r7,lr
80007004:	4b 98       	lddpc	r8,800070e8 <sdcard_getNextSectorFast+0xe8>
80007006:	70 0b       	ld.w	r11,r8[0x0]
80007008:	4b 98       	lddpc	r8,800070ec <sdcard_getNextSectorFast+0xec>
8000700a:	70 08       	ld.w	r8,r8[0x0]
8000700c:	10 3b       	cp.w	r11,r8
8000700e:	c0 31       	brne	80007014 <sdcard_getNextSectorFast+0x14>
80007010:	e3 cf 80 80 	ldm	sp++,r7,pc,r12=0
80007014:	4b 57       	lddpc	r7,800070e8 <sdcard_getNextSectorFast+0xe8>
80007016:	f6 c8 ff ff 	sub	r8,r11,-1
8000701a:	8f 08       	st.w	r7[0x0],r8
8000701c:	f0 1f 00 35 	mcall	800070f0 <sdcard_getNextSectorFast+0xf0>
80007020:	4b 58       	lddpc	r8,800070f4 <sdcard_getNextSectorFast+0xf4>
80007022:	11 89       	ld.ub	r9,r8[0x0]
80007024:	4b 58       	lddpc	r8,800070f8 <sdcard_getNextSectorFast+0xf8>
80007026:	70 08       	ld.w	r8,r8[0x0]
80007028:	10 09       	add	r9,r8
8000702a:	6e 08       	ld.w	r8,r7[0x0]
8000702c:	10 39       	cp.w	r9,r8
8000702e:	e0 88 00 04 	brls	80007036 <sdcard_getNextSectorFast+0x36>
80007032:	e3 cf 90 80 	ldm	sp++,r7,pc,r12=1
80007036:	4b 28       	lddpc	r8,800070fc <sdcard_getNextSectorFast+0xfc>
80007038:	11 88       	ld.ub	r8,r8[0x0]
8000703a:	4b 29       	lddpc	r9,80007100 <sdcard_getNextSectorFast+0x100>
8000703c:	72 0b       	ld.w	r11,r9[0x0]
8000703e:	f6 08 0a 4b 	lsr	r11,r11,r8
80007042:	4b 18       	lddpc	r8,80007104 <sdcard_getNextSectorFast+0x104>
80007044:	70 08       	ld.w	r8,r8[0x0]
80007046:	10 0b       	add	r11,r8
80007048:	4b 0c       	lddpc	r12,80007108 <sdcard_getNextSectorFast+0x108>
8000704a:	f0 1f 00 2a 	mcall	800070f0 <sdcard_getNextSectorFast+0xf0>
8000704e:	4b 08       	lddpc	r8,8000710c <sdcard_getNextSectorFast+0x10c>
80007050:	11 89       	ld.ub	r9,r8[0x0]
80007052:	30 08       	mov	r8,0
80007054:	f0 09 18 00 	cp.b	r9,r8
80007058:	c2 60       	breq	800070a4 <sdcard_getNextSectorFast+0xa4>
8000705a:	4a aa       	lddpc	r10,80007100 <sdcard_getNextSectorFast+0x100>
8000705c:	74 0b       	ld.w	r11,r10[0x0]
8000705e:	f6 09 15 02 	lsl	r9,r11,0x2
80007062:	4a a8       	lddpc	r8,80007108 <sdcard_getNextSectorFast+0x108>
80007064:	f2 cc ff ff 	sub	r12,r9,-1
80007068:	f9 dc c0 09 	bfextu	r12,r12,0x0,0x9
8000706c:	f0 0c 07 07 	ld.ub	r7,r8[r12]
80007070:	a9 67       	lsl	r7,0x8
80007072:	f2 cc ff fd 	sub	r12,r9,-3
80007076:	f9 dc c0 09 	bfextu	r12,r12,0x0,0x9
8000707a:	f0 0c 07 0c 	ld.ub	r12,r8[r12]
8000707e:	b9 6c       	lsl	r12,0x18
80007080:	ee 0c 00 0c 	add	r12,r7,r12
80007084:	f3 d9 c0 09 	bfextu	r9,r9,0x0,0x9
80007088:	f0 09 07 09 	ld.ub	r9,r8[r9]
8000708c:	12 0c       	add	r12,r9
8000708e:	a3 6b       	lsl	r11,0x2
80007090:	2f eb       	sub	r11,-2
80007092:	f7 db c0 09 	bfextu	r11,r11,0x0,0x9
80007096:	f0 0b 07 09 	ld.ub	r9,r8[r11]
8000709a:	b1 69       	lsl	r9,0x10
8000709c:	f8 09 00 08 	add	r8,r12,r9
800070a0:	95 08       	st.w	r10[0x0],r8
800070a2:	c1 38       	rjmp	800070c8 <sdcard_getNextSectorFast+0xc8>
800070a4:	49 78       	lddpc	r8,80007100 <sdcard_getNextSectorFast+0x100>
800070a6:	70 0a       	ld.w	r10,r8[0x0]
800070a8:	a1 7a       	lsl	r10,0x1
800070aa:	49 89       	lddpc	r9,80007108 <sdcard_getNextSectorFast+0x108>
800070ac:	f4 cb ff ff 	sub	r11,r10,-1
800070b0:	f7 db c0 09 	bfextu	r11,r11,0x0,0x9
800070b4:	f2 0b 07 0b 	ld.ub	r11,r9[r11]
800070b8:	a9 6b       	lsl	r11,0x8
800070ba:	f5 da c0 09 	bfextu	r10,r10,0x0,0x9
800070be:	f2 0a 07 0a 	ld.ub	r10,r9[r10]
800070c2:	f6 0a 00 09 	add	r9,r11,r10
800070c6:	91 09       	st.w	r8[0x0],r9
800070c8:	48 b8       	lddpc	r8,800070f4 <sdcard_getNextSectorFast+0xf4>
800070ca:	11 89       	ld.ub	r9,r8[0x0]
800070cc:	48 d8       	lddpc	r8,80007100 <sdcard_getNextSectorFast+0x100>
800070ce:	70 08       	ld.w	r8,r8[0x0]
800070d0:	20 28       	sub	r8,2
800070d2:	f2 08 02 48 	mul	r8,r9,r8
800070d6:	48 f9       	lddpc	r9,80007110 <sdcard_getNextSectorFast+0x110>
800070d8:	72 09       	ld.w	r9,r9[0x0]
800070da:	12 08       	add	r8,r9
800070dc:	48 39       	lddpc	r9,800070e8 <sdcard_getNextSectorFast+0xe8>
800070de:	93 08       	st.w	r9[0x0],r8
800070e0:	48 69       	lddpc	r9,800070f8 <sdcard_getNextSectorFast+0xf8>
800070e2:	93 08       	st.w	r9[0x0],r8
800070e4:	e3 cf 90 80 	ldm	sp++,r7,pc,r12=1
800070e8:	00 00       	add	r0,r0
800070ea:	0b 04       	ld.w	r4,r5++
800070ec:	00 00       	add	r0,r0
800070ee:	0a fc       	st.b	--r5,r12
800070f0:	80 00       	ld.sh	r0,r0[0x0]
800070f2:	6f 74       	ld.w	r4,r7[0x5c]
800070f4:	00 00       	add	r0,r0
800070f6:	0b 08       	ld.w	r8,r5++
800070f8:	00 00       	add	r0,r0
800070fa:	19 9c       	ld.ub	r12,r12[0x1]
800070fc:	00 00       	add	r0,r0
800070fe:	19 a0       	ld.ub	r0,r12[0x2]
80007100:	00 00       	add	r0,r0
80007102:	0b 00       	ld.w	r0,r5++
80007104:	00 00       	add	r0,r0
80007106:	19 94       	ld.ub	r4,r12[0x1]
80007108:	00 00       	add	r0,r0
8000710a:	17 90       	ld.ub	r0,r11[0x1]
8000710c:	00 00       	add	r0,r0
8000710e:	08 2e       	rsub	lr,r4
80007110:	00 00       	add	r0,r0
80007112:	19 90       	ld.ub	r0,r12[0x1]

80007114 <_readSector>:
80007114:	eb cd 40 f8 	pushm	r3-r7,lr
80007118:	20 1d       	sub	sp,4
8000711a:	18 94       	mov	r4,r12
8000711c:	16 97       	mov	r7,r11
8000711e:	f0 1f 00 3f 	mcall	80007218 <_readSector+0x104>
80007122:	c7 80       	breq	80007212 <_readSector+0xfe>
80007124:	30 1b       	mov	r11,1
80007126:	fe 7c 28 00 	mov	r12,-55296
8000712a:	f0 1f 00 3d 	mcall	8000721c <_readSector+0x108>
8000712e:	4b d8       	lddpc	r8,80007220 <_readSector+0x10c>
80007130:	11 89       	ld.ub	r9,r8[0x0]
80007132:	30 38       	mov	r8,3
80007134:	f0 09 18 00 	cp.b	r9,r8
80007138:	c0 61       	brne	80007144 <_readSector+0x30>
8000713a:	0e 9b       	mov	r11,r7
8000713c:	31 1c       	mov	r12,17
8000713e:	f0 1f 00 3a 	mcall	80007224 <_readSector+0x110>
80007142:	c0 68       	rjmp	8000714e <_readSector+0x3a>
80007144:	ee 0b 15 09 	lsl	r11,r7,0x9
80007148:	31 1c       	mov	r12,17
8000714a:	f0 1f 00 37 	mcall	80007224 <_readSector+0x110>
8000714e:	58 0c       	cp.w	r12,0
80007150:	c1 20       	breq	80007174 <_readSector+0x60>
80007152:	30 1b       	mov	r11,1
80007154:	fe 7c 28 00 	mov	r12,-55296
80007158:	f0 1f 00 34 	mcall	80007228 <_readSector+0x114>
8000715c:	30 0c       	mov	r12,0
8000715e:	c5 a8       	rjmp	80007212 <_readSector+0xfe>
80007160:	20 17       	sub	r7,1
80007162:	5c 87       	casts.h	r7
80007164:	c0 d1       	brne	8000717e <_readSector+0x6a>
80007166:	30 1b       	mov	r11,1
80007168:	fe 7c 28 00 	mov	r12,-55296
8000716c:	f0 1f 00 2f 	mcall	80007228 <_readSector+0x114>
80007170:	30 0c       	mov	r12,0
80007172:	c5 08       	rjmp	80007212 <_readSector+0xfe>
80007174:	e0 67 75 30 	mov	r7,30000
80007178:	e0 65 00 ff 	mov	r5,255
8000717c:	3f f6       	mov	r6,-1
8000717e:	0a 9c       	mov	r12,r5
80007180:	f0 1f 00 2b 	mcall	8000722c <_readSector+0x118>
80007184:	ec 0c 18 00 	cp.b	r12,r6
80007188:	ce c0       	breq	80007160 <_readSector+0x4c>
8000718a:	3f e8       	mov	r8,-2
8000718c:	f0 0c 18 00 	cp.b	r12,r8
80007190:	c0 e0       	breq	800071ac <_readSector+0x98>
80007192:	e0 6b 00 ff 	mov	r11,255
80007196:	fe 7c 28 00 	mov	r12,-55296
8000719a:	f0 1f 00 26 	mcall	80007230 <_readSector+0x11c>
8000719e:	30 1b       	mov	r11,1
800071a0:	fe 7c 28 00 	mov	r12,-55296
800071a4:	f0 1f 00 21 	mcall	80007228 <_readSector+0x114>
800071a8:	30 0c       	mov	r12,0
800071aa:	c3 48       	rjmp	80007212 <_readSector+0xfe>
800071ac:	08 97       	mov	r7,r4
800071ae:	e8 c5 fe 00 	sub	r5,r4,-512
800071b2:	e0 64 00 ff 	mov	r4,255
800071b6:	fe 76 28 00 	mov	r6,-55296
800071ba:	fa c3 ff fe 	sub	r3,sp,-2
800071be:	08 9b       	mov	r11,r4
800071c0:	0c 9c       	mov	r12,r6
800071c2:	f0 1f 00 1c 	mcall	80007230 <_readSector+0x11c>
800071c6:	06 9b       	mov	r11,r3
800071c8:	0c 9c       	mov	r12,r6
800071ca:	f0 1f 00 1b 	mcall	80007234 <_readSector+0x120>
800071ce:	9a 18       	ld.sh	r8,sp[0x2]
800071d0:	0e c8       	st.b	r7++,r8
800071d2:	0a 37       	cp.w	r7,r5
800071d4:	cf 51       	brne	800071be <_readSector+0xaa>
800071d6:	e0 6b 00 ff 	mov	r11,255
800071da:	fe 7c 28 00 	mov	r12,-55296
800071de:	f0 1f 00 15 	mcall	80007230 <_readSector+0x11c>
800071e2:	e0 6b 00 ff 	mov	r11,255
800071e6:	fe 7c 28 00 	mov	r12,-55296
800071ea:	f0 1f 00 12 	mcall	80007230 <_readSector+0x11c>
800071ee:	e0 6b 00 ff 	mov	r11,255
800071f2:	fe 7c 28 00 	mov	r12,-55296
800071f6:	f0 1f 00 0f 	mcall	80007230 <_readSector+0x11c>
800071fa:	e0 6b 00 ff 	mov	r11,255
800071fe:	fe 7c 28 00 	mov	r12,-55296
80007202:	f0 1f 00 0c 	mcall	80007230 <_readSector+0x11c>
80007206:	30 1b       	mov	r11,1
80007208:	fe 7c 28 00 	mov	r12,-55296
8000720c:	f0 1f 00 07 	mcall	80007228 <_readSector+0x114>
80007210:	30 1c       	mov	r12,1
80007212:	2f fd       	sub	sp,-4
80007214:	e3 cd 80 f8 	ldm	sp++,r3-r7,pc
80007218:	80 00       	ld.sh	r0,r0[0x0]
8000721a:	21 9c       	sub	r12,25
8000721c:	80 00       	ld.sh	r0,r0[0x0]
8000721e:	2f 7e       	sub	lr,-9
80007220:	00 00       	add	r0,r0
80007222:	0a 46       	or	r6,r5
80007224:	80 00       	ld.sh	r0,r0[0x0]
80007226:	21 f4       	sub	r4,31
80007228:	80 00       	ld.sh	r0,r0[0x0]
8000722a:	2f ca       	sub	r10,-4
8000722c:	80 00       	ld.sh	r0,r0[0x0]
8000722e:	21 68       	sub	r8,22
80007230:	80 00       	ld.sh	r0,r0[0x0]
80007232:	30 ae       	mov	lr,10
80007234:	80 00       	ld.sh	r0,r0[0x0]
80007236:	30 ca       	mov	r10,12

80007238 <sdcard_checkPresence>:
80007238:	d4 01       	pushm	lr
8000723a:	f0 1f 00 02 	mcall	80007240 <sdcard_checkPresence+0x8>
8000723e:	d8 02       	popm	pc
80007240:	80 00       	ld.sh	r0,r0[0x0]
80007242:	22 fc       	sub	r12,47

80007244 <sdcard_mount>:
80007244:	d4 31       	pushm	r0-r7,lr
80007246:	21 0d       	sub	sp,64
80007248:	f0 1f 00 e0 	mcall	800075c8 <sdcard_mount+0x384>
8000724c:	e0 80 01 ba 	breq	800075c0 <sdcard_mount+0x37c>
80007250:	fe f8 03 7c 	ld.w	r8,pc[892]
80007254:	20 4d       	sub	sp,16
80007256:	f0 ea 00 00 	ld.d	r10,r8[0]
8000725a:	fa eb 00 00 	st.d	sp[0],r10
8000725e:	f0 e8 00 08 	ld.d	r8,r8[8]
80007262:	fa e9 00 08 	st.d	sp[8],r8
80007266:	e0 6c 90 00 	mov	r12,36864
8000726a:	ea 1c 03 d0 	orh	r12,0x3d0
8000726e:	f0 1f 00 d9 	mcall	800075d0 <sdcard_mount+0x38c>
80007272:	2f cd       	sub	sp,-16
80007274:	58 0c       	cp.w	r12,0
80007276:	e0 80 01 a5 	breq	800075c0 <sdcard_mount+0x37c>
8000727a:	30 0b       	mov	r11,0
8000727c:	fe fc 03 58 	ld.w	r12,pc[856]
80007280:	f0 1f 00 d6 	mcall	800075d8 <sdcard_mount+0x394>
80007284:	e0 80 01 9e 	breq	800075c0 <sdcard_mount+0x37c>
80007288:	fe f8 03 4c 	ld.w	r8,pc[844]
8000728c:	f1 39 01 c6 	ld.ub	r9,r8[454]
80007290:	f1 37 01 c7 	ld.ub	r7,r8[455]
80007294:	a9 67       	lsl	r7,0x8
80007296:	f1 3a 01 c8 	ld.ub	r10,r8[456]
8000729a:	b1 6a       	lsl	r10,0x10
8000729c:	14 07       	add	r7,r10
8000729e:	12 07       	add	r7,r9
800072a0:	f1 39 01 c9 	ld.ub	r9,r8[457]
800072a4:	b9 69       	lsl	r9,0x18
800072a6:	12 07       	add	r7,r9
800072a8:	f1 39 01 c2 	ld.ub	r9,r8[450]
800072ac:	30 b8       	mov	r8,11
800072ae:	f0 09 18 00 	cp.b	r9,r8
800072b2:	c0 61       	brne	800072be <sdcard_mount+0x7a>
800072b4:	30 19       	mov	r9,1
800072b6:	fe f8 03 26 	ld.w	r8,pc[806]
800072ba:	b0 89       	st.b	r8[0x0],r9
800072bc:	c0 58       	rjmp	800072c6 <sdcard_mount+0x82>
800072be:	30 09       	mov	r9,0
800072c0:	fe f8 03 1c 	ld.w	r8,pc[796]
800072c4:	b0 89       	st.b	r8[0x0],r9
800072c6:	0e 9b       	mov	r11,r7
800072c8:	fe fc 03 0c 	ld.w	r12,pc[780]
800072cc:	f0 1f 00 c3 	mcall	800075d8 <sdcard_mount+0x394>
800072d0:	e0 80 01 78 	breq	800075c0 <sdcard_mount+0x37c>
800072d4:	30 08       	mov	r8,0
800072d6:	fa cb ff f4 	sub	r11,sp,-12
800072da:	fe fa 02 fa 	ld.w	r10,pc[762]
800072de:	f4 08 07 09 	ld.ub	r9,r10[r8]
800072e2:	f6 08 0b 09 	st.b	r11[r8],r9
800072e6:	2f f8       	sub	r8,-1
800072e8:	e0 48 00 30 	cp.w	r8,48
800072ec:	cf 91       	brne	800072de <sdcard_mount+0x9a>
800072ee:	fb 38 00 1c 	ld.ub	r8,sp[28]
800072f2:	fb 36 00 17 	ld.ub	r6,sp[23]
800072f6:	fb 35 00 18 	ld.ub	r5,sp[24]
800072fa:	fb 39 00 1b 	ld.ub	r9,sp[27]
800072fe:	a9 69       	lsl	r9,0x8
80007300:	fb 3a 00 1a 	ld.ub	r10,sp[26]
80007304:	f4 09 00 09 	add	r9,r10,r9
80007308:	5c 89       	casts.h	r9
8000730a:	fb 3c 00 1d 	ld.ub	r12,sp[29]
8000730e:	fb 34 00 1e 	ld.ub	r4,sp[30]
80007312:	fe fa 02 ca 	ld.w	r10,pc[714]
80007316:	15 8b       	ld.ub	r11,r10[0x0]
80007318:	30 0a       	mov	r10,0
8000731a:	f4 0b 18 00 	cp.b	r11,r10
8000731e:	c2 20       	breq	80007362 <sdcard_mount+0x11e>
80007320:	fb 3b 00 31 	ld.ub	r11,sp[49]
80007324:	a9 6b       	lsl	r11,0x8
80007326:	fb 3a 00 32 	ld.ub	r10,sp[50]
8000732a:	b1 6a       	lsl	r10,0x10
8000732c:	14 0b       	add	r11,r10
8000732e:	fb 3a 00 30 	ld.ub	r10,sp[48]
80007332:	14 0b       	add	r11,r10
80007334:	fb 3a 00 33 	ld.ub	r10,sp[51]
80007338:	b9 6a       	lsl	r10,0x18
8000733a:	f6 0a 00 0a 	add	r10,r11,r10
8000733e:	fb 3c 00 19 	ld.ub	r12,sp[25]
80007342:	fe fb 02 9e 	ld.w	r11,pc[670]
80007346:	b6 8c       	st.b	r11[0x0],r12
80007348:	5c 79       	castu.h	r9
8000734a:	12 07       	add	r7,r9
8000734c:	f4 08 02 48 	mul	r8,r10,r8
80007350:	0e 08       	add	r8,r7
80007352:	fe f9 02 92 	ld.w	r9,pc[658]
80007356:	93 08       	st.w	r9[0x0],r8
80007358:	fe f9 02 90 	ld.w	r9,pc[656]
8000735c:	93 07       	st.w	r9[0x0],r7
8000735e:	30 09       	mov	r9,0
80007360:	c2 88       	rjmp	800073b0 <sdcard_mount+0x16c>
80007362:	fb 3b 00 23 	ld.ub	r11,sp[35]
80007366:	a9 6b       	lsl	r11,0x8
80007368:	fb 3a 00 22 	ld.ub	r10,sp[34]
8000736c:	f6 0a 00 0a 	add	r10,r11,r10
80007370:	fb 33 00 19 	ld.ub	r3,sp[25]
80007374:	fe fb 02 6c 	ld.w	r11,pc[620]
80007378:	b6 83       	st.b	r11[0x0],r3
8000737a:	5c 79       	castu.h	r9
8000737c:	12 07       	add	r7,r9
8000737e:	f4 08 02 48 	mul	r8,r10,r8
80007382:	ee 08 00 08 	add	r8,r7,r8
80007386:	fe f9 02 5e 	ld.w	r9,pc[606]
8000738a:	93 08       	st.w	r9[0x0],r8
8000738c:	fe f9 02 5c 	ld.w	r9,pc[604]
80007390:	93 07       	st.w	r9[0x0],r7
80007392:	ea 09 15 08 	lsl	r9,r5,0x8
80007396:	0c 09       	add	r9,r6
80007398:	5c 79       	castu.h	r9
8000739a:	f2 cb 00 01 	sub	r11,r9,1
8000739e:	e8 0a 15 08 	lsl	r10,r4,0x8
800073a2:	18 0a       	add	r10,r12
800073a4:	5c 7a       	castu.h	r10
800073a6:	a5 7a       	lsl	r10,0x5
800073a8:	14 0b       	add	r11,r10
800073aa:	f6 09 0c 0a 	divs	r10,r11,r9
800073ae:	14 99       	mov	r9,r10
800073b0:	12 08       	add	r8,r9
800073b2:	fe f9 02 3a 	ld.w	r9,pc[570]
800073b6:	93 08       	st.w	r9[0x0],r8
800073b8:	fe f8 02 2c 	ld.w	r8,pc[556]
800073bc:	70 08       	ld.w	r8,r8[0x0]
800073be:	50 f8       	stdsp	sp[0x3c],r8
800073c0:	30 09       	mov	r9,0
800073c2:	fe f8 02 2e 	ld.w	r8,pc[558]
800073c6:	b0 89       	st.b	r8[0x0],r9
800073c8:	30 03       	mov	r3,0
800073ca:	06 97       	mov	r7,r3
800073cc:	fe f6 02 08 	ld.w	r6,pc[520]
800073d0:	50 06       	stdsp	sp[0x0],r6
800073d2:	30 12       	mov	r2,1
800073d4:	32 01       	mov	r1,32
800073d6:	12 94       	mov	r4,r9
800073d8:	30 f0       	mov	r0,15
800073da:	0c 9a       	mov	r10,r6
800073dc:	2f 5a       	sub	r10,-11
800073de:	50 1a       	stdsp	sp[0x4],r10
800073e0:	0c 99       	mov	r9,r6
800073e2:	2e 49       	sub	r9,-28
800073e4:	50 29       	stdsp	sp[0x8],r9
800073e6:	eb d7 c0 04 	bfextu	r5,r7,0x0,0x4
800073ea:	c0 a1       	brne	800073fe <sdcard_mount+0x1ba>
800073ec:	40 fb       	lddsp	r11,sp[0x3c]
800073ee:	40 0c       	lddsp	r12,sp[0x0]
800073f0:	f0 1f 00 7a 	mcall	800075d8 <sdcard_mount+0x394>
800073f4:	e0 80 00 e2 	breq	800075b8 <sdcard_mount+0x374>
800073f8:	40 f8       	lddsp	r8,sp[0x3c]
800073fa:	2f f8       	sub	r8,-1
800073fc:	50 f8       	stdsp	sp[0x3c],r8
800073fe:	a5 75       	lsl	r5,0x5
80007400:	ec 05 00 08 	add	r8,r6,r5
80007404:	f1 38 00 0b 	ld.ub	r8,r8[11]
80007408:	e4 08 18 00 	cp.b	r8,r2
8000740c:	5f 8a       	srls	r10
8000740e:	e2 08 18 00 	cp.b	r8,r1
80007412:	5f 09       	sreq	r9
80007414:	f5 e9 10 09 	or	r9,r10,r9
80007418:	e8 09 18 00 	cp.b	r9,r4
8000741c:	c5 20       	breq	800074c0 <sdcard_mount+0x27c>
8000741e:	ec 05 07 0a 	ld.ub	r10,r6[r5]
80007422:	3e 59       	mov	r9,-27
80007424:	f2 0a 18 00 	cp.b	r10,r9
80007428:	c4 c0       	breq	800074c0 <sdcard_mount+0x27c>
8000742a:	ec 05 00 08 	add	r8,r6,r5
8000742e:	f1 39 00 08 	ld.ub	r9,r8[8]
80007432:	35 78       	mov	r8,87
80007434:	f0 09 18 00 	cp.b	r9,r8
80007438:	e0 81 00 ad 	brne	80007592 <sdcard_mount+0x34e>
8000743c:	ec 05 00 08 	add	r8,r6,r5
80007440:	f1 39 00 09 	ld.ub	r9,r8[9]
80007444:	34 18       	mov	r8,65
80007446:	f0 09 18 00 	cp.b	r9,r8
8000744a:	e0 81 00 a4 	brne	80007592 <sdcard_mount+0x34e>
8000744e:	ec 05 00 08 	add	r8,r6,r5
80007452:	f1 39 00 0a 	ld.ub	r9,r8[10]
80007456:	35 68       	mov	r8,86
80007458:	f0 09 18 00 	cp.b	r9,r8
8000745c:	e0 81 00 9b 	brne	80007592 <sdcard_mount+0x34e>
80007460:	06 9c       	mov	r12,r3
80007462:	e6 08 15 05 	lsl	r8,r3,0x5
80007466:	4e 4a       	lddpc	r10,800075f4 <sdcard_mount+0x3b0>
80007468:	f4 08 07 08 	ld.ub	r8,r10[r8]
8000746c:	e8 08 18 00 	cp.b	r8,r4
80007470:	c0 e1       	brne	8000748c <sdcard_mount+0x248>
80007472:	ea 06 00 08 	add	r8,r5,r6
80007476:	e6 09 15 05 	lsl	r9,r3,0x5
8000747a:	14 09       	add	r9,r10
8000747c:	ec cb ff f5 	sub	r11,r6,-11
80007480:	ea 0b 00 0b 	add	r11,r5,r11
80007484:	11 3a       	ld.ub	r10,r8++
80007486:	12 ca       	st.b	r9++,r10
80007488:	16 38       	cp.w	r8,r11
8000748a:	cf d1       	brne	80007484 <sdcard_mount+0x240>
8000748c:	f8 08 15 05 	lsl	r8,r12,0x5
80007490:	4d 99       	lddpc	r9,800075f4 <sdcard_mount+0x3b0>
80007492:	f2 08 00 08 	add	r8,r9,r8
80007496:	ec 05 00 05 	add	r5,r6,r5
8000749a:	eb 3a 00 1b 	ld.ub	r10,r5[27]
8000749e:	a9 6a       	lsl	r10,0x8
800074a0:	eb 39 00 14 	ld.ub	r9,r5[20]
800074a4:	b1 69       	lsl	r9,0x10
800074a6:	12 0a       	add	r10,r9
800074a8:	eb 39 00 1a 	ld.ub	r9,r5[26]
800074ac:	12 0a       	add	r10,r9
800074ae:	eb 39 00 15 	ld.ub	r9,r5[21]
800074b2:	b9 69       	lsl	r9,0x18
800074b4:	f4 09 00 09 	add	r9,r10,r9
800074b8:	91 79       	st.w	r8[0x1c],r9
800074ba:	2f f3       	sub	r3,-1
800074bc:	5c 53       	castu.b	r3
800074be:	c6 a8       	rjmp	80007592 <sdcard_mount+0x34e>
800074c0:	e0 08 18 00 	cp.b	r8,r0
800074c4:	c6 71       	brne	80007592 <sdcard_mount+0x34e>
800074c6:	ec 05 07 08 	ld.ub	r8,r6[r5]
800074ca:	f3 d8 c0 01 	bfextu	r9,r8,0x0,0x1
800074ce:	c0 51       	brne	800074d8 <sdcard_mount+0x294>
800074d0:	34 19       	mov	r9,65
800074d2:	f2 08 18 00 	cp.b	r8,r9
800074d6:	c3 01       	brne	80007536 <sdcard_mount+0x2f2>
800074d8:	ea c8 ff ff 	sub	r8,r5,-1
800074dc:	0c 08       	add	r8,r6
800074de:	06 9b       	mov	r11,r3
800074e0:	e6 09 15 05 	lsl	r9,r3,0x5
800074e4:	4c 4a       	lddpc	r10,800075f4 <sdcard_mount+0x3b0>
800074e6:	14 09       	add	r9,r10
800074e8:	40 1a       	lddsp	r10,sp[0x4]
800074ea:	ea 0a 00 0c 	add	r12,r5,r10
800074ee:	11 8a       	ld.ub	r10,r8[0x0]
800074f0:	12 ca       	st.b	r9++,r10
800074f2:	2f e8       	sub	r8,-2
800074f4:	18 38       	cp.w	r8,r12
800074f6:	cf c1       	brne	800074ee <sdcard_mount+0x2aa>
800074f8:	ea c8 ff f2 	sub	r8,r5,-14
800074fc:	0c 08       	add	r8,r6
800074fe:	f6 09 15 05 	lsl	r9,r11,0x5
80007502:	2f b9       	sub	r9,-5
80007504:	4b ca       	lddpc	r10,800075f4 <sdcard_mount+0x3b0>
80007506:	14 09       	add	r9,r10
80007508:	40 2a       	lddsp	r10,sp[0x8]
8000750a:	ea 0a 00 0c 	add	r12,r5,r10
8000750e:	11 8a       	ld.ub	r10,r8[0x0]
80007510:	12 ca       	st.b	r9++,r10
80007512:	2f e8       	sub	r8,-2
80007514:	18 38       	cp.w	r8,r12
80007516:	cf c1       	brne	8000750e <sdcard_mount+0x2ca>
80007518:	a5 7b       	lsl	r11,0x5
8000751a:	4b 79       	lddpc	r9,800075f4 <sdcard_mount+0x3b0>
8000751c:	f2 0b 00 0b 	add	r11,r9,r11
80007520:	ec 05 00 05 	add	r5,r6,r5
80007524:	eb 38 00 1c 	ld.ub	r8,r5[28]
80007528:	f7 68 00 0b 	st.b	r11[11],r8
8000752c:	eb 38 00 1e 	ld.ub	r8,r5[30]
80007530:	f7 68 00 0c 	st.b	r11[12],r8
80007534:	c2 f8       	rjmp	80007592 <sdcard_mount+0x34e>
80007536:	30 29       	mov	r9,2
80007538:	f2 08 18 00 	cp.b	r8,r9
8000753c:	5f 09       	sreq	r9
8000753e:	34 2a       	mov	r10,66
80007540:	f4 08 18 00 	cp.b	r8,r10
80007544:	5f 08       	sreq	r8
80007546:	f3 e8 10 08 	or	r8,r9,r8
8000754a:	e8 08 18 00 	cp.b	r8,r4
8000754e:	c2 20       	breq	80007592 <sdcard_mount+0x34e>
80007550:	ea c8 ff ff 	sub	r8,r5,-1
80007554:	0c 08       	add	r8,r6
80007556:	06 9c       	mov	r12,r3
80007558:	e6 09 15 05 	lsl	r9,r3,0x5
8000755c:	2f 39       	sub	r9,-13
8000755e:	4a 6a       	lddpc	r10,800075f4 <sdcard_mount+0x3b0>
80007560:	14 09       	add	r9,r10
80007562:	40 1a       	lddsp	r10,sp[0x4]
80007564:	ea 0a 00 0b 	add	r11,r5,r10
80007568:	11 8a       	ld.ub	r10,r8[0x0]
8000756a:	12 ca       	st.b	r9++,r10
8000756c:	2f e8       	sub	r8,-2
8000756e:	16 38       	cp.w	r8,r11
80007570:	cf c1       	brne	80007568 <sdcard_mount+0x324>
80007572:	ea c8 ff f2 	sub	r8,r5,-14
80007576:	0c 08       	add	r8,r6
80007578:	f8 09 15 05 	lsl	r9,r12,0x5
8000757c:	2e e9       	sub	r9,-18
8000757e:	49 ea       	lddpc	r10,800075f4 <sdcard_mount+0x3b0>
80007580:	14 09       	add	r9,r10
80007582:	40 0a       	lddsp	r10,sp[0x0]
80007584:	2e 8a       	sub	r10,-24
80007586:	14 05       	add	r5,r10
80007588:	11 8a       	ld.ub	r10,r8[0x0]
8000758a:	12 ca       	st.b	r9++,r10
8000758c:	2f e8       	sub	r8,-2
8000758e:	0a 38       	cp.w	r8,r5
80007590:	cf c1       	brne	80007588 <sdcard_mount+0x344>
80007592:	2f f7       	sub	r7,-1
80007594:	5c 87       	casts.h	r7
80007596:	e0 68 01 ff 	mov	r8,511
8000759a:	f0 07 19 00 	cp.h	r7,r8
8000759e:	5f 89       	srls	r9
800075a0:	36 38       	mov	r8,99
800075a2:	f0 03 18 00 	cp.b	r3,r8
800075a6:	5f 88       	srls	r8
800075a8:	f3 e8 00 08 	and	r8,r9,r8
800075ac:	e8 08 18 00 	cp.b	r8,r4
800075b0:	fe 91 ff 1b 	brne	800073e6 <sdcard_mount+0x1a2>
800075b4:	48 f8       	lddpc	r8,800075f0 <sdcard_mount+0x3ac>
800075b6:	b0 83       	st.b	r8[0x0],r3
800075b8:	f0 1f 00 10 	mcall	800075f8 <sdcard_mount+0x3b4>
800075bc:	30 1c       	mov	r12,1
800075be:	c0 28       	rjmp	800075c2 <sdcard_mount+0x37e>
800075c0:	30 0c       	mov	r12,0
800075c2:	2f 0d       	sub	sp,-64
800075c4:	d8 32       	popm	r0-r7,pc
800075c6:	00 00       	add	r0,r0
800075c8:	80 00       	ld.sh	r0,r0[0x0]
800075ca:	72 38       	ld.w	r8,r9[0xc]
800075cc:	00 00       	add	r0,r0
800075ce:	04 c4       	st.b	r2++,r4
800075d0:	80 00       	ld.sh	r0,r0[0x0]
800075d2:	29 30       	sub	r0,-109
800075d4:	00 00       	add	r0,r0
800075d6:	17 90       	ld.ub	r0,r11[0x1]
800075d8:	80 00       	ld.sh	r0,r0[0x0]
800075da:	71 14       	ld.w	r4,r8[0x44]
800075dc:	00 00       	add	r0,r0
800075de:	08 2e       	rsub	lr,r4
800075e0:	00 00       	add	r0,r0
800075e2:	0b 08       	ld.w	r8,r5++
800075e4:	00 00       	add	r0,r0
800075e6:	19 98       	ld.ub	r8,r12[0x1]
800075e8:	00 00       	add	r0,r0
800075ea:	19 94       	ld.ub	r4,r12[0x1]
800075ec:	00 00       	add	r0,r0
800075ee:	19 90       	ld.ub	r0,r12[0x1]
800075f0:	00 00       	add	r0,r0
800075f2:	17 8c       	ld.ub	r12,r11[0x0]
800075f4:	00 00       	add	r0,r0
800075f6:	0b 0c       	ld.w	r12,r5++
800075f8:	80 00       	ld.sh	r0,r0[0x0]
800075fa:	6f 00       	ld.w	r0,r7[0x40]

800075fc <sysclk_init>:
800075fc:	d4 01       	pushm	lr
800075fe:	30 3a       	mov	r10,3
80007600:	e0 6b 24 00 	mov	r11,9216
80007604:	ea 1b 00 f4 	orh	r11,0xf4
80007608:	fe 7c 0c 00 	mov	r12,-62464
8000760c:	f0 1f 00 19 	mcall	80007670 <sysclk_init+0x74>
80007610:	31 08       	mov	r8,16
80007612:	1a d8       	st.w	--sp,r8
80007614:	30 08       	mov	r8,0
80007616:	30 19       	mov	r9,1
80007618:	30 7a       	mov	r10,7
8000761a:	10 9b       	mov	r11,r8
8000761c:	fe 7c 0c 00 	mov	r12,-62464
80007620:	f0 1f 00 15 	mcall	80007674 <sysclk_init+0x78>
80007624:	30 08       	mov	r8,0
80007626:	30 19       	mov	r9,1
80007628:	12 9a       	mov	r10,r9
8000762a:	10 9b       	mov	r11,r8
8000762c:	fe 7c 0c 00 	mov	r12,-62464
80007630:	f0 1f 00 12 	mcall	80007678 <sysclk_init+0x7c>
80007634:	30 0b       	mov	r11,0
80007636:	fe 7c 0c 00 	mov	r12,-62464
8000763a:	f0 1f 00 11 	mcall	8000767c <sysclk_init+0x80>
8000763e:	fe 7c 0c 00 	mov	r12,-62464
80007642:	f0 1f 00 10 	mcall	80007680 <sysclk_init+0x84>
80007646:	30 0a       	mov	r10,0
80007648:	1a da       	st.w	--sp,r10
8000764a:	1a da       	st.w	--sp,r10
8000764c:	14 98       	mov	r8,r10
8000764e:	14 99       	mov	r9,r10
80007650:	30 1b       	mov	r11,1
80007652:	fe 7c 0c 00 	mov	r12,-62464
80007656:	f0 1f 00 0c 	mcall	80007684 <sysclk_init+0x88>
8000765a:	30 1c       	mov	r12,1
8000765c:	f0 1f 00 0b 	mcall	80007688 <sysclk_init+0x8c>
80007660:	30 2b       	mov	r11,2
80007662:	fe 7c 0c 00 	mov	r12,-62464
80007666:	f0 1f 00 0a 	mcall	8000768c <sysclk_init+0x90>
8000766a:	2f dd       	sub	sp,-12
8000766c:	d8 02       	popm	pc
8000766e:	00 00       	add	r0,r0
80007670:	80 00       	ld.sh	r0,r0[0x0]
80007672:	2e 40       	sub	r0,-28
80007674:	80 00       	ld.sh	r0,r0[0x0]
80007676:	2d e2       	sub	r2,-34
80007678:	80 00       	ld.sh	r0,r0[0x0]
8000767a:	2e 04       	sub	r4,-32
8000767c:	80 00       	ld.sh	r0,r0[0x0]
8000767e:	2e 1e       	sub	lr,-31
80007680:	80 00       	ld.sh	r0,r0[0x0]
80007682:	2e 2c       	sub	r12,-30
80007684:	80 00       	ld.sh	r0,r0[0x0]
80007686:	2d 9c       	sub	r12,-39
80007688:	80 00       	ld.sh	r0,r0[0x0]
8000768a:	29 64       	sub	r4,-106
8000768c:	80 00       	ld.sh	r0,r0[0x0]
8000768e:	2e 36       	sub	r6,-29

80007690 <main>:
80007690:	d4 01       	pushm	lr
80007692:	f0 1f 00 02 	mcall	80007698 <main+0x8>
80007696:	d8 0a       	popm	pc,r12=0
80007698:	80 00       	ld.sh	r0,r0[0x0]
8000769a:	67 30       	ld.w	r0,r3[0x4c]

8000769c <memcpy>:
8000769c:	58 8a       	cp.w	r10,8
8000769e:	c2 f5       	brlt	800076fc <memcpy+0x60>
800076a0:	f9 eb 10 09 	or	r9,r12,r11
800076a4:	e2 19 00 03 	andl	r9,0x3,COH
800076a8:	e0 81 00 97 	brne	800077d6 <memcpy+0x13a>
800076ac:	e0 4a 00 20 	cp.w	r10,32
800076b0:	c3 b4       	brge	80007726 <memcpy+0x8a>
800076b2:	f4 08 14 02 	asr	r8,r10,0x2
800076b6:	f0 09 11 08 	rsub	r9,r8,8
800076ba:	fe 09 00 2f 	add	pc,pc,r9<<0x2
800076be:	76 69       	ld.w	r9,r11[0x18]
800076c0:	99 69       	st.w	r12[0x18],r9
800076c2:	76 59       	ld.w	r9,r11[0x14]
800076c4:	99 59       	st.w	r12[0x14],r9
800076c6:	76 49       	ld.w	r9,r11[0x10]
800076c8:	99 49       	st.w	r12[0x10],r9
800076ca:	76 39       	ld.w	r9,r11[0xc]
800076cc:	99 39       	st.w	r12[0xc],r9
800076ce:	76 29       	ld.w	r9,r11[0x8]
800076d0:	99 29       	st.w	r12[0x8],r9
800076d2:	76 19       	ld.w	r9,r11[0x4]
800076d4:	99 19       	st.w	r12[0x4],r9
800076d6:	76 09       	ld.w	r9,r11[0x0]
800076d8:	99 09       	st.w	r12[0x0],r9
800076da:	f6 08 00 2b 	add	r11,r11,r8<<0x2
800076de:	f8 08 00 28 	add	r8,r12,r8<<0x2
800076e2:	e0 1a 00 03 	andl	r10,0x3
800076e6:	f4 0a 11 04 	rsub	r10,r10,4
800076ea:	fe 0a 00 2f 	add	pc,pc,r10<<0x2
800076ee:	17 a9       	ld.ub	r9,r11[0x2]
800076f0:	b0 a9       	st.b	r8[0x2],r9
800076f2:	17 99       	ld.ub	r9,r11[0x1]
800076f4:	b0 99       	st.b	r8[0x1],r9
800076f6:	17 89       	ld.ub	r9,r11[0x0]
800076f8:	b0 89       	st.b	r8[0x0],r9
800076fa:	5e fc       	retal	r12
800076fc:	f4 0a 11 09 	rsub	r10,r10,9
80007700:	fe 0a 00 2f 	add	pc,pc,r10<<0x2
80007704:	17 f9       	ld.ub	r9,r11[0x7]
80007706:	b8 f9       	st.b	r12[0x7],r9
80007708:	17 e9       	ld.ub	r9,r11[0x6]
8000770a:	b8 e9       	st.b	r12[0x6],r9
8000770c:	17 d9       	ld.ub	r9,r11[0x5]
8000770e:	b8 d9       	st.b	r12[0x5],r9
80007710:	17 c9       	ld.ub	r9,r11[0x4]
80007712:	b8 c9       	st.b	r12[0x4],r9
80007714:	17 b9       	ld.ub	r9,r11[0x3]
80007716:	b8 b9       	st.b	r12[0x3],r9
80007718:	17 a9       	ld.ub	r9,r11[0x2]
8000771a:	b8 a9       	st.b	r12[0x2],r9
8000771c:	17 99       	ld.ub	r9,r11[0x1]
8000771e:	b8 99       	st.b	r12[0x1],r9
80007720:	17 89       	ld.ub	r9,r11[0x0]
80007722:	b8 89       	st.b	r12[0x0],r9
80007724:	5e fc       	retal	r12
80007726:	eb cd 40 c0 	pushm	r6-r7,lr
8000772a:	18 99       	mov	r9,r12
8000772c:	22 0a       	sub	r10,32
8000772e:	b7 07       	ld.d	r6,r11++
80007730:	b3 26       	st.d	r9++,r6
80007732:	b7 07       	ld.d	r6,r11++
80007734:	b3 26       	st.d	r9++,r6
80007736:	b7 07       	ld.d	r6,r11++
80007738:	b3 26       	st.d	r9++,r6
8000773a:	b7 07       	ld.d	r6,r11++
8000773c:	b3 26       	st.d	r9++,r6
8000773e:	22 0a       	sub	r10,32
80007740:	cf 74       	brge	8000772e <memcpy+0x92>
80007742:	2f 0a       	sub	r10,-16
80007744:	c0 65       	brlt	80007750 <memcpy+0xb4>
80007746:	b7 07       	ld.d	r6,r11++
80007748:	b3 26       	st.d	r9++,r6
8000774a:	b7 07       	ld.d	r6,r11++
8000774c:	b3 26       	st.d	r9++,r6
8000774e:	21 0a       	sub	r10,16
80007750:	5c 3a       	neg	r10
80007752:	fe 0a 00 3f 	add	pc,pc,r10<<0x3
80007756:	d7 03       	nop
80007758:	d7 03       	nop
8000775a:	f7 36 00 0e 	ld.ub	r6,r11[14]
8000775e:	f3 66 00 0e 	st.b	r9[14],r6
80007762:	f7 36 00 0d 	ld.ub	r6,r11[13]
80007766:	f3 66 00 0d 	st.b	r9[13],r6
8000776a:	f7 36 00 0c 	ld.ub	r6,r11[12]
8000776e:	f3 66 00 0c 	st.b	r9[12],r6
80007772:	f7 36 00 0b 	ld.ub	r6,r11[11]
80007776:	f3 66 00 0b 	st.b	r9[11],r6
8000777a:	f7 36 00 0a 	ld.ub	r6,r11[10]
8000777e:	f3 66 00 0a 	st.b	r9[10],r6
80007782:	f7 36 00 09 	ld.ub	r6,r11[9]
80007786:	f3 66 00 09 	st.b	r9[9],r6
8000778a:	f7 36 00 08 	ld.ub	r6,r11[8]
8000778e:	f3 66 00 08 	st.b	r9[8],r6
80007792:	f7 36 00 07 	ld.ub	r6,r11[7]
80007796:	f3 66 00 07 	st.b	r9[7],r6
8000779a:	f7 36 00 06 	ld.ub	r6,r11[6]
8000779e:	f3 66 00 06 	st.b	r9[6],r6
800077a2:	f7 36 00 05 	ld.ub	r6,r11[5]
800077a6:	f3 66 00 05 	st.b	r9[5],r6
800077aa:	f7 36 00 04 	ld.ub	r6,r11[4]
800077ae:	f3 66 00 04 	st.b	r9[4],r6
800077b2:	f7 36 00 03 	ld.ub	r6,r11[3]
800077b6:	f3 66 00 03 	st.b	r9[3],r6
800077ba:	f7 36 00 02 	ld.ub	r6,r11[2]
800077be:	f3 66 00 02 	st.b	r9[2],r6
800077c2:	f7 36 00 01 	ld.ub	r6,r11[1]
800077c6:	f3 66 00 01 	st.b	r9[1],r6
800077ca:	f7 36 00 00 	ld.ub	r6,r11[0]
800077ce:	f3 66 00 00 	st.b	r9[0],r6
800077d2:	e3 cd 80 c0 	ldm	sp++,r6-r7,pc
800077d6:	20 1a       	sub	r10,1
800077d8:	f6 0a 07 09 	ld.ub	r9,r11[r10]
800077dc:	f8 0a 0b 09 	st.b	r12[r10],r9
800077e0:	cf b1       	brne	800077d6 <memcpy+0x13a>
800077e2:	5e fc       	retal	r12

800077e4 <memset>:
800077e4:	18 98       	mov	r8,r12
800077e6:	c0 38       	rjmp	800077ec <memset+0x8>
800077e8:	10 cb       	st.b	r8++,r11
800077ea:	20 1a       	sub	r10,1
800077ec:	58 0a       	cp.w	r10,0
800077ee:	cf d1       	brne	800077e8 <memset+0x4>
800077f0:	5e fc       	retal	r12

Disassembly of section .exception:

80007800 <_evba>:
80007800:	c0 08       	rjmp	80007800 <_evba>
	...

80007804 <_handle_TLB_Multiple_Hit>:
80007804:	c0 08       	rjmp	80007804 <_handle_TLB_Multiple_Hit>
	...

80007808 <_handle_Bus_Error_Data_Fetch>:
80007808:	c0 08       	rjmp	80007808 <_handle_Bus_Error_Data_Fetch>
	...

8000780c <_handle_Bus_Error_Instruction_Fetch>:
8000780c:	c0 08       	rjmp	8000780c <_handle_Bus_Error_Instruction_Fetch>
	...

80007810 <_handle_NMI>:
80007810:	c0 08       	rjmp	80007810 <_handle_NMI>
	...

80007814 <_handle_Instruction_Address>:
80007814:	c0 08       	rjmp	80007814 <_handle_Instruction_Address>
	...

80007818 <_handle_ITLB_Protection>:
80007818:	c0 08       	rjmp	80007818 <_handle_ITLB_Protection>
	...

8000781c <_handle_Breakpoint>:
8000781c:	c0 08       	rjmp	8000781c <_handle_Breakpoint>
	...

80007820 <_handle_Illegal_Opcode>:
80007820:	c0 08       	rjmp	80007820 <_handle_Illegal_Opcode>
	...

80007824 <_handle_Unimplemented_Instruction>:
80007824:	c0 08       	rjmp	80007824 <_handle_Unimplemented_Instruction>
	...

80007828 <_handle_Privilege_Violation>:
80007828:	c0 08       	rjmp	80007828 <_handle_Privilege_Violation>
	...

8000782c <_handle_Floating_Point>:
8000782c:	c0 08       	rjmp	8000782c <_handle_Floating_Point>
	...

80007830 <_handle_Coprocessor_Absent>:
80007830:	c0 08       	rjmp	80007830 <_handle_Coprocessor_Absent>
	...

80007834 <_handle_Data_Address_Read>:
80007834:	c0 08       	rjmp	80007834 <_handle_Data_Address_Read>
	...

80007838 <_handle_Data_Address_Write>:
80007838:	c0 08       	rjmp	80007838 <_handle_Data_Address_Write>
	...

8000783c <_handle_DTLB_Protection_Read>:
8000783c:	c0 08       	rjmp	8000783c <_handle_DTLB_Protection_Read>
	...

80007840 <_handle_DTLB_Protection_Write>:
80007840:	c0 08       	rjmp	80007840 <_handle_DTLB_Protection_Write>
	...

80007844 <_handle_DTLB_Modified>:
80007844:	c0 08       	rjmp	80007844 <_handle_DTLB_Modified>
	...

80007850 <_handle_ITLB_Miss>:
80007850:	c0 08       	rjmp	80007850 <_handle_ITLB_Miss>
	...

80007860 <_handle_DTLB_Miss_Read>:
80007860:	c0 08       	rjmp	80007860 <_handle_DTLB_Miss_Read>
	...

80007870 <_handle_DTLB_Miss_Write>:
80007870:	c0 08       	rjmp	80007870 <_handle_DTLB_Miss_Write>
	...

80007900 <_handle_Supervisor_Call>:
80007900:	c0 08       	rjmp	80007900 <_handle_Supervisor_Call>
80007902:	d7 03       	nop

80007904 <_int0>:
80007904:	30 0c       	mov	r12,0
80007906:	fe b0 d9 59 	rcall	80002bb8 <_get_interrupt_handler>
8000790a:	58 0c       	cp.w	r12,0
8000790c:	f8 0f 17 10 	movne	pc,r12
80007910:	d6 03       	rete

80007912 <_int1>:
80007912:	30 1c       	mov	r12,1
80007914:	fe b0 d9 52 	rcall	80002bb8 <_get_interrupt_handler>
80007918:	58 0c       	cp.w	r12,0
8000791a:	f8 0f 17 10 	movne	pc,r12
8000791e:	d6 03       	rete

80007920 <_int2>:
80007920:	30 2c       	mov	r12,2
80007922:	fe b0 d9 4b 	rcall	80002bb8 <_get_interrupt_handler>
80007926:	58 0c       	cp.w	r12,0
80007928:	f8 0f 17 10 	movne	pc,r12
8000792c:	d6 03       	rete

8000792e <_int3>:
8000792e:	30 3c       	mov	r12,3
80007930:	fe b0 d9 44 	rcall	80002bb8 <_get_interrupt_handler>
80007934:	58 0c       	cp.w	r12,0
80007936:	f8 0f 17 10 	movne	pc,r12
8000793a:	d6 03       	rete
8000793c:	d7 03       	nop
8000793e:	d7 03       	nop
80007940:	d7 03       	nop
80007942:	d7 03       	nop
80007944:	d7 03       	nop
80007946:	d7 03       	nop
80007948:	d7 03       	nop
8000794a:	d7 03       	nop
8000794c:	d7 03       	nop
8000794e:	d7 03       	nop
80007950:	d7 03       	nop
80007952:	d7 03       	nop
80007954:	d7 03       	nop
80007956:	d7 03       	nop
80007958:	d7 03       	nop
8000795a:	d7 03       	nop
8000795c:	d7 03       	nop
8000795e:	d7 03       	nop
80007960:	d7 03       	nop
80007962:	d7 03       	nop
80007964:	d7 03       	nop
80007966:	d7 03       	nop
80007968:	d7 03       	nop
8000796a:	d7 03       	nop
8000796c:	d7 03       	nop
8000796e:	d7 03       	nop
80007970:	d7 03       	nop
80007972:	d7 03       	nop
80007974:	d7 03       	nop
80007976:	d7 03       	nop
80007978:	d7 03       	nop
8000797a:	d7 03       	nop
8000797c:	d7 03       	nop
8000797e:	d7 03       	nop
80007980:	d7 03       	nop
80007982:	d7 03       	nop
80007984:	d7 03       	nop
80007986:	d7 03       	nop
80007988:	d7 03       	nop
8000798a:	d7 03       	nop
8000798c:	d7 03       	nop
8000798e:	d7 03       	nop
80007990:	d7 03       	nop
80007992:	d7 03       	nop
80007994:	d7 03       	nop
80007996:	d7 03       	nop
80007998:	d7 03       	nop
8000799a:	d7 03       	nop
8000799c:	d7 03       	nop
8000799e:	d7 03       	nop
800079a0:	d7 03       	nop
800079a2:	d7 03       	nop
800079a4:	d7 03       	nop
800079a6:	d7 03       	nop
800079a8:	d7 03       	nop
800079aa:	d7 03       	nop
800079ac:	d7 03       	nop
800079ae:	d7 03       	nop
800079b0:	d7 03       	nop
800079b2:	d7 03       	nop
800079b4:	d7 03       	nop
800079b6:	d7 03       	nop
800079b8:	d7 03       	nop
800079ba:	d7 03       	nop
800079bc:	d7 03       	nop
800079be:	d7 03       	nop
800079c0:	d7 03       	nop
800079c2:	d7 03       	nop
800079c4:	d7 03       	nop
800079c6:	d7 03       	nop
800079c8:	d7 03       	nop
800079ca:	d7 03       	nop
800079cc:	d7 03       	nop
800079ce:	d7 03       	nop
800079d0:	d7 03       	nop
800079d2:	d7 03       	nop
800079d4:	d7 03       	nop
800079d6:	d7 03       	nop
800079d8:	d7 03       	nop
800079da:	d7 03       	nop
800079dc:	d7 03       	nop
800079de:	d7 03       	nop
800079e0:	d7 03       	nop
800079e2:	d7 03       	nop
800079e4:	d7 03       	nop
800079e6:	d7 03       	nop
800079e8:	d7 03       	nop
800079ea:	d7 03       	nop
800079ec:	d7 03       	nop
800079ee:	d7 03       	nop
800079f0:	d7 03       	nop
800079f2:	d7 03       	nop
800079f4:	d7 03       	nop
800079f6:	d7 03       	nop
800079f8:	d7 03       	nop
800079fa:	d7 03       	nop
800079fc:	d7 03       	nop
800079fe:	d7 03       	nop
