
Command.elf:     file format elf32-avr32

Sections:
Idx Name          Size      VMA       LMA       File off  Algn
  0 .reset        00002004  80000000  80000000  00000400  2**2
                  CONTENTS, ALLOC, LOAD, READONLY, CODE
  1 .rela.got     00000000  80002004  80002004  00002404  2**2
                  CONTENTS, ALLOC, LOAD, READONLY, DATA
  2 .text         000021f8  80002004  80002004  00002404  2**2
                  CONTENTS, ALLOC, LOAD, READONLY, CODE
  3 .exception    00000200  80004200  80004200  00004600  2**9
                  CONTENTS, ALLOC, LOAD, READONLY, CODE
  4 .rodata       00003468  80004400  80004400  00004800  2**2
                  CONTENTS, ALLOC, LOAD, READONLY, DATA
  5 .data         00000514  00000004  80007868  00008004  2**2
                  CONTENTS, ALLOC, LOAD, DATA
  6 .bss          00000118  00000518  80007d7c  00008518  2**2
                  ALLOC
  7 .comment      00000030  00000000  00000000  00008518  2**0
                  CONTENTS, READONLY
  8 .debug_aranges 00000aa0  00000000  00000000  00008548  2**3
                  CONTENTS, READONLY, DEBUGGING
  9 .debug_pubnames 000018f2  00000000  00000000  00008fe8  2**0
                  CONTENTS, READONLY, DEBUGGING
 10 .debug_info   000103be  00000000  00000000  0000a8da  2**0
                  CONTENTS, READONLY, DEBUGGING
 11 .debug_abbrev 00002e50  00000000  00000000  0001ac98  2**0
                  CONTENTS, READONLY, DEBUGGING
 12 .debug_line   0000b38e  00000000  00000000  0001dae8  2**0
                  CONTENTS, READONLY, DEBUGGING
 13 .debug_frame  00001b14  00000000  00000000  00028e78  2**2
                  CONTENTS, READONLY, DEBUGGING
 14 .debug_str    000035a2  00000000  00000000  0002a98c  2**0
                  CONTENTS, READONLY, DEBUGGING
 15 .debug_loc    0000411c  00000000  00000000  0002df2e  2**0
                  CONTENTS, READONLY, DEBUGGING
 16 .debug_macinfo 00e2e838  00000000  00000000  0003204a  2**0
                  CONTENTS, READONLY, DEBUGGING
 17 .stack        00001000  0000f000  0000f000  00000400  2**0
                  ALLOC
 18 .debug_ranges 00000c50  00000000  00000000  00e60888  2**3
                  CONTENTS, READONLY, DEBUGGING

Disassembly of section .reset:

80000000 <_trampoline>:

  .global _trampoline
  .type _trampoline, @function
_trampoline:
  // Jump to program start.
  rjmp    program_start
80000000:	e0 8f 10 00 	bral	80002000 <program_start>
	...

80002000 <program_start>:

  .org  PROGRAM_START_OFFSET
program_start:
  // Jump to the C runtime startup routine.
  lda.w   pc, _stext
80002000:	fe cf fb 4c 	sub	pc,pc,-1204

Disassembly of section .text:

80002004 <flashc_set_wait_state>:
80002004:	fe 68 14 00 	mov	r8,-125952
}


void flashc_set_wait_state(unsigned int wait_state)
{
	u_avr32_flashc_fcr_t u_avr32_flashc_fcr = {AVR32_FLASHC.fcr};
80002008:	70 09       	ld.w	r9,r8[0x0]
	u_avr32_flashc_fcr.FCR.fws = wait_state;
8000200a:	f3 dc d0 c1 	bfins	r9,r12,0x6,0x1
	AVR32_FLASHC.fcr = u_avr32_flashc_fcr.fcr;
8000200e:	91 09       	st.w	r8[0x0],r9
}
80002010:	5e fc       	retal	r12

80002012 <gpio_enable_module_pin>:
 *
 * \return \ref GPIO_SUCCESS or \ref GPIO_INVALID_ARGUMENT.
 */
uint32_t gpio_enable_module_pin(uint32_t pin, uint32_t function)
{
	volatile avr32_gpio_port_t *gpio_port = &AVR32_GPIO.port[pin >> 5];
80002012:	f8 08 16 05 	lsr	r8,r12,0x5
80002016:	a9 68       	lsl	r8,0x8
80002018:	e0 28 f0 00 	sub	r8,61440

	/* Enable the correct function. */
	switch (function) {
8000201c:	58 1b       	cp.w	r11,1
8000201e:	c0 d0       	breq	80002038 <gpio_enable_module_pin+0x26>
80002020:	c0 63       	brcs	8000202c <gpio_enable_module_pin+0x1a>
80002022:	58 2b       	cp.w	r11,2
80002024:	c1 00       	breq	80002044 <gpio_enable_module_pin+0x32>
80002026:	58 3b       	cp.w	r11,3
80002028:	c1 40       	breq	80002050 <gpio_enable_module_pin+0x3e>
8000202a:	5e ff       	retal	1
	case 0: /* A function. */
		gpio_port->pmr0c = 1 << (pin & 0x1F);
8000202c:	30 19       	mov	r9,1
8000202e:	f2 0c 09 49 	lsl	r9,r9,r12
80002032:	91 69       	st.w	r8[0x18],r9
		gpio_port->pmr1c = 1 << (pin & 0x1F);
80002034:	91 a9       	st.w	r8[0x28],r9
#if (AVR32_GPIO_H_VERSION >= 210)
		gpio_port->pmr2c = 1 << (pin & 0x1F);
#endif
		break;
80002036:	c1 28       	rjmp	8000205a <gpio_enable_module_pin+0x48>

	case 1: /* B function. */
		gpio_port->pmr0s = 1 << (pin & 0x1F);
80002038:	30 19       	mov	r9,1
8000203a:	f2 0c 09 49 	lsl	r9,r9,r12
8000203e:	91 59       	st.w	r8[0x14],r9
		gpio_port->pmr1c = 1 << (pin & 0x1F);
80002040:	91 a9       	st.w	r8[0x28],r9
#if (AVR32_GPIO_H_VERSION >= 210)
		gpio_port->pmr2c = 1 << (pin & 0x1F);
#endif
		break;
80002042:	c0 c8       	rjmp	8000205a <gpio_enable_module_pin+0x48>

	case 2: /* C function. */
		gpio_port->pmr0c = 1 << (pin & 0x1F);
80002044:	30 19       	mov	r9,1
80002046:	f2 0c 09 49 	lsl	r9,r9,r12
8000204a:	91 69       	st.w	r8[0x18],r9
		gpio_port->pmr1s = 1 << (pin & 0x1F);
8000204c:	91 99       	st.w	r8[0x24],r9
#if (AVR32_GPIO_H_VERSION >= 210)
		gpio_port->pmr2c = 1 << (pin & 0x1F);
#endif
		break;
8000204e:	c0 68       	rjmp	8000205a <gpio_enable_module_pin+0x48>

	case 3: /* D function. */
		gpio_port->pmr0s = 1 << (pin & 0x1F);
80002050:	30 19       	mov	r9,1
80002052:	f2 0c 09 49 	lsl	r9,r9,r12
80002056:	91 59       	st.w	r8[0x14],r9
		gpio_port->pmr1s = 1 << (pin & 0x1F);
80002058:	91 99       	st.w	r8[0x24],r9
	default:
		return GPIO_INVALID_ARGUMENT;
	}

	/* Disable GPIO control. */
	gpio_port->gperc = 1 << (pin & 0x1F);
8000205a:	30 19       	mov	r9,1
8000205c:	f2 0c 09 4c 	lsl	r12,r9,r12
80002060:	91 2c       	st.w	r8[0x8],r12
80002062:	5e fd       	retal	0

80002064 <gpio_enable_module>:
 * \param size The number of pins in \a gpiomap.
 *
 * \return \ref GPIO_SUCCESS or \ref GPIO_INVALID_ARGUMENT.
 */
uint32_t gpio_enable_module(const gpio_map_t gpiomap, uint32_t size)
{
80002064:	d4 21       	pushm	r4-r7,lr
80002066:	18 97       	mov	r7,r12
80002068:	16 94       	mov	r4,r11
	uint32_t status = GPIO_SUCCESS;
	uint32_t i;

	for (i = 0; i < size; i++) {
8000206a:	58 0b       	cp.w	r11,0
8000206c:	c0 31       	brne	80002072 <gpio_enable_module+0xe>
8000206e:	30 05       	mov	r5,0
80002070:	c0 d8       	rjmp	8000208a <gpio_enable_module+0x26>
80002072:	30 06       	mov	r6,0
80002074:	0c 95       	mov	r5,r6
		status |= gpio_enable_module_pin(gpiomap->pin, gpiomap->function);
80002076:	6e 1b       	ld.w	r11,r7[0x4]
80002078:	6e 0c       	ld.w	r12,r7[0x0]
8000207a:	f0 1f 00 06 	mcall	80002090 <gpio_enable_module+0x2c>
8000207e:	18 45       	or	r5,r12
		gpiomap++;
80002080:	2f 87       	sub	r7,-8
uint32_t gpio_enable_module(const gpio_map_t gpiomap, uint32_t size)
{
	uint32_t status = GPIO_SUCCESS;
	uint32_t i;

	for (i = 0; i < size; i++) {
80002082:	2f f6       	sub	r6,-1
80002084:	0c 34       	cp.w	r4,r6
80002086:	fe 9b ff f8 	brhi	80002076 <gpio_enable_module+0x12>
		status |= gpio_enable_module_pin(gpiomap->pin, gpiomap->function);
		gpiomap++;
	}

	return status;
}
8000208a:	0a 9c       	mov	r12,r5
8000208c:	d8 22       	popm	r4-r7,pc
8000208e:	00 00       	add	r0,r0
80002090:	80 00       	ld.sh	r0,r0[0x0]
80002092:	20 12       	sub	r2,1

80002094 <gpio_set_gpio_pin>:
 *
 * \param pin The pin number.
 */
void gpio_set_gpio_pin(uint32_t pin)
{
	volatile avr32_gpio_port_t *gpio_port = &AVR32_GPIO.port[pin >> 5];
80002094:	f8 08 16 05 	lsr	r8,r12,0x5
80002098:	a9 68       	lsl	r8,0x8
8000209a:	e0 28 f0 00 	sub	r8,61440
	
	/* Value to be driven on the I/O line: 1. */
	gpio_port->ovrs  = 1 << (pin & 0x1F);
8000209e:	30 19       	mov	r9,1
800020a0:	f2 0c 09 4c 	lsl	r12,r9,r12
800020a4:	f1 4c 00 54 	st.w	r8[84],r12
	/* The GPIO output driver is enabled for that pin. */ 
	gpio_port->oders = 1 << (pin & 0x1F);
800020a8:	f1 4c 00 44 	st.w	r8[68],r12
	/* The GPIO module controls that pin. */
	gpio_port->gpers = 1 << (pin & 0x1F);
800020ac:	91 1c       	st.w	r8[0x4],r12
}
800020ae:	5e fc       	retal	r12

800020b0 <gpio_clr_gpio_pin>:
 *
 * \param pin The pin number.
 */
void gpio_clr_gpio_pin(uint32_t pin)
{
	volatile avr32_gpio_port_t *gpio_port = &AVR32_GPIO.port[pin >> 5];
800020b0:	f8 08 16 05 	lsr	r8,r12,0x5
800020b4:	a9 68       	lsl	r8,0x8
800020b6:	e0 28 f0 00 	sub	r8,61440
	
	/* Value to be driven on the I/O line: 0. */
	gpio_port->ovrc  = 1 << (pin & 0x1F);
800020ba:	30 19       	mov	r9,1
800020bc:	f2 0c 09 4c 	lsl	r12,r9,r12
800020c0:	f1 4c 00 58 	st.w	r8[88],r12
	/* The GPIO output driver is enabled for that pin. */
	gpio_port->oders = 1 << (pin & 0x1F);
800020c4:	f1 4c 00 44 	st.w	r8[68],r12
	/* The GPIO module controls that pin. */
	gpio_port->gpers = 1 << (pin & 0x1F);
800020c8:	91 1c       	st.w	r8[0x4],r12
}
800020ca:	5e fc       	retal	r12

800020cc <_get_interrupt_handler>:
__int_handler _get_interrupt_handler(uint32_t int_level)
{
	/* ICR3 is mapped first, ICR0 last.
	Code in exception.S puts int_level in R12 which is used by the compiler
	to pass a single argument to a function. */
	uint32_t int_grp = AVR32_INTC.icr[AVR32_INTC_INT3 - int_level];
800020cc:	fe 78 08 00 	mov	r8,-63488
800020d0:	e0 69 00 83 	mov	r9,131
800020d4:	f2 0c 01 0c 	sub	r12,r9,r12
800020d8:	f0 0c 03 29 	ld.w	r9,r8[r12<<0x2]
	uint32_t int_req = AVR32_INTC.irr[int_grp];
800020dc:	f2 ca ff c0 	sub	r10,r9,-64
800020e0:	f0 0a 03 28 	ld.w	r8,r8[r10<<0x2]
	exception.S will provide the interrupt handler with a clean interrupt
	stack frame, with nothing more pushed onto the stack. The interrupt
	handler must manage the `rete' instruction, which can be done using
	pure assembly, inline assembly or the `__attribute__((__interrupt__))'
	C function attribute.*/
	return (int_req)
800020e4:	58 08       	cp.w	r8,0
800020e6:	c0 21       	brne	800020ea <_get_interrupt_handler+0x1e>
800020e8:	5e fd       	retal	0
		? _int_handler_table[int_grp]._int_line_handler_table[32
			- clz(int_req) - 1]
800020ea:	f0 08 12 00 	clz	r8,r8
	stack frame, with nothing more pushed onto the stack. The interrupt
	handler must manage the `rete' instruction, which can be done using
	pure assembly, inline assembly or the `__attribute__((__interrupt__))'
	C function attribute.*/
	return (int_req)
		? _int_handler_table[int_grp]._int_line_handler_table[32
800020ee:	48 5a       	lddpc	r10,80002100 <_get_interrupt_handler+0x34>
800020f0:	f4 09 00 39 	add	r9,r10,r9<<0x3
800020f4:	f0 08 11 1f 	rsub	r8,r8,31
800020f8:	72 19       	ld.w	r9,r9[0x4]
	exception.S will provide the interrupt handler with a clean interrupt
	stack frame, with nothing more pushed onto the stack. The interrupt
	handler must manage the `rete' instruction, which can be done using
	pure assembly, inline assembly or the `__attribute__((__interrupt__))'
	C function attribute.*/
	return (int_req)
800020fa:	f2 08 03 2c 	ld.w	r12,r9[r8<<0x2]
		? _int_handler_table[int_grp]._int_line_handler_table[32
			- clz(int_req) - 1]
		: NULL;
}
800020fe:	5e fc       	retal	r12
80002100:	80 00       	ld.sh	r0,r0[0x0]
80002102:	44 00       	lddsp	r0,sp[0x100]

80002104 <pm_set_osc0_mode>:
 * \param mode Oscillator 0 mode (i.e. AVR32_PM_OSCCTRL0_MODE_x).
 */
static void pm_set_osc0_mode(volatile avr32_pm_t *pm, unsigned int mode)
{
  // Read
  u_avr32_pm_oscctrl0_t u_avr32_pm_oscctrl0 = {pm->oscctrl0};
80002104:	78 a8       	ld.w	r8,r12[0x28]
  // Modify
  u_avr32_pm_oscctrl0.OSCCTRL0.mode = mode;
80002106:	f1 db d0 03 	bfins	r8,r11,0x0,0x3
  // Write
  pm->oscctrl0 = u_avr32_pm_oscctrl0.oscctrl0;
8000210a:	99 a8       	st.w	r12[0x28],r8
}
8000210c:	5e fc       	retal	r12
8000210e:	d7 03       	nop

80002110 <pm_enable_osc0_crystal>:
  pm_set_osc0_mode(pm, AVR32_PM_OSCCTRL0_MODE_EXT_CLOCK);
}


void pm_enable_osc0_crystal(volatile avr32_pm_t *pm, unsigned int fosc0)
{
80002110:	d4 01       	pushm	lr
  pm_set_osc0_mode(pm, (fosc0 <  900000) ? AVR32_PM_OSCCTRL0_MODE_CRYSTAL_G0 :
80002112:	ec 5b bb 9f 	cp.w	r11,899999
80002116:	e0 8b 00 04 	brhi	8000211e <pm_enable_osc0_crystal+0xe>
8000211a:	30 4b       	mov	r11,4
8000211c:	c1 38       	rjmp	80002142 <pm_enable_osc0_crystal+0x32>
8000211e:	e0 68 c6 bf 	mov	r8,50879
80002122:	ea 18 00 2d 	orh	r8,0x2d
80002126:	10 3b       	cp.w	r11,r8
80002128:	e0 8b 00 04 	brhi	80002130 <pm_enable_osc0_crystal+0x20>
8000212c:	30 5b       	mov	r11,5
8000212e:	c0 a8       	rjmp	80002142 <pm_enable_osc0_crystal+0x32>
80002130:	e0 68 12 00 	mov	r8,4608
80002134:	ea 18 00 7a 	orh	r8,0x7a
80002138:	10 3b       	cp.w	r11,r8
8000213a:	f9 bb 03 06 	movlo	r11,6
8000213e:	f9 bb 02 07 	movhs	r11,7
80002142:	f0 1f 00 02 	mcall	80002148 <pm_enable_osc0_crystal+0x38>
                       (fosc0 < 3000000) ? AVR32_PM_OSCCTRL0_MODE_CRYSTAL_G1 :
                       (fosc0 < 8000000) ? AVR32_PM_OSCCTRL0_MODE_CRYSTAL_G2 :
                                           AVR32_PM_OSCCTRL0_MODE_CRYSTAL_G3);
}
80002146:	d8 02       	popm	pc
80002148:	80 00       	ld.sh	r0,r0[0x0]
8000214a:	21 04       	sub	r4,16

8000214c <pm_enable_clk0_no_wait>:


void pm_enable_clk0_no_wait(volatile avr32_pm_t *pm, unsigned int startup)
{
  // Read register
  u_avr32_pm_oscctrl0_t u_avr32_pm_oscctrl0 = {pm->oscctrl0};
8000214c:	78 a8       	ld.w	r8,r12[0x28]
  // Modify
  u_avr32_pm_oscctrl0.OSCCTRL0.startup = startup;
8000214e:	f1 db d1 03 	bfins	r8,r11,0x8,0x3
  // Write back
  pm->oscctrl0 = u_avr32_pm_oscctrl0.oscctrl0;
80002152:	99 a8       	st.w	r12[0x28],r8

  pm->mcctrl |= AVR32_PM_MCCTRL_OSC0EN_MASK;
80002154:	78 08       	ld.w	r8,r12[0x0]
80002156:	a3 a8       	sbr	r8,0x2
80002158:	99 08       	st.w	r12[0x0],r8
}
8000215a:	5e fc       	retal	r12

8000215c <pm_wait_for_clk0_ready>:


void pm_wait_for_clk0_ready(volatile avr32_pm_t *pm)
{
  while (!(pm->poscsr & AVR32_PM_POSCSR_OSC0RDY_MASK));
8000215c:	79 58       	ld.w	r8,r12[0x54]
8000215e:	e2 18 00 80 	andl	r8,0x80,COH
80002162:	cf d0       	breq	8000215c <pm_wait_for_clk0_ready>
}
80002164:	5e fc       	retal	r12
80002166:	d7 03       	nop

80002168 <pm_enable_clk0>:
                                           AVR32_PM_OSCCTRL0_MODE_CRYSTAL_G3);
}


void pm_enable_clk0(volatile avr32_pm_t *pm, unsigned int startup)
{
80002168:	eb cd 40 80 	pushm	r7,lr
8000216c:	18 97       	mov	r7,r12
  pm_enable_clk0_no_wait(pm, startup);
8000216e:	f0 1f 00 04 	mcall	8000217c <pm_enable_clk0+0x14>
  pm_wait_for_clk0_ready(pm);
80002172:	0e 9c       	mov	r12,r7
80002174:	f0 1f 00 03 	mcall	80002180 <pm_enable_clk0+0x18>
}
80002178:	e3 cd 80 80 	ldm	sp++,r7,pc
8000217c:	80 00       	ld.sh	r0,r0[0x0]
8000217e:	21 4c       	sub	r12,20
80002180:	80 00       	ld.sh	r0,r0[0x0]
80002182:	21 5c       	sub	r12,21

80002184 <pm_cksel>:
              unsigned int pbasel,
              unsigned int pbbdiv,
              unsigned int pbbsel,
              unsigned int hsbdiv,
              unsigned int hsbsel)
{
80002184:	eb cd 40 d0 	pushm	r4,r6-r7,lr
80002188:	fa c4 ff f0 	sub	r4,sp,-16
  u_avr32_pm_cksel_t u_avr32_pm_cksel = {0};
8000218c:	30 0e       	mov	lr,0

  u_avr32_pm_cksel.CKSEL.cpusel = hsbsel;
8000218e:	09 f7       	ld.ub	r7,r4[0x7]
80002190:	ef d7 c0 03 	bfextu	r7,r7,0x0,0x3
80002194:	fd d7 d0 03 	bfins	lr,r7,0x0,0x3
  u_avr32_pm_cksel.CKSEL.cpudiv = hsbdiv;
80002198:	09 b4       	ld.ub	r4,r4[0x3]
8000219a:	08 96       	mov	r6,r4
8000219c:	e9 d4 c0 01 	bfextu	r4,r4,0x0,0x1
800021a0:	fd d4 d0 e1 	bfins	lr,r4,0x7,0x1
  u_avr32_pm_cksel.CKSEL.hsbsel = hsbsel;
800021a4:	fd d7 d1 03 	bfins	lr,r7,0x8,0x3
  u_avr32_pm_cksel.CKSEL.hsbdiv = hsbdiv;
800021a8:	fd d4 d1 e1 	bfins	lr,r4,0xf,0x1
  u_avr32_pm_cksel.CKSEL.pbasel = pbasel;
800021ac:	fd da d2 03 	bfins	lr,r10,0x10,0x3
  u_avr32_pm_cksel.CKSEL.pbadiv = pbadiv;
800021b0:	fd db d2 e1 	bfins	lr,r11,0x17,0x1
  u_avr32_pm_cksel.CKSEL.pbbsel = pbbsel;
800021b4:	fd d8 d3 03 	bfins	lr,r8,0x18,0x3
  u_avr32_pm_cksel.CKSEL.pbbdiv = pbbdiv;
800021b8:	fd d9 d3 e1 	bfins	lr,r9,0x1f,0x1

  pm->cksel = u_avr32_pm_cksel.cksel;
800021bc:	99 1e       	st.w	r12[0x4],lr

  // Wait for ckrdy bit and then clear it
  while (!(pm->poscsr & AVR32_PM_POSCSR_CKRDY_MASK));
800021be:	79 58       	ld.w	r8,r12[0x54]
800021c0:	e2 18 00 20 	andl	r8,0x20,COH
800021c4:	cf d0       	breq	800021be <pm_cksel+0x3a>
}
800021c6:	e3 cd 80 d0 	ldm	sp++,r4,r6-r7,pc

800021ca <pm_pll_setup>:
                  unsigned int pll,
                  unsigned int mul,
                  unsigned int div,
                  unsigned int osc,
                  unsigned int lockcount)
{
800021ca:	eb cd 40 80 	pushm	r7,lr
800021ce:	40 27       	lddsp	r7,sp[0x8]
  u_avr32_pm_pll_t u_avr32_pm_pll = {0};
800021d0:	30 0e       	mov	lr,0

  u_avr32_pm_pll.PLL.pllosc   = osc;
800021d2:	fd d8 d0 21 	bfins	lr,r8,0x1,0x1
  u_avr32_pm_pll.PLL.plldiv   = div;
800021d6:	fd d9 d1 04 	bfins	lr,r9,0x8,0x4
  u_avr32_pm_pll.PLL.pllmul   = mul;
800021da:	fd da d2 04 	bfins	lr,r10,0x10,0x4
  u_avr32_pm_pll.PLL.pllcount = lockcount;
800021de:	fd d7 d3 06 	bfins	lr,r7,0x18,0x6

  pm->pll[pll] = u_avr32_pm_pll.pll;
800021e2:	2f 8b       	sub	r11,-8
800021e4:	f8 0b 09 2e 	st.w	r12[r11<<0x2],lr
}
800021e8:	e3 cd 80 80 	ldm	sp++,r7,pc

800021ec <pm_pll_set_option>:
void pm_pll_set_option(volatile avr32_pm_t *pm,
                       unsigned int pll,
                       unsigned int pll_freq,
                       unsigned int pll_div2,
                       unsigned int pll_wbwdisable)
{
800021ec:	d4 01       	pushm	lr
  u_avr32_pm_pll_t u_avr32_pm_pll = {pm->pll[pll]};
800021ee:	2f 8b       	sub	r11,-8
800021f0:	f8 0b 03 2e 	ld.w	lr,r12[r11<<0x2]
  u_avr32_pm_pll.PLL.pllopt = pll_freq | (pll_div2 << 1) | (pll_wbwdisable << 2);
800021f4:	f5 e9 10 19 	or	r9,r10,r9<<0x1
800021f8:	f3 e8 10 28 	or	r8,r9,r8<<0x2
800021fc:	fd d8 d0 43 	bfins	lr,r8,0x2,0x3
  pm->pll[pll] = u_avr32_pm_pll.pll;
80002200:	f8 0b 09 2e 	st.w	r12[r11<<0x2],lr
}
80002204:	d8 02       	popm	pc

80002206 <pm_pll_enable>:


void pm_pll_enable(volatile avr32_pm_t *pm,
                  unsigned int pll)
{
  pm->pll[pll] |= AVR32_PM_PLLEN_MASK;
80002206:	2f 8b       	sub	r11,-8
80002208:	f8 0b 03 28 	ld.w	r8,r12[r11<<0x2]
8000220c:	a1 a8       	sbr	r8,0x0
8000220e:	f8 0b 09 28 	st.w	r12[r11<<0x2],r8
}
80002212:	5e fc       	retal	r12

80002214 <pm_wait_for_pll0_locked>:
}


void pm_wait_for_pll0_locked(volatile avr32_pm_t *pm)
{
  while (!(pm->poscsr & AVR32_PM_POSCSR_LOCK0_MASK));
80002214:	79 58       	ld.w	r8,r12[0x54]
80002216:	f1 d8 c0 01 	bfextu	r8,r8,0x0,0x1
8000221a:	cf d0       	breq	80002214 <pm_wait_for_pll0_locked>
}
8000221c:	5e fc       	retal	r12

8000221e <pm_switch_to_clock>:


void pm_switch_to_clock(volatile avr32_pm_t *pm, unsigned long clock)
{
  // Read
  u_avr32_pm_mcctrl_t u_avr32_pm_mcctrl = {pm->mcctrl};
8000221e:	78 08       	ld.w	r8,r12[0x0]
  // Modify
  u_avr32_pm_mcctrl.MCCTRL.mcsel = clock;
80002220:	f1 db d0 02 	bfins	r8,r11,0x0,0x2
  // Write back
  pm->mcctrl = u_avr32_pm_mcctrl.mcctrl;
80002224:	99 08       	st.w	r12[0x0],r8
}
80002226:	5e fc       	retal	r12

80002228 <pm_switch_to_osc0>:


void pm_switch_to_osc0(volatile avr32_pm_t *pm, unsigned int fosc0, unsigned int startup)
{
80002228:	eb cd 40 c0 	pushm	r6-r7,lr
8000222c:	18 97       	mov	r7,r12
8000222e:	14 96       	mov	r6,r10
  pm_enable_osc0_crystal(pm, fosc0);            // Enable the Osc0 in crystal mode
80002230:	f0 1f 00 06 	mcall	80002248 <pm_switch_to_osc0+0x20>
  pm_enable_clk0(pm, startup);                  // Crystal startup time - This parameter is critical and depends on the characteristics of the crystal
80002234:	0c 9b       	mov	r11,r6
80002236:	0e 9c       	mov	r12,r7
80002238:	f0 1f 00 05 	mcall	8000224c <pm_switch_to_osc0+0x24>
  pm_switch_to_clock(pm, AVR32_PM_MCSEL_OSC0);  // Then switch main clock to Osc0
8000223c:	30 1b       	mov	r11,1
8000223e:	0e 9c       	mov	r12,r7
80002240:	f0 1f 00 04 	mcall	80002250 <pm_switch_to_osc0+0x28>
}
80002244:	e3 cd 80 c0 	ldm	sp++,r6-r7,pc
80002248:	80 00       	ld.sh	r0,r0[0x0]
8000224a:	21 10       	sub	r0,17
8000224c:	80 00       	ld.sh	r0,r0[0x0]
8000224e:	21 68       	sub	r8,22
80002250:	80 00       	ld.sh	r0,r0[0x0]
80002252:	22 1e       	sub	lr,33

80002254 <pwm_channel_init>:

int pwm_channel_init( unsigned int channel_id, const avr32_pwm_channel_t *pwm_channel)
{
  volatile avr32_pwm_t *pwm = &AVR32_PWM;

  if (pwm_channel == 0) // Null pointer.
80002254:	58 0b       	cp.w	r11,0
80002256:	c1 90       	breq	80002288 <pwm_channel_init+0x34>
    return PWM_INVALID_ARGUMENT;
  if (channel_id > AVR32_PWM_LINES_MSB) // Control input values.
80002258:	58 6c       	cp.w	r12,6
8000225a:	e0 8b 00 17 	brhi	80002288 <pwm_channel_init+0x34>
    return PWM_INVALID_INPUT;

  pwm->channel[channel_id].cmr= pwm_channel->cmr;   // Channel mode.
8000225e:	76 0a       	ld.w	r10,r11[0x0]
80002260:	fe 78 30 00 	mov	r8,-53248
80002264:	f8 c9 ff f0 	sub	r9,r12,-16
80002268:	a5 79       	lsl	r9,0x5
8000226a:	f0 09 00 09 	add	r9,r8,r9
8000226e:	93 0a       	st.w	r9[0x0],r10
  pwm->channel[channel_id].cdty= pwm_channel->cdty; // Duty cycle, should be < CPRD.
80002270:	76 19       	ld.w	r9,r11[0x4]
80002272:	a5 7c       	lsl	r12,0x5
80002274:	f0 0c 00 0c 	add	r12,r8,r12
80002278:	f8 c8 fd fc 	sub	r8,r12,-516
8000227c:	91 09       	st.w	r8[0x0],r9
  pwm->channel[channel_id].cprd= pwm_channel->cprd; // Channel period.
8000227e:	76 28       	ld.w	r8,r11[0x8]
80002280:	f8 cc fd f8 	sub	r12,r12,-520
80002284:	99 08       	st.w	r12[0x0],r8
80002286:	5e fd       	retal	0

  return PWM_SUCCESS;
80002288:	5e ff       	retal	1

8000228a <pwm_start_channels>:
}


int pwm_start_channels(unsigned long channels_bitmask)
{
  if (channels_bitmask & ~((1 << (AVR32_PWM_LINES_MSB + 1)) - 1))
8000228a:	18 98       	mov	r8,r12
8000228c:	e0 18 ff 80 	andl	r8,0xff80
80002290:	c0 20       	breq	80002294 <pwm_start_channels+0xa>
80002292:	5e ff       	retal	1
    return PWM_INVALID_INPUT;

  AVR32_PWM.ena = channels_bitmask; // Enable channels.
80002294:	fe 78 30 00 	mov	r8,-53248
80002298:	91 1c       	st.w	r8[0x4],r12
8000229a:	5e fd       	retal	0

8000229c <pwm_init>:


int pwm_init(const pwm_opt_t *opt)
{
  volatile avr32_pwm_t *pwm = &AVR32_PWM;
  bool global_interrupt_enabled = Is_global_interrupt_enabled();
8000229c:	e1 b8 00 00 	mfsr	r8,0x0

  if (opt == 0 ) // Null pointer.
800022a0:	58 0c       	cp.w	r12,0
800022a2:	c0 21       	brne	800022a6 <pwm_init+0xa>
800022a4:	5e ff       	retal	1
    return PWM_INVALID_INPUT;

  // Disable interrupt.
  if (global_interrupt_enabled) Disable_global_interrupt();
800022a6:	e6 18 00 01 	andh	r8,0x1,COH
800022aa:	c0 91       	brne	800022bc <pwm_init+0x20>
800022ac:	d3 03       	ssrf	0x10
  pwm->idr = ((1 << (AVR32_PWM_LINES_MSB + 1)) - 1) << AVR32_PWM_IDR_CHID0_OFFSET;
800022ae:	fe 78 30 00 	mov	r8,-53248
800022b2:	37 f9       	mov	r9,127
800022b4:	91 59       	st.w	r8[0x14],r9
  pwm->isr;
800022b6:	70 78       	ld.w	r8,r8[0x1c]
  if (global_interrupt_enabled) Enable_global_interrupt();
800022b8:	d5 03       	csrf	0x10
800022ba:	c0 68       	rjmp	800022c6 <pwm_init+0x2a>
  if (opt == 0 ) // Null pointer.
    return PWM_INVALID_INPUT;

  // Disable interrupt.
  if (global_interrupt_enabled) Disable_global_interrupt();
  pwm->idr = ((1 << (AVR32_PWM_LINES_MSB + 1)) - 1) << AVR32_PWM_IDR_CHID0_OFFSET;
800022bc:	fe 78 30 00 	mov	r8,-53248
800022c0:	37 f9       	mov	r9,127
800022c2:	91 59       	st.w	r8[0x14],r9
  pwm->isr;
800022c4:	70 78       	ld.w	r8,r8[0x1c]
  if (global_interrupt_enabled) Enable_global_interrupt();

  // Set PWM mode register.
  pwm->mr =
    ((opt->diva)<<AVR32_PWM_DIVA_OFFSET) |
800022c6:	78 08       	ld.w	r8,r12[0x0]
800022c8:	78 39       	ld.w	r9,r12[0xc]
800022ca:	a9 69       	lsl	r9,0x8
800022cc:	f3 e8 11 09 	or	r9,r9,r8<<0x10
800022d0:	78 18       	ld.w	r8,r12[0x4]
800022d2:	10 49       	or	r9,r8
800022d4:	78 28       	ld.w	r8,r12[0x8]
800022d6:	f3 e8 11 89 	or	r9,r9,r8<<0x18
  pwm->idr = ((1 << (AVR32_PWM_LINES_MSB + 1)) - 1) << AVR32_PWM_IDR_CHID0_OFFSET;
  pwm->isr;
  if (global_interrupt_enabled) Enable_global_interrupt();

  // Set PWM mode register.
  pwm->mr =
800022da:	fe 78 30 00 	mov	r8,-53248
800022de:	91 09       	st.w	r8[0x0],r9
800022e0:	5e fd       	retal	0

800022e2 <getBaudDiv>:
xSemaphoreHandle xSPIMutex;
#endif

int16_t getBaudDiv(const uint32_t baudrate, uint32_t pb_hz)
{
	uint32_t baudDiv = div_ceil(pb_hz, baudrate);
800022e2:	f8 c8 00 01 	sub	r8,r12,1
800022e6:	f0 0b 00 0b 	add	r11,r8,r11
800022ea:	f6 0c 0d 0a 	divu	r10,r11,r12
800022ee:	14 9c       	mov	r12,r10

	if (baudDiv <= 0 || baudDiv > 255) {
800022f0:	f4 c8 00 01 	sub	r8,r10,1
800022f4:	e0 48 00 fe 	cp.w	r8,254
800022f8:	e0 88 00 03 	brls	800022fe <getBaudDiv+0x1c>
800022fc:	5e fe       	retal	-1
		return -1;
	}

	return baudDiv;
800022fe:	5c 8c       	casts.h	r12
}
80002300:	5e fc       	retal	r12

80002302 <spi_initMaster>:
spi_status_t spi_initMaster(volatile avr32_spi_t *spi,
		const spi_options_t *options)
{
	u_avr32_spi_mr_t u_avr32_spi_mr;

	if (options->modfdis > 1) {
80002302:	f7 39 00 0d 	ld.ub	r9,r11[13]
80002306:	30 18       	mov	r8,1
80002308:	f0 09 18 00 	cp.b	r9,r8
8000230c:	e0 88 00 04 	brls	80002314 <spi_initMaster+0x12>
80002310:	30 2c       	mov	r12,2
80002312:	5e fc       	retal	r12
		return SPI_ERROR_ARGUMENT;
	}

	/* Reset. */
	spi->cr = AVR32_SPI_CR_SWRST_MASK;
80002314:	e0 68 00 80 	mov	r8,128
80002318:	99 08       	st.w	r12[0x0],r8

	/* Master Mode. */
	u_avr32_spi_mr.mr = spi->mr;
8000231a:	78 18       	ld.w	r8,r12[0x4]
	u_avr32_spi_mr.MR.mstr = 1;
8000231c:	30 19       	mov	r9,1
8000231e:	f1 d9 d0 01 	bfins	r8,r9,0x0,0x1
	u_avr32_spi_mr.MR.modfdis = options->modfdis;
80002322:	f7 39 00 0d 	ld.ub	r9,r11[13]
80002326:	f1 d9 d0 81 	bfins	r8,r9,0x4,0x1
	u_avr32_spi_mr.MR.llb = 0;
8000232a:	30 09       	mov	r9,0
8000232c:	f1 d9 d0 e1 	bfins	r8,r9,0x7,0x1
	u_avr32_spi_mr.MR.pcs = (1 << AVR32_SPI_MR_PCS_SIZE) - 1;
80002330:	30 fa       	mov	r10,15
80002332:	f1 da d2 04 	bfins	r8,r10,0x10,0x4
	spi->mr = u_avr32_spi_mr.mr;
80002336:	99 18       	st.w	r12[0x4],r8
80002338:	5e f9       	retal	r9

8000233a <spi_selectionMode>:

spi_status_t spi_selectionMode(volatile avr32_spi_t *spi,
		uint8_t variable_ps,
		uint8_t pcs_decode,
		uint8_t delay)
{
8000233a:	d4 01       	pushm	lr
	u_avr32_spi_mr_t u_avr32_spi_mr;

	if (variable_ps > 1 ||
8000233c:	30 18       	mov	r8,1
8000233e:	f0 0b 18 00 	cp.b	r11,r8
80002342:	5f be       	srhi	lr
80002344:	f0 0a 18 00 	cp.b	r10,r8
80002348:	5f b8       	srhi	r8
8000234a:	fd e8 10 08 	or	r8,lr,r8
8000234e:	c0 30       	breq	80002354 <spi_selectionMode+0x1a>
80002350:	30 2c       	mov	r12,2
80002352:	d8 02       	popm	pc
			pcs_decode > 1) {
		return SPI_ERROR_ARGUMENT;
	}

	u_avr32_spi_mr.mr = spi->mr;
80002354:	78 18       	ld.w	r8,r12[0x4]
	u_avr32_spi_mr.MR.ps = variable_ps;
80002356:	f1 db d0 21 	bfins	r8,r11,0x1,0x1
	u_avr32_spi_mr.MR.pcsdec = pcs_decode;
8000235a:	f1 da d0 41 	bfins	r8,r10,0x2,0x1
	u_avr32_spi_mr.MR.dlybcs = delay;
8000235e:	f1 d9 d3 08 	bfins	r8,r9,0x18,0x8
	spi->mr = u_avr32_spi_mr.mr;
80002362:	99 18       	st.w	r12[0x4],r8
80002364:	d8 0a       	popm	pc,r12=0

80002366 <spi_selectChip>:
	while (pdFALSE == xSemaphoreTake(xSPIMutex, 20)) {
	}
#endif

	/* Assert all lines; no peripheral is selected. */
	spi->mr |= AVR32_SPI_MR_PCS_MASK;
80002366:	78 18       	ld.w	r8,r12[0x4]
80002368:	ea 18 00 0f 	orh	r8,0xf
8000236c:	99 18       	st.w	r12[0x4],r8

	if (spi->mr & AVR32_SPI_MR_PCSDEC_MASK) {
8000236e:	78 18       	ld.w	r8,r12[0x4]
80002370:	e2 18 00 04 	andl	r8,0x4,COH
80002374:	c0 f0       	breq	80002392 <spi_selectChip+0x2c>
		/* The signal is decoded; allow up to 15 chips. */
		if (chip > 14) {
80002376:	30 e8       	mov	r8,14
80002378:	f0 0b 18 00 	cp.b	r11,r8
8000237c:	e0 8b 00 19 	brhi	800023ae <spi_selectChip+0x48>
			return SPI_ERROR_ARGUMENT;
		}

		spi->mr &= ~AVR32_SPI_MR_PCS_MASK |
80002380:	78 18       	ld.w	r8,r12[0x4]
80002382:	b1 6b       	lsl	r11,0x10
80002384:	ea 1b ff f0 	orh	r11,0xfff0
80002388:	e8 1b ff ff 	orl	r11,0xffff
8000238c:	10 6b       	and	r11,r8
8000238e:	99 1b       	st.w	r12[0x4],r11
80002390:	5e fd       	retal	0
				(chip << AVR32_SPI_MR_PCS_OFFSET);
	} else {
		if (chip > 3) {
80002392:	30 38       	mov	r8,3
80002394:	f0 0b 18 00 	cp.b	r11,r8
80002398:	e0 8b 00 0b 	brhi	800023ae <spi_selectChip+0x48>
			return SPI_ERROR_ARGUMENT;
		}

		spi->mr &= ~(1 << (AVR32_SPI_MR_PCS_OFFSET + chip));
8000239c:	78 18       	ld.w	r8,r12[0x4]
8000239e:	2f 0b       	sub	r11,-16
800023a0:	30 19       	mov	r9,1
800023a2:	f2 0b 09 4b 	lsl	r11,r9,r11
800023a6:	5c db       	com	r11
800023a8:	10 6b       	and	r11,r8
800023aa:	99 1b       	st.w	r12[0x4],r11
800023ac:	5e fd       	retal	0
800023ae:	30 2c       	mov	r12,2
	}

	return SPI_OK;
}
800023b0:	5e fc       	retal	r12

800023b2 <spi_unselectChip>:

spi_status_t spi_unselectChip(volatile avr32_spi_t *spi, uint8_t chip)
{
800023b2:	e0 68 3a 98 	mov	r8,15000
	uint32_t timeout = SPI_TIMEOUT;

	while (!(spi->sr & AVR32_SPI_SR_TXEMPTY_MASK)) {
800023b6:	c0 58       	rjmp	800023c0 <spi_unselectChip+0xe>
		if (!timeout--) {
800023b8:	58 08       	cp.w	r8,0
800023ba:	c0 21       	brne	800023be <spi_unselectChip+0xc>
800023bc:	5e ff       	retal	1
800023be:	20 18       	sub	r8,1

spi_status_t spi_unselectChip(volatile avr32_spi_t *spi, uint8_t chip)
{
	uint32_t timeout = SPI_TIMEOUT;

	while (!(spi->sr & AVR32_SPI_SR_TXEMPTY_MASK)) {
800023c0:	78 49       	ld.w	r9,r12[0x10]
800023c2:	e2 19 02 00 	andl	r9,0x200,COH
800023c6:	cf 90       	breq	800023b8 <spi_unselectChip+0x6>
			return SPI_ERROR_TIMEOUT;
		}
	}

	/* Assert all lines; no peripheral is selected. */
	spi->mr |= AVR32_SPI_MR_PCS_MASK;
800023c8:	78 18       	ld.w	r8,r12[0x4]
800023ca:	ea 18 00 0f 	orh	r8,0xf
800023ce:	99 18       	st.w	r12[0x4],r8

	/* Last transfer, so de-assert the current NPCS if CSAAT is set. */
	spi->cr = AVR32_SPI_CR_LASTXFER_MASK;
800023d0:	fc 18 01 00 	movh	r8,0x100
800023d4:	99 08       	st.w	r12[0x0],r8
800023d6:	5e fd       	retal	0

800023d8 <spi_setupChipReg>:
}

spi_status_t spi_setupChipReg(volatile avr32_spi_t *spi,
		const spi_options_t *options,
		uint32_t pb_hz)
{
800023d8:	eb cd 40 f8 	pushm	r3-r7,lr
800023dc:	18 95       	mov	r5,r12
800023de:	16 97       	mov	r7,r11
	u_avr32_spi_csr_t u_avr32_spi_csr;

	if (options->spi_mode > 3 ||
800023e0:	f7 36 00 0c 	ld.ub	r6,r11[12]
800023e4:	30 38       	mov	r8,3
800023e6:	f0 06 18 00 	cp.b	r6,r8
800023ea:	e0 8b 00 4d 	brhi	80002484 <spi_setupChipReg+0xac>
			options->stay_act > 1 ||
800023ee:	f7 34 00 0b 	ld.ub	r4,r11[11]
		const spi_options_t *options,
		uint32_t pb_hz)
{
	u_avr32_spi_csr_t u_avr32_spi_csr;

	if (options->spi_mode > 3 ||
800023f2:	30 18       	mov	r8,1
800023f4:	f0 04 18 00 	cp.b	r4,r8
800023f8:	e0 8b 00 46 	brhi	80002484 <spi_setupChipReg+0xac>
			options->stay_act > 1 ||
			options->bits < 8 || options->bits > 16) {
800023fc:	f7 33 00 08 	ld.ub	r3,r11[8]
		const spi_options_t *options,
		uint32_t pb_hz)
{
	u_avr32_spi_csr_t u_avr32_spi_csr;

	if (options->spi_mode > 3 ||
80002400:	30 78       	mov	r8,7
80002402:	f0 03 18 00 	cp.b	r3,r8
80002406:	e0 88 00 3f 	brls	80002484 <spi_setupChipReg+0xac>
8000240a:	31 08       	mov	r8,16
8000240c:	f0 03 18 00 	cp.b	r3,r8
80002410:	e0 8b 00 3a 	brhi	80002484 <spi_setupChipReg+0xac>
			options->stay_act > 1 ||
			options->bits < 8 || options->bits > 16) {
		return SPI_ERROR_ARGUMENT;
	}

	int baudDiv = getBaudDiv(options->baudrate, pb_hz);
80002414:	14 9b       	mov	r11,r10
80002416:	6e 1c       	ld.w	r12,r7[0x4]
80002418:	f0 1f 00 1d 	mcall	8000248c <spi_setupChipReg+0xb4>

	if (baudDiv < 0) {
8000241c:	c3 45       	brlt	80002484 <spi_setupChipReg+0xac>
		return SPI_ERROR_ARGUMENT;
	}

	/* Will use CSR0 offsets; these are the same for CSR0 to CSR3. */
	u_avr32_spi_csr.csr = 0;
8000241e:	30 08       	mov	r8,0
	u_avr32_spi_csr.CSR.cpol   = options->spi_mode >> 1;
80002420:	ec 09 16 01 	lsr	r9,r6,0x1
80002424:	f1 d9 d0 01 	bfins	r8,r9,0x0,0x1
	u_avr32_spi_csr.CSR.ncpha  = (options->spi_mode & 0x1) ^ 0x1;
80002428:	ec 16 00 01 	eorl	r6,0x1
8000242c:	f1 d6 d0 21 	bfins	r8,r6,0x1,0x1
	u_avr32_spi_csr.CSR.csaat  = options->stay_act;
80002430:	f1 d4 d0 61 	bfins	r8,r4,0x3,0x1
	u_avr32_spi_csr.CSR.bits   = options->bits - 8;
80002434:	20 83       	sub	r3,8
80002436:	f1 d3 d0 84 	bfins	r8,r3,0x4,0x4
	u_avr32_spi_csr.CSR.scbr   = baudDiv;
8000243a:	f1 dc d1 08 	bfins	r8,r12,0x8,0x8
	u_avr32_spi_csr.CSR.dlybs  = options->spck_delay;
8000243e:	ef 39 00 09 	ld.ub	r9,r7[9]
80002442:	f1 d9 d2 08 	bfins	r8,r9,0x10,0x8
	u_avr32_spi_csr.CSR.dlybct = options->trans_delay;
80002446:	ef 39 00 0a 	ld.ub	r9,r7[10]
8000244a:	f1 d9 d3 08 	bfins	r8,r9,0x18,0x8

	switch (options->reg) {
8000244e:	0f 89       	ld.ub	r9,r7[0x0]
80002450:	30 1a       	mov	r10,1
80002452:	f4 09 18 00 	cp.b	r9,r10
80002456:	c0 e0       	breq	80002472 <spi_setupChipReg+0x9a>
80002458:	c0 a3       	brcs	8000246c <spi_setupChipReg+0x94>
8000245a:	30 2a       	mov	r10,2
8000245c:	f4 09 18 00 	cp.b	r9,r10
80002460:	c0 c0       	breq	80002478 <spi_setupChipReg+0xa0>
80002462:	30 3a       	mov	r10,3
80002464:	f4 09 18 00 	cp.b	r9,r10
80002468:	c0 e1       	brne	80002484 <spi_setupChipReg+0xac>
8000246a:	c0 a8       	rjmp	8000247e <spi_setupChipReg+0xa6>
	case 0:
		spi->csr0 = u_avr32_spi_csr.csr;
8000246c:	8b c8       	st.w	r5[0x30],r8
8000246e:	e3 cf 80 f8 	ldm	sp++,r3-r7,pc,r12=0
		break;

	case 1:
		spi->csr1 = u_avr32_spi_csr.csr;
80002472:	8b d8       	st.w	r5[0x34],r8
80002474:	e3 cf 80 f8 	ldm	sp++,r3-r7,pc,r12=0
		break;

	case 2:
		spi->csr2 = u_avr32_spi_csr.csr;
80002478:	8b e8       	st.w	r5[0x38],r8
8000247a:	e3 cf 80 f8 	ldm	sp++,r3-r7,pc,r12=0
		break;

	case 3:
		spi->csr3 = u_avr32_spi_csr.csr;
8000247e:	8b f8       	st.w	r5[0x3c],r8
80002480:	e3 cf 80 f8 	ldm	sp++,r3-r7,pc,r12=0
		break;
80002484:	30 2c       	mov	r12,2
		}
	}
#endif

	return SPI_OK;
}
80002486:	e3 cd 80 f8 	ldm	sp++,r3-r7,pc
8000248a:	00 00       	add	r0,r0
8000248c:	80 00       	ld.sh	r0,r0[0x0]
8000248e:	22 e2       	sub	r2,46

80002490 <spi_enable>:

void spi_enable(volatile avr32_spi_t *spi)
{
	spi->cr = AVR32_SPI_CR_SPIEN_MASK;
80002490:	30 18       	mov	r8,1
80002492:	99 08       	st.w	r12[0x0],r8
}
80002494:	5e fc       	retal	r12

80002496 <spi_write>:
{
	return ((spi->sr & AVR32_SPI_SR_TDRE_MASK) != 0);
}

spi_status_t spi_write(volatile avr32_spi_t *spi, uint16_t data)
{
80002496:	e0 68 3a 98 	mov	r8,15000
	uint32_t timeout = SPI_TIMEOUT;

	while (!(spi->sr & AVR32_SPI_SR_TDRE_MASK)) {
8000249a:	c0 58       	rjmp	800024a4 <spi_write+0xe>
		if (!timeout--) {
8000249c:	58 08       	cp.w	r8,0
8000249e:	c0 21       	brne	800024a2 <spi_write+0xc>
800024a0:	5e ff       	retal	1
800024a2:	20 18       	sub	r8,1

spi_status_t spi_write(volatile avr32_spi_t *spi, uint16_t data)
{
	uint32_t timeout = SPI_TIMEOUT;

	while (!(spi->sr & AVR32_SPI_SR_TDRE_MASK)) {
800024a4:	78 49       	ld.w	r9,r12[0x10]
800024a6:	e2 19 00 02 	andl	r9,0x2,COH
800024aa:	cf 90       	breq	8000249c <spi_write+0x6>
		if (!timeout--) {
			return SPI_ERROR_TIMEOUT;
		}
	}

	spi->tdr = data << AVR32_SPI_TDR_TD_OFFSET;
800024ac:	5c 7b       	castu.h	r11
800024ae:	99 3b       	st.w	r12[0xc],r11
800024b0:	5e fd       	retal	0
800024b2:	d7 03       	nop

800024b4 <_stext>:

  .global _stext
  .type _stext, @function
_stext:
  // Set initial stack pointer.
  lda.w   sp, _estack
800024b4:	e0 7d 00 00 	mov	sp,65536

  // Set up EVBA so interrupts can be enabled.
  lda.w   r0, _evba
  mtsr    AVR32_EVBA, r0
800024b8:	fe c0 e2 b8 	sub	r0,pc,-7496

  // Enable the exception processing.
  csrf    AVR32_SR_EM_OFFSET
800024bc:	e3 b0 00 01 	mtsr	0x4,r0

  // Load initialized data having a global lifetime from the data LMA.
  lda.w   r0, _data
  lda.w   r1, _edata
800024c0:	d5 53       	csrf	0x15
  cp      r0, r1
800024c2:	30 40       	mov	r0,4
  brhs    idata_load_loop_end
800024c4:	e0 61 05 18 	mov	r1,1304
  lda.w   r2, _data_lma
idata_load_loop:
  ld.d    r4, r2++
800024c8:	02 30       	cp.w	r0,r1
  st.d    r0++, r4
800024ca:	c0 72       	brcc	800024d8 <idata_load_loop_end>
  cp      r0, r1
800024cc:	fe c2 ac 64 	sub	r2,pc,-21404

800024d0 <idata_load_loop>:
  brlo    idata_load_loop
idata_load_loop_end:

  // Clear uninitialized data having a global lifetime in the blank static storage section.
  lda.w   r0, __bss_start
800024d0:	a5 05       	ld.d	r4,r2++
  lda.w   r1, _end
800024d2:	a1 24       	st.d	r0++,r4
  cp      r0, r1
800024d4:	02 30       	cp.w	r0,r1
  brhs    udata_clear_loop_end
800024d6:	cf d3       	brcs	800024d0 <idata_load_loop>

800024d8 <idata_load_loop_end>:
  mov     r2, 0
800024d8:	e0 60 05 18 	mov	r0,1304
  mov     r3, 0
udata_clear_loop:
  st.d    r0++, r2
800024dc:	e0 61 06 30 	mov	r1,1584
  cp      r0, r1
  brlo    udata_clear_loop
800024e0:	02 30       	cp.w	r0,r1
  // Safety: Set the default "return" @ to the exit routine address.
  lda.w   lr, exit
#endif

  // Start the show.
  lda.w   pc, main
800024e2:	c0 62       	brcc	800024ee <udata_clear_loop_end>
800024e4:	30 02       	mov	r2,0
800024e6:	30 03       	mov	r3,0

800024e8 <udata_clear_loop>:
800024e8:	a1 22       	st.d	r0++,r2
800024ea:	02 30       	cp.w	r0,r1
800024ec:	cf e3       	brcs	800024e8 <udata_clear_loop>

800024ee <udata_clear_loop_end>:
800024ee:	fe cf ea e2 	sub	pc,pc,-5406
800024f2:	d7 03       	nop

800024f4 <gfx_Label>:
void gfx_FillScreen(Color color){


}

void gfx_Label(Vector2 position, char *content, uint8_t contentSize,TextSize textSize, Color color){
800024f4:	d4 31       	pushm	r0-r7,lr
800024f6:	20 cd       	sub	sp,48
800024f8:	fa c1 ff ac 	sub	r1,sp,-84
800024fc:	18 90       	mov	r0,r12
800024fe:	50 7b       	stdsp	sp[0x1c],r11
80002500:	50 0a       	stdsp	sp[0x0],r10
	if(*content == '\0' || contentSize == 0)
80002502:	19 89       	ld.ub	r9,r12[0x0]
80002504:	30 08       	mov	r8,0
80002506:	f0 09 18 00 	cp.b	r9,r8
8000250a:	5f 09       	sreq	r9
8000250c:	f0 0b 18 00 	cp.b	r11,r8
80002510:	5f 0a       	sreq	r10
80002512:	f3 ea 10 0a 	or	r10,r9,r10
80002516:	f0 0a 18 00 	cp.b	r10,r8
8000251a:	e0 81 00 a3 	brne	80002660 <gfx_Label+0x16c>
		return;
	Vector2 fontSize = {8,8};
	if(textSize == Medium){
8000251e:	40 0a       	lddsp	r10,sp[0x0]
80002520:	58 1a       	cp.w	r10,1
80002522:	f9 b8 00 14 	moveq	r8,20
80002526:	fb f8 0a 02 	st.weq	sp[0x8],r8
8000252a:	f9 b2 00 10 	moveq	r2,16
8000252e:	f9 b2 01 08 	movne	r2,8
80002532:	58 12       	cp.w	r2,1
80002534:	fb f2 1a 02 	st.wne	sp[0x8],r2
		fontSize.x = 20;
		fontSize.y = 16;
	}
		
	for(uint8_t n = 0; n < contentSize; n++, content++){
80002538:	40 78       	lddsp	r8,sp[0x1c]
8000253a:	58 08       	cp.w	r8,0
8000253c:	e0 80 00 92 	breq	80002660 <gfx_Label+0x16c>
		if(*content == '\0')
80002540:	58 09       	cp.w	r9,0
80002542:	e0 81 00 8f 	brne	80002660 <gfx_Label+0x16c>
80002546:	30 8a       	mov	r10,8
80002548:	50 5a       	stdsp	sp[0x14],r10
8000254a:	31 09       	mov	r9,16
8000254c:	50 39       	stdsp	sp[0xc],r9
8000254e:	30 08       	mov	r8,0
80002550:	50 68       	stdsp	sp[0x18],r8
80002552:	c0 f8       	rjmp	80002570 <gfx_Label+0x7c>
	if(textSize == Medium){
		fontSize.x = 20;
		fontSize.y = 16;
	}
		
	for(uint8_t n = 0; n < contentSize; n++, content++){
80002554:	2f f0       	sub	r0,-1
80002556:	40 38       	lddsp	r8,sp[0xc]
80002558:	2f 28       	sub	r8,-14
8000255a:	5c 88       	casts.h	r8
8000255c:	50 38       	stdsp	sp[0xc],r8
8000255e:	40 58       	lddsp	r8,sp[0x14]
80002560:	2f 68       	sub	r8,-10
80002562:	5c 88       	casts.h	r8
80002564:	50 58       	stdsp	sp[0x14],r8
		if(*content == '\0')
80002566:	01 89       	ld.ub	r9,r0[0x0]
80002568:	30 08       	mov	r8,0
8000256a:	f0 09 18 00 	cp.b	r9,r8
8000256e:	c7 90       	breq	80002660 <gfx_Label+0x16c>
			break;
		
		for(uint8_t x = 0; x < fontSize.x; x++){
80002570:	40 2a       	lddsp	r10,sp[0x8]
80002572:	58 0a       	cp.w	r10,0
80002574:	c6 d0       	breq	8000264e <gfx_Label+0x15a>
80002576:	30 03       	mov	r3,0
			uint16_t mask = 1;
			for(uint8_t y = 0; y < fontSize.y; y++){
80002578:	40 59       	lddsp	r9,sp[0x14]
8000257a:	5c 89       	casts.h	r9
8000257c:	50 49       	stdsp	sp[0x10],r9
8000257e:	c5 a8       	rjmp	80002632 <gfx_Label+0x13e>
						screen_SetPixel(vector2_Add(position,(Vector2){n * 14 + 16 - y, 12 - x}), color);
				}else{
					if(FONT8x8[*content - 31][x] & (1<<y))
						screen_SetPixel(vector2_Add(position,(Vector2){n * 10 + 8 - y, 8 - x}), color);
				}
				mask <<= 1;
80002580:	a1 74       	lsl	r4,0x1
80002582:	5c 84       	casts.h	r4
			break;
		
		for(uint8_t x = 0; x < fontSize.x; x++){
			uint16_t mask = 1;
			for(uint8_t y = 0; y < fontSize.y; y++){
				if(textSize == Medium){
80002584:	40 08       	lddsp	r8,sp[0x0]
80002586:	58 18       	cp.w	r8,1
80002588:	c2 61       	brne	800025d4 <gfx_Label+0xe0>
					if(FONT16x12[*content - 31][x] & mask)
8000258a:	01 88       	ld.ub	r8,r0[0x0]
8000258c:	f0 08 00 28 	add	r8,r8,r8<<0x2
80002590:	e6 08 00 28 	add	r8,r3,r8<<0x2
80002594:	f0 c8 02 6c 	sub	r8,r8,620
80002598:	4b 3a       	lddpc	r10,80002664 <gfx_Label+0x170>
8000259a:	f4 08 04 18 	ld.sh	r8,r10[r8<<0x1]
8000259e:	e9 e8 00 08 	and	r8,r4,r8
800025a2:	30 09       	mov	r9,0
800025a4:	f2 08 19 00 	cp.h	r8,r9
800025a8:	c3 60       	breq	80002614 <gfx_Label+0x120>
						screen_SetPixel(vector2_Add(position,(Vector2){n * 14 + 16 - y, 12 - x}), color);
800025aa:	fb 55 00 20 	st.h	sp[32],r5
800025ae:	1b f8       	ld.ub	r8,sp[0x7]
800025b0:	fb 68 00 22 	st.b	sp[34],r8
800025b4:	40 88       	lddsp	r8,sp[0x20]
800025b6:	1a d8       	st.w	--sp,r8
800025b8:	62 08       	ld.w	r8,r1[0x0]
800025ba:	1a d8       	st.w	--sp,r8
800025bc:	fa cc ff d4 	sub	r12,sp,-44
800025c0:	f0 1f 00 2a 	mcall	80002668 <gfx_Label+0x174>
800025c4:	62 18       	ld.w	r8,r1[0x4]
800025c6:	1a d8       	st.w	--sp,r8
800025c8:	40 c8       	lddsp	r8,sp[0x30]
800025ca:	1a d8       	st.w	--sp,r8
800025cc:	f0 1f 00 28 	mcall	8000266c <gfx_Label+0x178>
800025d0:	2f cd       	sub	sp,-16
800025d2:	c2 18       	rjmp	80002614 <gfx_Label+0x120>
				}else{
					if(FONT8x8[*content - 31][x] & (1<<y))
800025d4:	01 88       	ld.ub	r8,r0[0x0]
800025d6:	21 f8       	sub	r8,31
800025d8:	e6 08 00 38 	add	r8,r3,r8<<0x3
800025dc:	4a 5a       	lddpc	r10,80002670 <gfx_Label+0x17c>
800025de:	f4 08 07 08 	ld.ub	r8,r10[r8]
800025e2:	f0 07 08 48 	asr	r8,r8,r7
800025e6:	f1 d8 c0 01 	bfextu	r8,r8,0x0,0x1
800025ea:	c1 50       	breq	80002614 <gfx_Label+0x120>
						screen_SetPixel(vector2_Add(position,(Vector2){n * 10 + 8 - y, 8 - x}), color);
800025ec:	fb 56 00 28 	st.h	sp[40],r6
800025f0:	1b e9       	ld.ub	r9,sp[0x6]
800025f2:	fb 69 00 2a 	st.b	sp[42],r9
800025f6:	40 a8       	lddsp	r8,sp[0x28]
800025f8:	1a d8       	st.w	--sp,r8
800025fa:	62 08       	ld.w	r8,r1[0x0]
800025fc:	1a d8       	st.w	--sp,r8
800025fe:	fa cc ff cc 	sub	r12,sp,-52
80002602:	f0 1f 00 1a 	mcall	80002668 <gfx_Label+0x174>
80002606:	62 18       	ld.w	r8,r1[0x4]
80002608:	1a d8       	st.w	--sp,r8
8000260a:	40 e8       	lddsp	r8,sp[0x38]
8000260c:	1a d8       	st.w	--sp,r8
8000260e:	f0 1f 00 18 	mcall	8000266c <gfx_Label+0x178>
80002612:	2f cd       	sub	sp,-16
80002614:	2f f7       	sub	r7,-1
80002616:	20 15       	sub	r5,1
80002618:	5c 85       	casts.h	r5
8000261a:	20 16       	sub	r6,1
8000261c:	5c 86       	casts.h	r6
		if(*content == '\0')
			break;
		
		for(uint8_t x = 0; x < fontSize.x; x++){
			uint16_t mask = 1;
			for(uint8_t y = 0; y < fontSize.y; y++){
8000261e:	ee 02 18 00 	cp.b	r2,r7
80002622:	fe 9b ff af 	brhi	80002580 <gfx_Label+0x8c>
		
	for(uint8_t n = 0; n < contentSize; n++, content++){
		if(*content == '\0')
			break;
		
		for(uint8_t x = 0; x < fontSize.x; x++){
80002626:	2f f3       	sub	r3,-1
80002628:	5c 53       	castu.b	r3
8000262a:	40 2a       	lddsp	r10,sp[0x8]
8000262c:	f4 03 19 00 	cp.h	r3,r10
80002630:	c0 f2       	brcc	8000264e <gfx_Label+0x15a>
			uint16_t mask = 1;
			for(uint8_t y = 0; y < fontSize.y; y++){
80002632:	58 02       	cp.w	r2,0
80002634:	cf 90       	breq	80002626 <gfx_Label+0x132>
80002636:	40 46       	lddsp	r6,sp[0x10]
80002638:	40 35       	lddsp	r5,sp[0xc]
8000263a:	5c 85       	casts.h	r5
8000263c:	30 07       	mov	r7,0
8000263e:	30 14       	mov	r4,1
				if(textSize == Medium){
					if(FONT16x12[*content - 31][x] & mask)
						screen_SetPixel(vector2_Add(position,(Vector2){n * 14 + 16 - y, 12 - x}), color);
				}else{
					if(FONT8x8[*content - 31][x] & (1<<y))
						screen_SetPixel(vector2_Add(position,(Vector2){n * 10 + 8 - y, 8 - x}), color);
80002640:	e6 09 11 08 	rsub	r9,r3,8
80002644:	ba e9       	st.b	sp[0x6],r9
		for(uint8_t x = 0; x < fontSize.x; x++){
			uint16_t mask = 1;
			for(uint8_t y = 0; y < fontSize.y; y++){
				if(textSize == Medium){
					if(FONT16x12[*content - 31][x] & mask)
						screen_SetPixel(vector2_Add(position,(Vector2){n * 14 + 16 - y, 12 - x}), color);
80002646:	e6 08 11 0c 	rsub	r8,r3,12
8000264a:	ba f8       	st.b	sp[0x7],r8
8000264c:	c9 cb       	rjmp	80002584 <gfx_Label+0x90>
	if(textSize == Medium){
		fontSize.x = 20;
		fontSize.y = 16;
	}
		
	for(uint8_t n = 0; n < contentSize; n++, content++){
8000264e:	40 68       	lddsp	r8,sp[0x18]
80002650:	2f f8       	sub	r8,-1
80002652:	5c 58       	castu.b	r8
80002654:	50 68       	stdsp	sp[0x18],r8
80002656:	40 7a       	lddsp	r10,sp[0x1c]
80002658:	f0 0a 18 00 	cp.b	r10,r8
8000265c:	fe 9b ff 7c 	brhi	80002554 <gfx_Label+0x60>
				}
				mask <<= 1;
			}
		}
	}
80002660:	2f 4d       	sub	sp,-48
80002662:	d8 32       	popm	r0-r7,pc
80002664:	80 00       	ld.sh	r0,r0[0x0]
80002666:	47 a8       	lddsp	r8,sp[0x1e8]
80002668:	80 00       	ld.sh	r0,r0[0x0]
8000266a:	38 5c       	mov	r12,-123
8000266c:	80 00       	ld.sh	r0,r0[0x0]
8000266e:	34 44       	mov	r4,68
80002670:	80 00       	ld.sh	r0,r0[0x0]
80002672:	44 a0       	lddsp	r0,sp[0x128]

80002674 <gfx_DrawLine>:
 */ 

#include "gfx.h"
#include "fonts.h"

void gfx_DrawLine(Vector2 start, Vector2 end, Color color, uint8_t width){
80002674:	d4 31       	pushm	r0-r7,lr
80002676:	20 bd       	sub	sp,44
80002678:	fa c4 ff b0 	sub	r4,sp,-80
8000267c:	50 0c       	stdsp	sp[0x0],r12
8000267e:	88 05       	ld.sh	r5,r4[0x0]
80002680:	09 a8       	ld.ub	r8,r4[0x2]
80002682:	09 e9       	ld.ub	r9,r4[0x6]
		}
	}*/
	// Compute deltas, ie. "width" and "height" of line, then
	// compute x and y direction, and make deltas positive for later use.
	S16 xinc = 1; // Start off assuming direction is positive, ie. right.
	S16 dx = end.x - start.x;
80002684:	88 20       	ld.sh	r0,r4[0x4]
80002686:	0a 10       	sub	r0,r5
80002688:	5c 80       	casts.h	r0
	if (dx < 0){xinc = -1; dx = -dx; }
8000268a:	30 0a       	mov	r10,0
8000268c:	f4 00 19 00 	cp.h	r0,r10
80002690:	c0 45       	brlt	80002698 <gfx_DrawLine+0x24>
80002692:	30 1a       	mov	r10,1
80002694:	50 5a       	stdsp	sp[0x14],r10
80002696:	c0 58       	rjmp	800026a0 <gfx_DrawLine+0x2c>
80002698:	5c 30       	neg	r0
8000269a:	5c 80       	casts.h	r0
8000269c:	3f fa       	mov	r10,-1
8000269e:	50 5a       	stdsp	sp[0x14],r10

	S16 yinc = 1; // Start off assuming direction is positive, ie. down.
	S16 dy = end.y - start.y;
800026a0:	10 96       	mov	r6,r8
800026a2:	f2 08 01 08 	sub	r8,r9,r8
800026a6:	50 38       	stdsp	sp[0xc],r8
	if (dy < 0){yinc = -1; dy = -dy; }
800026a8:	30 08       	mov	r8,0
800026aa:	40 39       	lddsp	r9,sp[0xc]
800026ac:	f0 09 19 00 	cp.h	r9,r8
800026b0:	c0 45       	brlt	800026b8 <gfx_DrawLine+0x44>
800026b2:	30 18       	mov	r8,1
800026b4:	50 48       	stdsp	sp[0x10],r8
800026b6:	c0 78       	rjmp	800026c4 <gfx_DrawLine+0x50>
800026b8:	40 38       	lddsp	r8,sp[0xc]
800026ba:	5c 38       	neg	r8
800026bc:	5c 88       	casts.h	r8
800026be:	50 38       	stdsp	sp[0xc],r8
800026c0:	3f fa       	mov	r10,-1
800026c2:	50 4a       	stdsp	sp[0x10],r10
	uint16_t x = start.x;
	uint16_t y = start.y;
	uint16_t i, j, k;

	// A "flat" line (dx>dy) is handled differently from a "steep" line (dx<dy).
	if (dx > dy) {
800026c4:	40 39       	lddsp	r9,sp[0xc]
800026c6:	f2 00 19 00 	cp.h	r0,r9
800026ca:	e0 8a 00 53 	brle	80002770 <gfx_DrawLine+0xfc>
		// Walk along X, draw pixel, and step Y when required.
		S16 e = dx >> 1;
		for ( i = 0; i <= dx; ++i) {
800026ce:	50 10       	stdsp	sp[0x4],r0
800026d0:	58 00       	cp.w	r0,0
800026d2:	e0 85 00 9b 	brlt	80002808 <gfx_DrawLine+0x194>
	uint16_t i, j, k;

	// A "flat" line (dx>dy) is handled differently from a "steep" line (dx<dy).
	if (dx > dy) {
		// Walk along X, draw pixel, and step Y when required.
		S16 e = dx >> 1;
800026d6:	e0 02 14 01 	asr	r2,r0,0x1
800026da:	5c 85       	casts.h	r5
800026dc:	30 01       	mov	r1,0
		for ( i = 0; i <= dx; ++i) {
			for (j=width ; j>0 ; j--)
800026de:	40 08       	lddsp	r8,sp[0x0]
800026e0:	50 28       	stdsp	sp[0x8],r8
				k = (U16) (j / 2);
				if ((j & 0x0001)) { screen_SetPixel((Vector2){x,y+k},color); }
				else { screen_SetPixel((Vector2){x,y-k},color); }
			}
			// Sub-pixel "error" overflowed, so we step Y and reset the "error".
			if (e <= 0){
800026e2:	0c 93       	mov	r3,r6
800026e4:	50 60       	stdsp	sp[0x18],r0
800026e6:	40 50       	lddsp	r0,sp[0x14]
	// A "flat" line (dx>dy) is handled differently from a "steep" line (dx<dy).
	if (dx > dy) {
		// Walk along X, draw pixel, and step Y when required.
		S16 e = dx >> 1;
		for ( i = 0; i <= dx; ++i) {
			for (j=width ; j>0 ; j--)
800026e8:	40 27       	lddsp	r7,sp[0x8]
800026ea:	40 0a       	lddsp	r10,sp[0x0]
800026ec:	58 0a       	cp.w	r10,0
800026ee:	c2 70       	breq	8000273c <gfx_DrawLine+0xc8>
			{
				k = (U16) (j / 2);
				if ((j & 0x0001)) { screen_SetPixel((Vector2){x,y+k},color); }
800026f0:	06 96       	mov	r6,r3
		// Walk along X, draw pixel, and step Y when required.
		S16 e = dx >> 1;
		for ( i = 0; i <= dx; ++i) {
			for (j=width ; j>0 ; j--)
			{
				k = (U16) (j / 2);
800026f2:	0e 98       	mov	r8,r7
800026f4:	5c 78       	castu.h	r8
800026f6:	f0 09 16 01 	lsr	r9,r8,0x1
				if ((j & 0x0001)) { screen_SetPixel((Vector2){x,y+k},color); }
800026fa:	f1 d8 c0 01 	bfextu	r8,r8,0x0,0x1
800026fe:	c0 f0       	breq	8000271c <gfx_DrawLine+0xa8>
80002700:	fb 55 00 1c 	st.h	sp[28],r5
80002704:	ec 09 00 09 	add	r9,r6,r9
80002708:	fb 69 00 1e 	st.b	sp[30],r9
8000270c:	68 28       	ld.w	r8,r4[0x8]
8000270e:	1a d8       	st.w	--sp,r8
80002710:	40 88       	lddsp	r8,sp[0x20]
80002712:	1a d8       	st.w	--sp,r8
80002714:	f0 1f 00 3e 	mcall	8000280c <gfx_DrawLine+0x198>
80002718:	2f ed       	sub	sp,-8
8000271a:	c0 e8       	rjmp	80002736 <gfx_DrawLine+0xc2>
				else { screen_SetPixel((Vector2){x,y-k},color); }
8000271c:	fb 55 00 20 	st.h	sp[32],r5
80002720:	ec 09 01 09 	sub	r9,r6,r9
80002724:	fb 69 00 22 	st.b	sp[34],r9
80002728:	68 28       	ld.w	r8,r4[0x8]
8000272a:	1a d8       	st.w	--sp,r8
8000272c:	40 98       	lddsp	r8,sp[0x24]
8000272e:	1a d8       	st.w	--sp,r8
80002730:	f0 1f 00 37 	mcall	8000280c <gfx_DrawLine+0x198>
80002734:	2f ed       	sub	sp,-8
	// A "flat" line (dx>dy) is handled differently from a "steep" line (dx<dy).
	if (dx > dy) {
		// Walk along X, draw pixel, and step Y when required.
		S16 e = dx >> 1;
		for ( i = 0; i <= dx; ++i) {
			for (j=width ; j>0 ; j--)
80002736:	20 17       	sub	r7,1
80002738:	5c 87       	casts.h	r7
8000273a:	cd c1       	brne	800026f2 <gfx_DrawLine+0x7e>
				k = (U16) (j / 2);
				if ((j & 0x0001)) { screen_SetPixel((Vector2){x,y+k},color); }
				else { screen_SetPixel((Vector2){x,y-k},color); }
			}
			// Sub-pixel "error" overflowed, so we step Y and reset the "error".
			if (e <= 0){
8000273c:	30 09       	mov	r9,0
8000273e:	f2 02 19 00 	cp.h	r2,r9
80002742:	e0 89 00 08 	brgt	80002752 <gfx_DrawLine+0xde>
				e += dx;
80002746:	40 68       	lddsp	r8,sp[0x18]
80002748:	10 02       	add	r2,r8
8000274a:	5c 82       	casts.h	r2
				y += yinc;
8000274c:	40 4a       	lddsp	r10,sp[0x10]
8000274e:	14 03       	add	r3,r10
80002750:	5c 83       	casts.h	r3

	// A "flat" line (dx>dy) is handled differently from a "steep" line (dx<dy).
	if (dx > dy) {
		// Walk along X, draw pixel, and step Y when required.
		S16 e = dx >> 1;
		for ( i = 0; i <= dx; ++i) {
80002752:	2f f1       	sub	r1,-1
80002754:	5c 81       	casts.h	r1
80002756:	f1 d1 c0 10 	bfextu	r8,r1,0x0,0x10
8000275a:	40 19       	lddsp	r9,sp[0x4]
8000275c:	12 38       	cp.w	r8,r9
8000275e:	e0 89 00 55 	brgt	80002808 <gfx_DrawLine+0x194>
			if (e <= 0){
				e += dx;
				y += yinc;
			}
			// Walk one step along X.
			e -= dy;
80002762:	40 38       	lddsp	r8,sp[0xc]
80002764:	10 12       	sub	r2,r8
80002766:	5c 82       	casts.h	r2
80002768:	e0 05 00 05 	add	r5,r0,r5
8000276c:	5c 85       	casts.h	r5
8000276e:	cb db       	rjmp	800026e8 <gfx_DrawLine+0x74>
			x += xinc;
		}
		} else {
		// Walk along Y, draw pixel, and step X when required.
		S16 e = dy >> 1;
		for (i = 0; i <= dy; ++i) {
80002770:	40 3a       	lddsp	r10,sp[0xc]
80002772:	50 1a       	stdsp	sp[0x4],r10
80002774:	58 0a       	cp.w	r10,0
80002776:	c4 95       	brlt	80002808 <gfx_DrawLine+0x194>
			e -= dy;
			x += xinc;
		}
		} else {
		// Walk along Y, draw pixel, and step X when required.
		S16 e = dy >> 1;
80002778:	14 93       	mov	r3,r10
8000277a:	a1 53       	asr	r3,0x1
8000277c:	5c 85       	casts.h	r5
8000277e:	30 02       	mov	r2,0
		for (i = 0; i <= dy; ++i) {
			for (j=width ; j>0 ; j--)
80002780:	40 09       	lddsp	r9,sp[0x0]
80002782:	50 29       	stdsp	sp[0x8],r9
				k = (U16) (j / 2);
				if ((j & 0x0001)){ screen_SetPixel((Vector2){x+k,y},color); }
				else { screen_SetPixel((Vector2){x-k,y},color); }
			}
			// Sub-pixel "error" overflowed, so we step X and reset the "error".
			if (e <= 0){
80002784:	30 01       	mov	r1,0
		}
		} else {
		// Walk along Y, draw pixel, and step X when required.
		S16 e = dy >> 1;
		for (i = 0; i <= dy; ++i) {
			for (j=width ; j>0 ; j--)
80002786:	40 27       	lddsp	r7,sp[0x8]
80002788:	40 08       	lddsp	r8,sp[0x0]
8000278a:	58 08       	cp.w	r8,0
8000278c:	c2 50       	breq	800027d6 <gfx_DrawLine+0x162>
			{
				k = (U16) (j / 2);
8000278e:	0e 98       	mov	r8,r7
80002790:	5c 78       	castu.h	r8
80002792:	f0 09 16 01 	lsr	r9,r8,0x1
				if ((j & 0x0001)){ screen_SetPixel((Vector2){x+k,y},color); }
80002796:	f1 d8 c0 01 	bfextu	r8,r8,0x0,0x1
8000279a:	c0 e0       	breq	800027b6 <gfx_DrawLine+0x142>
8000279c:	0a 09       	add	r9,r5
8000279e:	fb 59 00 24 	st.h	sp[36],r9
800027a2:	fb 66 00 26 	st.b	sp[38],r6
800027a6:	68 28       	ld.w	r8,r4[0x8]
800027a8:	1a d8       	st.w	--sp,r8
800027aa:	40 a8       	lddsp	r8,sp[0x28]
800027ac:	1a d8       	st.w	--sp,r8
800027ae:	f0 1f 00 18 	mcall	8000280c <gfx_DrawLine+0x198>
800027b2:	2f ed       	sub	sp,-8
800027b4:	c0 e8       	rjmp	800027d0 <gfx_DrawLine+0x15c>
				else { screen_SetPixel((Vector2){x-k,y},color); }
800027b6:	ea 09 01 09 	sub	r9,r5,r9
800027ba:	fb 59 00 28 	st.h	sp[40],r9
800027be:	fb 66 00 2a 	st.b	sp[42],r6
800027c2:	68 28       	ld.w	r8,r4[0x8]
800027c4:	1a d8       	st.w	--sp,r8
800027c6:	40 b8       	lddsp	r8,sp[0x2c]
800027c8:	1a d8       	st.w	--sp,r8
800027ca:	f0 1f 00 11 	mcall	8000280c <gfx_DrawLine+0x198>
800027ce:	2f ed       	sub	sp,-8
		}
		} else {
		// Walk along Y, draw pixel, and step X when required.
		S16 e = dy >> 1;
		for (i = 0; i <= dy; ++i) {
			for (j=width ; j>0 ; j--)
800027d0:	20 17       	sub	r7,1
800027d2:	5c 87       	casts.h	r7
800027d4:	cd d1       	brne	8000278e <gfx_DrawLine+0x11a>
				k = (U16) (j / 2);
				if ((j & 0x0001)){ screen_SetPixel((Vector2){x+k,y},color); }
				else { screen_SetPixel((Vector2){x-k,y},color); }
			}
			// Sub-pixel "error" overflowed, so we step X and reset the "error".
			if (e <= 0){
800027d6:	e2 03 19 00 	cp.h	r3,r1
800027da:	e0 89 00 08 	brgt	800027ea <gfx_DrawLine+0x176>
				e += dy;
800027de:	40 3a       	lddsp	r10,sp[0xc]
800027e0:	14 03       	add	r3,r10
800027e2:	5c 83       	casts.h	r3
				x += xinc;
800027e4:	40 59       	lddsp	r9,sp[0x14]
800027e6:	12 05       	add	r5,r9
800027e8:	5c 85       	casts.h	r5
			x += xinc;
		}
		} else {
		// Walk along Y, draw pixel, and step X when required.
		S16 e = dy >> 1;
		for (i = 0; i <= dy; ++i) {
800027ea:	2f f2       	sub	r2,-1
800027ec:	5c 82       	casts.h	r2
800027ee:	f1 d2 c0 10 	bfextu	r8,r2,0x0,0x10
800027f2:	40 1a       	lddsp	r10,sp[0x4]
800027f4:	14 38       	cp.w	r8,r10
800027f6:	e0 89 00 09 	brgt	80002808 <gfx_DrawLine+0x194>
			if (e <= 0){
				e += dy;
				x += xinc;
			}
			// Walk one step along Y.
			e -= dx;
800027fa:	00 13       	sub	r3,r0
800027fc:	5c 83       	casts.h	r3
800027fe:	40 49       	lddsp	r9,sp[0x10]
80002800:	f2 06 00 06 	add	r6,r9,r6
80002804:	5c 86       	casts.h	r6
80002806:	cc 0b       	rjmp	80002786 <gfx_DrawLine+0x112>
			y += yinc;
		}
	}
}
80002808:	2f 5d       	sub	sp,-44
8000280a:	d8 32       	popm	r0-r7,pc
8000280c:	80 00       	ld.sh	r0,r0[0x0]
8000280e:	34 44       	mov	r4,68

80002810 <gfx_DrawCircle>:

void gfx_DrawPixel(Vector2 position, Color color){
	screen_SetPixel(position,color);
}

void gfx_DrawCircle(Vector2 center, uint16_t radius, uint8_t width, Color color){
80002810:	d4 31       	pushm	r0-r7,lr
80002812:	fa cd 00 80 	sub	sp,sp,128
80002816:	fa c4 ff 5c 	sub	r4,sp,-164
8000281a:	50 7c       	stdsp	sp[0x1c],r12
8000281c:	50 3b       	stdsp	sp[0xc],r11
8000281e:	88 0a       	ld.sh	r10,r4[0x0]
80002820:	50 4a       	stdsp	sp[0x10],r10
80002822:	09 a5       	ld.ub	r5,r4[0x2]
	int16_t x, y, e;
	x = 0;
	y = radius;
80002824:	18 97       	mov	r7,r12
80002826:	5c 87       	casts.h	r7
	e = 1 - radius;
80002828:	f8 00 11 01 	rsub	r0,r12,1
8000282c:	5c 80       	casts.h	r0
8000282e:	14 91       	mov	r1,r10
80002830:	5c 81       	casts.h	r1
80002832:	50 21       	stdsp	sp[0x8],r1
80002834:	30 06       	mov	r6,0
	
	do
	{
		if(width == radius)
80002836:	50 6b       	stdsp	sp[0x18],r11
80002838:	40 38       	lddsp	r8,sp[0xc]
8000283a:	40 7a       	lddsp	r10,sp[0x1c]
8000283c:	f4 08 19 00 	cp.h	r8,r10
80002840:	c5 d1       	brne	800028fa <gfx_DrawCircle+0xea>
		{
			screen_SetPixels(Rect(center.x -x, center.y +y, center.x+x, center.y +y),color);
80002842:	40 22       	lddsp	r2,sp[0x8]
80002844:	5c 72       	castu.h	r2
80002846:	0e 93       	mov	r3,r7
80002848:	e6 05 00 0a 	add	r10,r3,r5
8000284c:	5c 5a       	castu.b	r10
8000284e:	f3 d1 c0 10 	bfextu	r9,r1,0x0,0x10
80002852:	50 09       	stdsp	sp[0x0],r9
80002854:	14 98       	mov	r8,r10
80002856:	04 99       	mov	r9,r2
80002858:	40 0b       	lddsp	r11,sp[0x0]
8000285a:	fa cc ff e0 	sub	r12,sp,-32
8000285e:	f0 1f 00 93 	mcall	80002aa8 <gfx_DrawCircle+0x298>
80002862:	68 18       	ld.w	r8,r4[0x4]
80002864:	1a d8       	st.w	--sp,r8
80002866:	fa e8 00 24 	ld.d	r8,sp[36]
8000286a:	bb 29       	st.d	--sp,r8
8000286c:	f0 1f 00 90 	mcall	80002aac <gfx_DrawCircle+0x29c>
			screen_SetPixels(Rect(center.x -x, center.y -y, center.x+x, center.y -y),color);
80002870:	ea 03 01 03 	sub	r3,r5,r3
80002874:	f5 d3 c0 08 	bfextu	r10,r3,0x0,0x8
80002878:	14 98       	mov	r8,r10
8000287a:	04 99       	mov	r9,r2
8000287c:	40 3b       	lddsp	r11,sp[0xc]
8000287e:	fa cc ff cc 	sub	r12,sp,-52
80002882:	f0 1f 00 8a 	mcall	80002aa8 <gfx_DrawCircle+0x298>
80002886:	68 18       	ld.w	r8,r4[0x4]
80002888:	1a d8       	st.w	--sp,r8
8000288a:	fa e8 00 38 	ld.d	r8,sp[56]
8000288e:	bb 29       	st.d	--sp,r8
80002890:	f0 1f 00 87 	mcall	80002aac <gfx_DrawCircle+0x29c>
			screen_SetPixels(Rect(center.x -y, center.y +x, center.x+y, center.y +x),color);
80002894:	0e 92       	mov	r2,r7
80002896:	fb 08 00 2a 	ld.sh	r8,sp[42]
8000289a:	10 02       	add	r2,r8
8000289c:	5c 72       	castu.h	r2

void gfx_DrawPixel(Vector2 position, Color color){
	screen_SetPixel(position,color);
}

void gfx_DrawCircle(Vector2 center, uint16_t radius, uint8_t width, Color color){
8000289e:	e7 d6 c0 08 	bfextu	r3,r6,0x0,0x8
	{
		if(width == radius)
		{
			screen_SetPixels(Rect(center.x -x, center.y +y, center.x+x, center.y +y),color);
			screen_SetPixels(Rect(center.x -x, center.y -y, center.x+x, center.y -y),color);
			screen_SetPixels(Rect(center.x -y, center.y +x, center.x+y, center.y +x),color);
800028a2:	e6 05 00 0a 	add	r10,r3,r5
800028a6:	5c 5a       	castu.b	r10
800028a8:	fb 08 00 2a 	ld.sh	r8,sp[42]
800028ac:	0e 99       	mov	r9,r7
800028ae:	12 18       	sub	r8,r9
800028b0:	5c 78       	castu.h	r8
800028b2:	50 68       	stdsp	sp[0x18],r8
800028b4:	14 98       	mov	r8,r10
800028b6:	04 99       	mov	r9,r2
800028b8:	40 6b       	lddsp	r11,sp[0x18]
800028ba:	fa cc ff b8 	sub	r12,sp,-72
800028be:	f0 1f 00 7b 	mcall	80002aa8 <gfx_DrawCircle+0x298>
800028c2:	68 18       	ld.w	r8,r4[0x4]
800028c4:	1a d8       	st.w	--sp,r8
800028c6:	fa e8 00 4c 	ld.d	r8,sp[76]
800028ca:	bb 29       	st.d	--sp,r8
800028cc:	f0 1f 00 78 	mcall	80002aac <gfx_DrawCircle+0x29c>
			screen_SetPixels(Rect(center.x -y, center.y -x, center.x+y, center.y -x),color);
800028d0:	ea 03 01 03 	sub	r3,r5,r3
800028d4:	f5 d3 c0 08 	bfextu	r10,r3,0x0,0x8
800028d8:	2f 7d       	sub	sp,-36
800028da:	14 98       	mov	r8,r10
800028dc:	04 99       	mov	r9,r2
800028de:	40 0b       	lddsp	r11,sp[0x0]
800028e0:	fa cc ff c8 	sub	r12,sp,-56
800028e4:	f0 1f 00 71 	mcall	80002aa8 <gfx_DrawCircle+0x298>
800028e8:	68 18       	ld.w	r8,r4[0x4]
800028ea:	1a d8       	st.w	--sp,r8
800028ec:	fa e8 00 3c 	ld.d	r8,sp[60]
800028f0:	bb 29       	st.d	--sp,r8
800028f2:	f0 1f 00 6f 	mcall	80002aac <gfx_DrawCircle+0x29c>
800028f6:	2f dd       	sub	sp,-12
800028f8:	cb 78       	rjmp	80002a66 <gfx_DrawCircle+0x256>
			Screen_SetPixel(Vector2_Add((Vector2){ y, x },center),color);
			Screen_SetPixel(Vector2_Add((Vector2){-y, x },center),color);
			Screen_SetPixel(Vector2_Add((Vector2){ y, -x},center),color);
			Screen_SetPixel(Vector2_Add((Vector2){-y, -x},center),color);*/
				
			screen_SetPixels(Rect(center.x + x, center.y + y - width, center.x + x, center.y + y),color);
800028fa:	0e 98       	mov	r8,r7
800028fc:	5c 58       	castu.b	r8
800028fe:	50 08       	stdsp	sp[0x0],r8
80002900:	10 92       	mov	r2,r8
80002902:	0a 02       	add	r2,r5
80002904:	5c 52       	castu.b	r2
80002906:	40 3a       	lddsp	r10,sp[0xc]
80002908:	e4 0a 01 08 	sub	r8,r2,r10
8000290c:	5c 58       	castu.b	r8
8000290e:	50 58       	stdsp	sp[0x14],r8
80002910:	40 23       	lddsp	r3,sp[0x8]
80002912:	5c 73       	castu.h	r3
80002914:	04 98       	mov	r8,r2
80002916:	06 99       	mov	r9,r3
80002918:	40 5a       	lddsp	r10,sp[0x14]
8000291a:	06 9b       	mov	r11,r3
8000291c:	fa cc ff c0 	sub	r12,sp,-64
80002920:	f0 1f 00 62 	mcall	80002aa8 <gfx_DrawCircle+0x298>
80002924:	68 18       	ld.w	r8,r4[0x4]
80002926:	1a d8       	st.w	--sp,r8
80002928:	fa e8 00 44 	ld.d	r8,sp[68]
8000292c:	bb 29       	st.d	--sp,r8
8000292e:	f0 1f 00 60 	mcall	80002aac <gfx_DrawCircle+0x29c>
			screen_SetPixels(Rect(center.x + x, center.y - y, center.x + x, center.y - y + width),color);
80002932:	fb 39 00 0f 	ld.ub	r9,sp[15]
80002936:	ea 09 01 08 	sub	r8,r5,r9
8000293a:	5c 58       	castu.b	r8
8000293c:	50 38       	stdsp	sp[0xc],r8
8000293e:	fb 38 00 0f 	ld.ub	r8,sp[15]
80002942:	fb 3a 00 1b 	ld.ub	r10,sp[27]
80002946:	14 08       	add	r8,r10
80002948:	5c 58       	castu.b	r8
8000294a:	50 48       	stdsp	sp[0x10],r8
8000294c:	06 99       	mov	r9,r3
8000294e:	40 3a       	lddsp	r10,sp[0xc]
80002950:	06 9b       	mov	r11,r3
80002952:	fa cc ff ac 	sub	r12,sp,-84
80002956:	f0 1f 00 55 	mcall	80002aa8 <gfx_DrawCircle+0x298>
8000295a:	68 18       	ld.w	r8,r4[0x4]
8000295c:	1a d8       	st.w	--sp,r8
8000295e:	fa e8 00 58 	ld.d	r8,sp[88]
80002962:	bb 29       	st.d	--sp,r8
80002964:	f0 1f 00 52 	mcall	80002aac <gfx_DrawCircle+0x29c>
			screen_SetPixels(Rect(center.x - x, center.y + y - width, center.x - x, center.y + y),color);
80002968:	e7 d1 c0 10 	bfextu	r3,r1,0x0,0x10
8000296c:	04 98       	mov	r8,r2
8000296e:	06 99       	mov	r9,r3
80002970:	40 ba       	lddsp	r10,sp[0x2c]
80002972:	06 9b       	mov	r11,r3
80002974:	fa cc ff 98 	sub	r12,sp,-104
80002978:	f0 1f 00 4c 	mcall	80002aa8 <gfx_DrawCircle+0x298>
8000297c:	68 18       	ld.w	r8,r4[0x4]
8000297e:	1a d8       	st.w	--sp,r8
80002980:	fa e8 00 6c 	ld.d	r8,sp[108]
80002984:	bb 29       	st.d	--sp,r8
80002986:	f0 1f 00 4a 	mcall	80002aac <gfx_DrawCircle+0x29c>
			screen_SetPixels(Rect(center.x - x, center.y - y, center.x - x, center.y - y + width),color);
8000298a:	2f 7d       	sub	sp,-36
8000298c:	40 18       	lddsp	r8,sp[0x4]
8000298e:	06 99       	mov	r9,r3
80002990:	40 0a       	lddsp	r10,sp[0x0]
80002992:	06 9b       	mov	r11,r3
80002994:	fa cc ff a8 	sub	r12,sp,-88
80002998:	f0 1f 00 44 	mcall	80002aa8 <gfx_DrawCircle+0x298>
8000299c:	68 18       	ld.w	r8,r4[0x4]
8000299e:	1a d8       	st.w	--sp,r8
800029a0:	fa e8 00 5c 	ld.d	r8,sp[92]
800029a4:	bb 29       	st.d	--sp,r8
800029a6:	f0 1f 00 42 	mcall	80002aac <gfx_DrawCircle+0x29c>
			
			screen_SetPixels(Rect(center.x + y - width, center.y + x, center.x + y, center.y + x),color);
800029aa:	0e 98       	mov	r8,r7
800029ac:	fb 09 00 1e 	ld.sh	r9,sp[30]
800029b0:	12 08       	add	r8,r9
800029b2:	f5 d8 c0 10 	bfextu	r10,r8,0x0,0x10
800029b6:	50 3a       	stdsp	sp[0xc],r10

void gfx_DrawPixel(Vector2 position, Color color){
	screen_SetPixel(position,color);
}

void gfx_DrawCircle(Vector2 center, uint16_t radius, uint8_t width, Color color){
800029b8:	e5 d6 c0 08 	bfextu	r2,r6,0x0,0x8
			screen_SetPixels(Rect(center.x + x, center.y + y - width, center.x + x, center.y + y),color);
			screen_SetPixels(Rect(center.x + x, center.y - y, center.x + x, center.y - y + width),color);
			screen_SetPixels(Rect(center.x - x, center.y + y - width, center.x - x, center.y + y),color);
			screen_SetPixels(Rect(center.x - x, center.y - y, center.x - x, center.y - y + width),color);
			
			screen_SetPixels(Rect(center.x + y - width, center.y + x, center.x + y, center.y + x),color);
800029bc:	e4 05 00 03 	add	r3,r2,r5
800029c0:	5c 53       	castu.b	r3
800029c2:	fb 09 00 26 	ld.sh	r9,sp[38]
800029c6:	12 18       	sub	r8,r9
800029c8:	5c 78       	castu.h	r8
800029ca:	50 48       	stdsp	sp[0x10],r8
800029cc:	06 98       	mov	r8,r3
800029ce:	14 99       	mov	r9,r10
800029d0:	06 9a       	mov	r10,r3
800029d2:	40 4b       	lddsp	r11,sp[0x10]
800029d4:	fa cc ff 94 	sub	r12,sp,-108
800029d8:	f0 1f 00 34 	mcall	80002aa8 <gfx_DrawCircle+0x298>
800029dc:	68 18       	ld.w	r8,r4[0x4]
800029de:	1a d8       	st.w	--sp,r8
800029e0:	fa e8 00 70 	ld.d	r8,sp[112]
800029e4:	bb 29       	st.d	--sp,r8
800029e6:	f0 1f 00 32 	mcall	80002aac <gfx_DrawCircle+0x29c>
			screen_SetPixels(Rect(center.x + y - width, center.y - x, center.x + y, center.y - x),color);
800029ea:	ea 02 01 02 	sub	r2,r5,r2
800029ee:	5c 52       	castu.b	r2
800029f0:	04 98       	mov	r8,r2
800029f2:	40 69       	lddsp	r9,sp[0x18]
800029f4:	04 9a       	mov	r10,r2
800029f6:	40 7b       	lddsp	r11,sp[0x1c]
800029f8:	fa cc ff 80 	sub	r12,sp,-128
800029fc:	f0 1f 00 2b 	mcall	80002aa8 <gfx_DrawCircle+0x298>
80002a00:	68 18       	ld.w	r8,r4[0x4]
80002a02:	1a d8       	st.w	--sp,r8
80002a04:	fa e8 00 84 	ld.d	r8,sp[132]
80002a08:	bb 29       	st.d	--sp,r8
80002a0a:	f0 1f 00 29 	mcall	80002aac <gfx_DrawCircle+0x29c>
			screen_SetPixels(Rect(center.x - y, center.y + x, center.x - y + width, center.y + x),color);
80002a0e:	fb 08 00 36 	ld.sh	r8,sp[54]
80002a12:	0e 9a       	mov	r10,r7
80002a14:	14 18       	sub	r8,r10
80002a16:	fb 0a 00 3e 	ld.sh	r10,sp[62]
80002a1a:	f0 0a 00 09 	add	r9,r8,r10
80002a1e:	5c 79       	castu.h	r9
80002a20:	50 a9       	stdsp	sp[0x28],r9
80002a22:	5c 78       	castu.h	r8
80002a24:	50 98       	stdsp	sp[0x24],r8
80002a26:	2f 7d       	sub	sp,-36
80002a28:	06 98       	mov	r8,r3
80002a2a:	40 19       	lddsp	r9,sp[0x4]
80002a2c:	06 9a       	mov	r10,r3
80002a2e:	40 0b       	lddsp	r11,sp[0x0]
80002a30:	fa cc ff 90 	sub	r12,sp,-112
80002a34:	f0 1f 00 1d 	mcall	80002aa8 <gfx_DrawCircle+0x298>
80002a38:	68 18       	ld.w	r8,r4[0x4]
80002a3a:	1a d8       	st.w	--sp,r8
80002a3c:	fa e8 00 74 	ld.d	r8,sp[116]
80002a40:	bb 29       	st.d	--sp,r8
80002a42:	f0 1f 00 1b 	mcall	80002aac <gfx_DrawCircle+0x29c>
			screen_SetPixels(Rect(center.x - y, center.y - x, center.x - y + width, center.y - x),color);
80002a46:	04 98       	mov	r8,r2
80002a48:	40 49       	lddsp	r9,sp[0x10]
80002a4a:	04 9a       	mov	r10,r2
80002a4c:	40 3b       	lddsp	r11,sp[0xc]
80002a4e:	fa cc ff 7c 	sub	r12,sp,-132
80002a52:	f0 1f 00 16 	mcall	80002aa8 <gfx_DrawCircle+0x298>
80002a56:	68 18       	ld.w	r8,r4[0x4]
80002a58:	1a d8       	st.w	--sp,r8
80002a5a:	fa e8 00 88 	ld.d	r8,sp[136]
80002a5e:	bb 29       	st.d	--sp,r8
80002a60:	f0 1f 00 13 	mcall	80002aac <gfx_DrawCircle+0x29c>
80002a64:	2f ad       	sub	sp,-24
		}

		if(e < 0)
80002a66:	30 08       	mov	r8,0
80002a68:	f0 00 19 00 	cp.h	r0,r8
80002a6c:	c0 74       	brge	80002a7a <gfx_DrawCircle+0x26a>
			e += 3 + 2 * x;
80002a6e:	ec 08 15 01 	lsl	r8,r6,0x1
80002a72:	2f d0       	sub	r0,-3
80002a74:	10 00       	add	r0,r8
80002a76:	5c 80       	casts.h	r0
80002a78:	c0 98       	rjmp	80002a8a <gfx_DrawCircle+0x27a>
		else
			e += 5 + 2 * (x - y--);
80002a7a:	2f b0       	sub	r0,-5
80002a7c:	ec 07 01 08 	sub	r8,r6,r7
80002a80:	a1 78       	lsl	r8,0x1
80002a82:	10 00       	add	r0,r8
80002a84:	5c 80       	casts.h	r0
80002a86:	20 17       	sub	r7,1
80002a88:	5c 87       	casts.h	r7
		x++;
80002a8a:	2f f6       	sub	r6,-1
80002a8c:	5c 86       	casts.h	r6
80002a8e:	40 28       	lddsp	r8,sp[0x8]
80002a90:	2f f8       	sub	r8,-1
80002a92:	5c 88       	casts.h	r8
80002a94:	50 28       	stdsp	sp[0x8],r8
80002a96:	20 11       	sub	r1,1
80002a98:	5c 81       	casts.h	r1
	} while(x  <= y);
80002a9a:	ec 07 19 00 	cp.h	r7,r6
80002a9e:	fe 94 fe cd 	brge	80002838 <gfx_DrawCircle+0x28>
}
80002aa2:	2e 0d       	sub	sp,-128
80002aa4:	d8 32       	popm	r0-r7,pc
80002aa6:	00 00       	add	r0,r0
80002aa8:	80 00       	ld.sh	r0,r0[0x0]
80002aaa:	32 30       	mov	r0,35
80002aac:	80 00       	ld.sh	r0,r0[0x0]
80002aae:	33 a4       	mov	r4,58

80002ab0 <mainMenu>:
 * otherwise only dynamic part are drawn
 *
 * Created 10.11.17 QVT
 * Last modified 10.11.17 QVT
 */
void mainMenu(bool firstDraw){
80002ab0:	eb cd 40 e0 	pushm	r5-r7,lr
80002ab4:	fa cd 00 ac 	sub	sp,sp,172
	if(firstDraw){
80002ab8:	58 0c       	cp.w	r12,0
80002aba:	c1 40       	breq	80002ae2 <mainMenu+0x32>
		screen_SetPixels(Rect(0,0,320,240),(Color){BLACK});
80002abc:	30 0b       	mov	r11,0
80002abe:	50 0b       	stdsp	sp[0x0],r11
80002ac0:	e0 68 00 f0 	mov	r8,240
80002ac4:	e0 69 01 40 	mov	r9,320
80002ac8:	16 9a       	mov	r10,r11
80002aca:	fa cc ff fc 	sub	r12,sp,-4
80002ace:	f0 1f 00 fc 	mcall	80002ebc <mainMenu+0x40c>
80002ad2:	40 08       	lddsp	r8,sp[0x0]
80002ad4:	1a d8       	st.w	--sp,r8
80002ad6:	fa e8 00 08 	ld.d	r8,sp[8]
80002ada:	bb 29       	st.d	--sp,r8
80002adc:	f0 1f 00 f9 	mcall	80002ec0 <mainMenu+0x410>
80002ae0:	2f dd       	sub	sp,-12
	}
	
	//Shortcut Highlight
	screen_SetPixels(Rect(2,2,12,14),(Color){WHITE});
80002ae2:	30 07       	mov	r7,0
80002ae4:	50 37       	stdsp	sp[0xc],r7
80002ae6:	3f f6       	mov	r6,-1
80002ae8:	ba 66       	st.h	sp[0xc],r6
80002aea:	30 e8       	mov	r8,14
80002aec:	30 c9       	mov	r9,12
80002aee:	30 2a       	mov	r10,2
80002af0:	14 9b       	mov	r11,r10
80002af2:	fa cc ff f0 	sub	r12,sp,-16
80002af6:	f0 1f 00 f2 	mcall	80002ebc <mainMenu+0x40c>
80002afa:	40 38       	lddsp	r8,sp[0xc]
80002afc:	1a d8       	st.w	--sp,r8
80002afe:	fa e8 00 14 	ld.d	r8,sp[20]
80002b02:	bb 29       	st.d	--sp,r8
80002b04:	f0 1f 00 ef 	mcall	80002ec0 <mainMenu+0x410>
	screen_SetPixels(Rect(80,2,92,14),(Color){WHITE});
80002b08:	50 97       	stdsp	sp[0x24],r7
80002b0a:	fb 56 00 24 	st.h	sp[36],r6
80002b0e:	30 e8       	mov	r8,14
80002b10:	35 c9       	mov	r9,92
80002b12:	30 2a       	mov	r10,2
80002b14:	35 0b       	mov	r11,80
80002b16:	fa cc ff d8 	sub	r12,sp,-40
80002b1a:	f0 1f 00 e9 	mcall	80002ebc <mainMenu+0x40c>
80002b1e:	40 98       	lddsp	r8,sp[0x24]
80002b20:	1a d8       	st.w	--sp,r8
80002b22:	fa e8 00 2c 	ld.d	r8,sp[44]
80002b26:	bb 29       	st.d	--sp,r8
80002b28:	f0 1f 00 e6 	mcall	80002ec0 <mainMenu+0x410>
	screen_SetPixels(Rect(158,2,170,14),(Color){WHITE});
80002b2c:	50 f7       	stdsp	sp[0x3c],r7
80002b2e:	fb 56 00 3c 	st.h	sp[60],r6
80002b32:	30 e8       	mov	r8,14
80002b34:	e0 69 00 aa 	mov	r9,170
80002b38:	30 2a       	mov	r10,2
80002b3a:	e0 6b 00 9e 	mov	r11,158
80002b3e:	fa cc ff c0 	sub	r12,sp,-64
80002b42:	f0 1f 00 df 	mcall	80002ebc <mainMenu+0x40c>
80002b46:	40 f8       	lddsp	r8,sp[0x3c]
80002b48:	1a d8       	st.w	--sp,r8
80002b4a:	fa e8 00 44 	ld.d	r8,sp[68]
80002b4e:	bb 29       	st.d	--sp,r8
80002b50:	f0 1f 00 dc 	mcall	80002ec0 <mainMenu+0x410>
	screen_SetPixels(Rect(236,2,248,14),(Color){WHITE});
80002b54:	51 57       	stdsp	sp[0x54],r7
80002b56:	fb 56 00 54 	st.h	sp[84],r6
80002b5a:	2f 7d       	sub	sp,-36
80002b5c:	30 e8       	mov	r8,14
80002b5e:	e0 69 00 f8 	mov	r9,248
80002b62:	30 2a       	mov	r10,2
80002b64:	e0 6b 00 ec 	mov	r11,236
80002b68:	fa cc ff cc 	sub	r12,sp,-52
80002b6c:	f0 1f 00 d4 	mcall	80002ebc <mainMenu+0x40c>
80002b70:	40 c8       	lddsp	r8,sp[0x30]
80002b72:	1a d8       	st.w	--sp,r8
80002b74:	fa e8 00 38 	ld.d	r8,sp[56]
80002b78:	bb 29       	st.d	--sp,r8
80002b7a:	f0 1f 00 d2 	mcall	80002ec0 <mainMenu+0x410>
	//Shortcut
	gfx_Label((Vector2){4,4},"<", 7, Small, (Color){BLACK});
80002b7e:	51 27       	stdsp	sp[0x48],r7
80002b80:	30 45       	mov	r5,4
80002b82:	0a 9a       	mov	r10,r5
80002b84:	fe fb 03 40 	ld.w	r11,pc[832]
80002b88:	fa cc ff b4 	sub	r12,sp,-76
80002b8c:	f0 1f 00 cf 	mcall	80002ec8 <mainMenu+0x418>
80002b90:	41 28       	lddsp	r8,sp[0x48]
80002b92:	1a d8       	st.w	--sp,r8
80002b94:	41 48       	lddsp	r8,sp[0x50]
80002b96:	1a d8       	st.w	--sp,r8
80002b98:	0e 9a       	mov	r10,r7
80002b9a:	30 7b       	mov	r11,7
80002b9c:	fe fc 03 30 	ld.w	r12,pc[816]
80002ba0:	f0 1f 00 cc 	mcall	80002ed0 <mainMenu+0x420>
	gfx_Label((Vector2){82,4},"v", 7, Small, (Color){BLACK});
80002ba4:	51 67       	stdsp	sp[0x58],r7
80002ba6:	0a 9a       	mov	r10,r5
80002ba8:	fe fb 03 2c 	ld.w	r11,pc[812]
80002bac:	fa cc ff a4 	sub	r12,sp,-92
80002bb0:	f0 1f 00 c6 	mcall	80002ec8 <mainMenu+0x418>
80002bb4:	41 68       	lddsp	r8,sp[0x58]
80002bb6:	1a d8       	st.w	--sp,r8
80002bb8:	41 88       	lddsp	r8,sp[0x60]
80002bba:	1a d8       	st.w	--sp,r8
80002bbc:	0e 9a       	mov	r10,r7
80002bbe:	30 7b       	mov	r11,7
80002bc0:	fe fc 03 18 	ld.w	r12,pc[792]
80002bc4:	f0 1f 00 c3 	mcall	80002ed0 <mainMenu+0x420>
	gfx_Label((Vector2){160,4},"^", 7, Small, (Color){BLACK});
80002bc8:	51 a7       	stdsp	sp[0x68],r7
80002bca:	0a 9a       	mov	r10,r5
80002bcc:	fe fb 03 10 	ld.w	r11,pc[784]
80002bd0:	fa cc ff 94 	sub	r12,sp,-108
80002bd4:	f0 1f 00 bd 	mcall	80002ec8 <mainMenu+0x418>
80002bd8:	41 a8       	lddsp	r8,sp[0x68]
80002bda:	1a d8       	st.w	--sp,r8
80002bdc:	41 c8       	lddsp	r8,sp[0x70]
80002bde:	1a d8       	st.w	--sp,r8
80002be0:	0e 9a       	mov	r10,r7
80002be2:	30 7b       	mov	r11,7
80002be4:	fe fc 02 fc 	ld.w	r12,pc[764]
80002be8:	f0 1f 00 ba 	mcall	80002ed0 <mainMenu+0x420>
	gfx_Label((Vector2){238,4},"!", 7, Small, (Color){BLACK});
80002bec:	51 e7       	stdsp	sp[0x78],r7
80002bee:	2f 7d       	sub	sp,-36
80002bf0:	0a 9a       	mov	r10,r5
80002bf2:	fe fb 02 f2 	ld.w	r11,pc[754]
80002bf6:	fa cc ff a8 	sub	r12,sp,-88
80002bfa:	f0 1f 00 b4 	mcall	80002ec8 <mainMenu+0x418>
80002bfe:	41 58       	lddsp	r8,sp[0x54]
80002c00:	1a d8       	st.w	--sp,r8
80002c02:	41 78       	lddsp	r8,sp[0x5c]
80002c04:	1a d8       	st.w	--sp,r8
80002c06:	0e 9a       	mov	r10,r7
80002c08:	30 7b       	mov	r11,7
80002c0a:	fe fc 02 de 	ld.w	r12,pc[734]
80002c0e:	f0 1f 00 b1 	mcall	80002ed0 <mainMenu+0x420>
	//Button Description
	gfx_Label((Vector2){14,4},"Back", 7, Small, (Color){WHITE});
80002c12:	51 97       	stdsp	sp[0x64],r7
80002c14:	fb 56 00 64 	st.h	sp[100],r6
80002c18:	0a 9a       	mov	r10,r5
80002c1a:	fe fb 02 d2 	ld.w	r11,pc[722]
80002c1e:	fa cc ff 98 	sub	r12,sp,-104
80002c22:	f0 1f 00 aa 	mcall	80002ec8 <mainMenu+0x418>
80002c26:	41 98       	lddsp	r8,sp[0x64]
80002c28:	1a d8       	st.w	--sp,r8
80002c2a:	41 b8       	lddsp	r8,sp[0x6c]
80002c2c:	1a d8       	st.w	--sp,r8
80002c2e:	0e 9a       	mov	r10,r7
80002c30:	30 7b       	mov	r11,7
80002c32:	fe fc 02 be 	ld.w	r12,pc[702]
80002c36:	f0 1f 00 a7 	mcall	80002ed0 <mainMenu+0x420>
	gfx_Label((Vector2){94,4},"Down", 7, Small, (Color){WHITE});
80002c3a:	51 d7       	stdsp	sp[0x74],r7
80002c3c:	fb 56 00 74 	st.h	sp[116],r6
80002c40:	0a 9a       	mov	r10,r5
80002c42:	fe fb 02 b2 	ld.w	r11,pc[690]
80002c46:	fa cc ff 88 	sub	r12,sp,-120
80002c4a:	f0 1f 00 a0 	mcall	80002ec8 <mainMenu+0x418>
80002c4e:	41 d8       	lddsp	r8,sp[0x74]
80002c50:	1a d8       	st.w	--sp,r8
80002c52:	41 f8       	lddsp	r8,sp[0x7c]
80002c54:	1a d8       	st.w	--sp,r8
80002c56:	0e 9a       	mov	r10,r7
80002c58:	30 7b       	mov	r11,7
80002c5a:	fe fc 02 9e 	ld.w	r12,pc[670]
80002c5e:	f0 1f 00 9d 	mcall	80002ed0 <mainMenu+0x420>
	gfx_Label((Vector2){172,4},"Up", 7, Small, (Color){WHITE});
80002c62:	52 17       	stdsp	sp[0x84],r7
80002c64:	fb 56 00 84 	st.h	sp[132],r6
80002c68:	0a 9a       	mov	r10,r5
80002c6a:	fe fb 02 92 	ld.w	r11,pc[658]
80002c6e:	fa cc ff 78 	sub	r12,sp,-136
80002c72:	f0 1f 00 96 	mcall	80002ec8 <mainMenu+0x418>
80002c76:	42 18       	lddsp	r8,sp[0x84]
80002c78:	1a d8       	st.w	--sp,r8
80002c7a:	42 38       	lddsp	r8,sp[0x8c]
80002c7c:	1a d8       	st.w	--sp,r8
80002c7e:	0e 9a       	mov	r10,r7
80002c80:	30 7b       	mov	r11,7
80002c82:	fe fc 02 7e 	ld.w	r12,pc[638]
80002c86:	f0 1f 00 93 	mcall	80002ed0 <mainMenu+0x420>
	gfx_Label((Vector2){250,4},"Ok", 7, Small, (Color){WHITE});
80002c8a:	52 57       	stdsp	sp[0x94],r7
80002c8c:	fb 56 00 94 	st.h	sp[148],r6
80002c90:	2f 8d       	sub	sp,-32
80002c92:	0a 9a       	mov	r10,r5
80002c94:	fe fb 02 70 	ld.w	r11,pc[624]
80002c98:	fa cc ff 88 	sub	r12,sp,-120
80002c9c:	f0 1f 00 8b 	mcall	80002ec8 <mainMenu+0x418>
80002ca0:	41 d8       	lddsp	r8,sp[0x74]
80002ca2:	1a d8       	st.w	--sp,r8
80002ca4:	41 f8       	lddsp	r8,sp[0x7c]
80002ca6:	1a d8       	st.w	--sp,r8
80002ca8:	0e 9a       	mov	r10,r7
80002caa:	30 7b       	mov	r11,7
80002cac:	fe fc 02 5c 	ld.w	r12,pc[604]
80002cb0:	f0 1f 00 88 	mcall	80002ed0 <mainMenu+0x420>
		
	//Time
	gfx_Label((Vector2){20, 240 - 20}, "status --complete", 17, Small, (Color){WHITE});
80002cb4:	52 17       	stdsp	sp[0x84],r7
80002cb6:	fb 56 00 84 	st.h	sp[132],r6
80002cba:	0a 9a       	mov	r10,r5
80002cbc:	fe fb 02 50 	ld.w	r11,pc[592]
80002cc0:	fa cc ff 78 	sub	r12,sp,-136
80002cc4:	f0 1f 00 81 	mcall	80002ec8 <mainMenu+0x418>
80002cc8:	42 18       	lddsp	r8,sp[0x84]
80002cca:	1a d8       	st.w	--sp,r8
80002ccc:	42 38       	lddsp	r8,sp[0x8c]
80002cce:	1a d8       	st.w	--sp,r8
80002cd0:	0e 9a       	mov	r10,r7
80002cd2:	31 1b       	mov	r11,17
80002cd4:	fe fc 02 3c 	ld.w	r12,pc[572]
80002cd8:	f0 1f 00 7e 	mcall	80002ed0 <mainMenu+0x420>
 * \param  delay:   (input) delay in CPU cycles before timeout.
 * \param  cpu_time: (output) internal information used by the timer API.
 */
__always_inline static void cpu_set_timeout(unsigned long delay, t_cpu_time *cpu_time)
{
  cpu_time->delay_start_cycle = Get_system_register(AVR32_COUNT);
80002cdc:	e1 b8 00 42 	mfsr	r8,0x108
  cpu_time->delay_end_cycle   = cpu_time->delay_start_cycle + delay;
80002ce0:	e0 6a a8 00 	mov	r10,43008
80002ce4:	ea 1a 00 61 	orh	r10,0x61
80002ce8:	f0 0a 00 0a 	add	r10,r8,r10
80002cec:	2f cd       	sub	sp,-16
 *
 * \return true if timeout occurred, otherwise false.
 */
__always_inline static unsigned long cpu_is_timeout(t_cpu_time *cpu_time)
{
  unsigned long current_cycle_count = Get_system_register(AVR32_COUNT);
80002cee:	e1 b9 00 42 	mfsr	r9,0x108
  // Test if the timeout as already occurred.
  else if (cpu_time->timer_state == CPU_TIMER_STATE_REACHED)
    return true;

  // If the ending cycle count of this timeout is wrapped, ...
  else if (cpu_time->delay_start_cycle > cpu_time->delay_end_cycle)
80002cf2:	14 38       	cp.w	r8,r10
80002cf4:	e0 88 00 08 	brls	80002d04 <mainMenu+0x254>
  {
    if (current_cycle_count < cpu_time->delay_start_cycle && current_cycle_count > cpu_time->delay_end_cycle)
80002cf8:	12 38       	cp.w	r8,r9
80002cfa:	fe 98 ff fa 	brls	80002cee <mainMenu+0x23e>
80002cfe:	12 3a       	cp.w	r10,r9
80002d00:	c4 d3       	brcs	80002d9a <mainMenu+0x2ea>
80002d02:	cf 6b       	rjmp	80002cee <mainMenu+0x23e>
    }
    return false;
  }
  else
  {
    if (current_cycle_count < cpu_time->delay_start_cycle || current_cycle_count > cpu_time->delay_end_cycle)
80002d04:	12 38       	cp.w	r8,r9
80002d06:	e0 8b 00 4a 	brhi	80002d9a <mainMenu+0x2ea>
80002d0a:	12 3a       	cp.w	r10,r9
80002d0c:	c4 73       	brcs	80002d9a <mainMenu+0x2ea>
80002d0e:	cf 0b       	rjmp	80002cee <mainMenu+0x23e>
 *
 * \return true if timeout occurred, otherwise false.
 */
__always_inline static unsigned long cpu_is_timeout(t_cpu_time *cpu_time)
{
  unsigned long current_cycle_count = Get_system_register(AVR32_COUNT);
80002d10:	e1 b9 00 42 	mfsr	r9,0x108
  // Test if the timeout as already occurred.
  else if (cpu_time->timer_state == CPU_TIMER_STATE_REACHED)
    return true;

  // If the ending cycle count of this timeout is wrapped, ...
  else if (cpu_time->delay_start_cycle > cpu_time->delay_end_cycle)
80002d14:	14 38       	cp.w	r8,r10
80002d16:	e0 88 00 08 	brls	80002d26 <mainMenu+0x276>
  {
    if (current_cycle_count < cpu_time->delay_start_cycle && current_cycle_count > cpu_time->delay_end_cycle)
80002d1a:	12 38       	cp.w	r8,r9
80002d1c:	fe 98 ff fa 	brls	80002d10 <mainMenu+0x260>
80002d20:	12 3a       	cp.w	r10,r9
80002d22:	c5 a3       	brcs	80002dd6 <mainMenu+0x326>
80002d24:	cf 6b       	rjmp	80002d10 <mainMenu+0x260>
    }
    return false;
  }
  else
  {
    if (current_cycle_count < cpu_time->delay_start_cycle || current_cycle_count > cpu_time->delay_end_cycle)
80002d26:	12 38       	cp.w	r8,r9
80002d28:	e0 8b 00 57 	brhi	80002dd6 <mainMenu+0x326>
80002d2c:	12 3a       	cp.w	r10,r9
80002d2e:	c5 43       	brcs	80002dd6 <mainMenu+0x326>
80002d30:	cf 0b       	rjmp	80002d10 <mainMenu+0x260>
 *
 * \return true if timeout occurred, otherwise false.
 */
__always_inline static unsigned long cpu_is_timeout(t_cpu_time *cpu_time)
{
  unsigned long current_cycle_count = Get_system_register(AVR32_COUNT);
80002d32:	e1 b9 00 42 	mfsr	r9,0x108
  // Test if the timeout as already occurred.
  else if (cpu_time->timer_state == CPU_TIMER_STATE_REACHED)
    return true;

  // If the ending cycle count of this timeout is wrapped, ...
  else if (cpu_time->delay_start_cycle > cpu_time->delay_end_cycle)
80002d36:	14 38       	cp.w	r8,r10
80002d38:	e0 88 00 08 	brls	80002d48 <mainMenu+0x298>
  {
    if (current_cycle_count < cpu_time->delay_start_cycle && current_cycle_count > cpu_time->delay_end_cycle)
80002d3c:	12 38       	cp.w	r8,r9
80002d3e:	fe 98 ff fa 	brls	80002d32 <mainMenu+0x282>
80002d42:	12 3a       	cp.w	r10,r9
80002d44:	c6 73       	brcs	80002e12 <mainMenu+0x362>
80002d46:	cf 6b       	rjmp	80002d32 <mainMenu+0x282>
    }
    return false;
  }
  else
  {
    if (current_cycle_count < cpu_time->delay_start_cycle || current_cycle_count > cpu_time->delay_end_cycle)
80002d48:	12 38       	cp.w	r8,r9
80002d4a:	e0 8b 00 64 	brhi	80002e12 <mainMenu+0x362>
80002d4e:	12 3a       	cp.w	r10,r9
80002d50:	c6 13       	brcs	80002e12 <mainMenu+0x362>
80002d52:	cf 0b       	rjmp	80002d32 <mainMenu+0x282>
 *
 * \return true if timeout occurred, otherwise false.
 */
__always_inline static unsigned long cpu_is_timeout(t_cpu_time *cpu_time)
{
  unsigned long current_cycle_count = Get_system_register(AVR32_COUNT);
80002d54:	e1 b9 00 42 	mfsr	r9,0x108
  // Test if the timeout as already occurred.
  else if (cpu_time->timer_state == CPU_TIMER_STATE_REACHED)
    return true;

  // If the ending cycle count of this timeout is wrapped, ...
  else if (cpu_time->delay_start_cycle > cpu_time->delay_end_cycle)
80002d58:	14 38       	cp.w	r8,r10
80002d5a:	e0 88 00 08 	brls	80002d6a <mainMenu+0x2ba>
  {
    if (current_cycle_count < cpu_time->delay_start_cycle && current_cycle_count > cpu_time->delay_end_cycle)
80002d5e:	12 38       	cp.w	r8,r9
80002d60:	fe 98 ff fa 	brls	80002d54 <mainMenu+0x2a4>
80002d64:	12 3a       	cp.w	r10,r9
80002d66:	c7 43       	brcs	80002e4e <mainMenu+0x39e>
80002d68:	cf 6b       	rjmp	80002d54 <mainMenu+0x2a4>
    }
    return false;
  }
  else
  {
    if (current_cycle_count < cpu_time->delay_start_cycle || current_cycle_count > cpu_time->delay_end_cycle)
80002d6a:	12 38       	cp.w	r8,r9
80002d6c:	e0 8b 00 71 	brhi	80002e4e <mainMenu+0x39e>
80002d70:	12 3a       	cp.w	r10,r9
80002d72:	c6 e3       	brcs	80002e4e <mainMenu+0x39e>
80002d74:	cf 0b       	rjmp	80002d54 <mainMenu+0x2a4>
 *
 * \return true if timeout occurred, otherwise false.
 */
__always_inline static unsigned long cpu_is_timeout(t_cpu_time *cpu_time)
{
  unsigned long current_cycle_count = Get_system_register(AVR32_COUNT);
80002d76:	e1 b9 00 42 	mfsr	r9,0x108
  // Test if the timeout as already occurred.
  else if (cpu_time->timer_state == CPU_TIMER_STATE_REACHED)
    return true;

  // If the ending cycle count of this timeout is wrapped, ...
  else if (cpu_time->delay_start_cycle > cpu_time->delay_end_cycle)
80002d7a:	14 38       	cp.w	r8,r10
80002d7c:	e0 88 00 09 	brls	80002d8e <mainMenu+0x2de>
  {
    if (current_cycle_count < cpu_time->delay_start_cycle && current_cycle_count > cpu_time->delay_end_cycle)
80002d80:	12 38       	cp.w	r8,r9
80002d82:	fe 98 ff fa 	brls	80002d76 <mainMenu+0x2c6>
80002d86:	12 3a       	cp.w	r10,r9
80002d88:	e0 83 00 81 	brlo	80002e8a <mainMenu+0x3da>
80002d8c:	cf 5b       	rjmp	80002d76 <mainMenu+0x2c6>
    }
    return false;
  }
  else
  {
    if (current_cycle_count < cpu_time->delay_start_cycle || current_cycle_count > cpu_time->delay_end_cycle)
80002d8e:	12 38       	cp.w	r8,r9
80002d90:	e0 8b 00 7d 	brhi	80002e8a <mainMenu+0x3da>
80002d94:	12 3a       	cp.w	r10,r9
80002d96:	c7 a3       	brcs	80002e8a <mainMenu+0x3da>
80002d98:	ce fb       	rjmp	80002d76 <mainMenu+0x2c6>
	cpu_delay_ms(100,BOARD_OSC0_HZ);
	gfx_Label((Vector2){20, 240 - 40}, "> Vendredi", 10, Small, (Color){WHITE});
80002d9a:	30 07       	mov	r7,0
80002d9c:	52 17       	stdsp	sp[0x84],r7
80002d9e:	3f f8       	mov	r8,-1
80002da0:	fb 58 00 84 	st.h	sp[132],r8
80002da4:	30 4a       	mov	r10,4
80002da6:	4d cb       	lddpc	r11,80002f14 <mainMenu+0x464>
80002da8:	fa cc ff 78 	sub	r12,sp,-136
80002dac:	f0 1f 00 47 	mcall	80002ec8 <mainMenu+0x418>
80002db0:	42 18       	lddsp	r8,sp[0x84]
80002db2:	1a d8       	st.w	--sp,r8
80002db4:	42 38       	lddsp	r8,sp[0x8c]
80002db6:	1a d8       	st.w	--sp,r8
80002db8:	0e 9a       	mov	r10,r7
80002dba:	30 ab       	mov	r11,10
80002dbc:	4d 7c       	lddpc	r12,80002f18 <mainMenu+0x468>
80002dbe:	f0 1f 00 45 	mcall	80002ed0 <mainMenu+0x420>
 * \param  delay:   (input) delay in CPU cycles before timeout.
 * \param  cpu_time: (output) internal information used by the timer API.
 */
__always_inline static void cpu_set_timeout(unsigned long delay, t_cpu_time *cpu_time)
{
  cpu_time->delay_start_cycle = Get_system_register(AVR32_COUNT);
80002dc2:	e1 b8 00 42 	mfsr	r8,0x108
  cpu_time->delay_end_cycle   = cpu_time->delay_start_cycle + delay;
80002dc6:	e0 6a a8 00 	mov	r10,43008
80002dca:	ea 1a 00 61 	orh	r10,0x61
80002dce:	f0 0a 00 0a 	add	r10,r8,r10
80002dd2:	2f ed       	sub	sp,-8
80002dd4:	c9 eb       	rjmp	80002d10 <mainMenu+0x260>
	cpu_delay_ms(100,BOARD_OSC0_HZ);
	gfx_Label((Vector2){20, 240 - 60}, "> 10/11/17", 10, Small, (Color){WHITE});
80002dd6:	30 07       	mov	r7,0
80002dd8:	52 37       	stdsp	sp[0x8c],r7
80002dda:	3f f8       	mov	r8,-1
80002ddc:	fb 58 00 8c 	st.h	sp[140],r8
80002de0:	30 4a       	mov	r10,4
80002de2:	4c fb       	lddpc	r11,80002f1c <mainMenu+0x46c>
80002de4:	fa cc ff 70 	sub	r12,sp,-144
80002de8:	f0 1f 00 38 	mcall	80002ec8 <mainMenu+0x418>
80002dec:	42 38       	lddsp	r8,sp[0x8c]
80002dee:	1a d8       	st.w	--sp,r8
80002df0:	42 58       	lddsp	r8,sp[0x94]
80002df2:	1a d8       	st.w	--sp,r8
80002df4:	0e 9a       	mov	r10,r7
80002df6:	30 ab       	mov	r11,10
80002df8:	4c ac       	lddpc	r12,80002f20 <mainMenu+0x470>
80002dfa:	f0 1f 00 36 	mcall	80002ed0 <mainMenu+0x420>
 * \param  delay:   (input) delay in CPU cycles before timeout.
 * \param  cpu_time: (output) internal information used by the timer API.
 */
__always_inline static void cpu_set_timeout(unsigned long delay, t_cpu_time *cpu_time)
{
  cpu_time->delay_start_cycle = Get_system_register(AVR32_COUNT);
80002dfe:	e1 b8 00 42 	mfsr	r8,0x108
  cpu_time->delay_end_cycle   = cpu_time->delay_start_cycle + delay;
80002e02:	e0 6a a8 00 	mov	r10,43008
80002e06:	ea 1a 00 61 	orh	r10,0x61
80002e0a:	f0 0a 00 0a 	add	r10,r8,r10
80002e0e:	2f ed       	sub	sp,-8
80002e10:	c9 1b       	rjmp	80002d32 <mainMenu+0x282>
	cpu_delay_ms(100,BOARD_OSC0_HZ);
	gfx_Label((Vector2){20, 240 - 80}, "> 15h 30m" ,  9, Small, (Color){WHITE});
80002e12:	30 07       	mov	r7,0
80002e14:	52 57       	stdsp	sp[0x94],r7
80002e16:	3f f8       	mov	r8,-1
80002e18:	fb 58 00 94 	st.h	sp[148],r8
80002e1c:	30 4a       	mov	r10,4
80002e1e:	4c 2b       	lddpc	r11,80002f24 <mainMenu+0x474>
80002e20:	fa cc ff 68 	sub	r12,sp,-152
80002e24:	f0 1f 00 29 	mcall	80002ec8 <mainMenu+0x418>
80002e28:	42 58       	lddsp	r8,sp[0x94]
80002e2a:	1a d8       	st.w	--sp,r8
80002e2c:	42 78       	lddsp	r8,sp[0x9c]
80002e2e:	1a d8       	st.w	--sp,r8
80002e30:	0e 9a       	mov	r10,r7
80002e32:	30 9b       	mov	r11,9
80002e34:	4b dc       	lddpc	r12,80002f28 <mainMenu+0x478>
80002e36:	f0 1f 00 27 	mcall	80002ed0 <mainMenu+0x420>
 * \param  delay:   (input) delay in CPU cycles before timeout.
 * \param  cpu_time: (output) internal information used by the timer API.
 */
__always_inline static void cpu_set_timeout(unsigned long delay, t_cpu_time *cpu_time)
{
  cpu_time->delay_start_cycle = Get_system_register(AVR32_COUNT);
80002e3a:	e1 b8 00 42 	mfsr	r8,0x108
  cpu_time->delay_end_cycle   = cpu_time->delay_start_cycle + delay;
80002e3e:	e0 6a a8 00 	mov	r10,43008
80002e42:	ea 1a 00 61 	orh	r10,0x61
80002e46:	f0 0a 00 0a 	add	r10,r8,r10
80002e4a:	2f ed       	sub	sp,-8
80002e4c:	c8 4b       	rjmp	80002d54 <mainMenu+0x2a4>
	cpu_delay_ms(100,BOARD_OSC0_HZ);
	gfx_Label((Vector2){20, 240 - 100}, "> Alarme 1 disabled" ,  28, Small, (Color){WHITE});
80002e4e:	30 07       	mov	r7,0
80002e50:	52 77       	stdsp	sp[0x9c],r7
80002e52:	3f f8       	mov	r8,-1
80002e54:	fb 58 00 9c 	st.h	sp[156],r8
80002e58:	30 4a       	mov	r10,4
80002e5a:	4b 5b       	lddpc	r11,80002f2c <mainMenu+0x47c>
80002e5c:	fa cc ff 60 	sub	r12,sp,-160
80002e60:	f0 1f 00 1a 	mcall	80002ec8 <mainMenu+0x418>
80002e64:	42 78       	lddsp	r8,sp[0x9c]
80002e66:	1a d8       	st.w	--sp,r8
80002e68:	42 98       	lddsp	r8,sp[0xa4]
80002e6a:	1a d8       	st.w	--sp,r8
80002e6c:	0e 9a       	mov	r10,r7
80002e6e:	31 cb       	mov	r11,28
80002e70:	4b 0c       	lddpc	r12,80002f30 <mainMenu+0x480>
80002e72:	f0 1f 00 18 	mcall	80002ed0 <mainMenu+0x420>
 * \param  delay:   (input) delay in CPU cycles before timeout.
 * \param  cpu_time: (output) internal information used by the timer API.
 */
__always_inline static void cpu_set_timeout(unsigned long delay, t_cpu_time *cpu_time)
{
  cpu_time->delay_start_cycle = Get_system_register(AVR32_COUNT);
80002e76:	e1 b8 00 42 	mfsr	r8,0x108
  cpu_time->delay_end_cycle   = cpu_time->delay_start_cycle + delay;
80002e7a:	e0 6a a8 00 	mov	r10,43008
80002e7e:	ea 1a 00 61 	orh	r10,0x61
80002e82:	f0 0a 00 0a 	add	r10,r8,r10
80002e86:	2f ed       	sub	sp,-8
80002e88:	c7 7b       	rjmp	80002d76 <mainMenu+0x2c6>
	cpu_delay_ms(100,BOARD_OSC0_HZ);
	gfx_Label((Vector2){20, 240 - 120}, "> Alarme 2 enabled" ,  27, Small, (Color){WHITE});
80002e8a:	30 07       	mov	r7,0
80002e8c:	52 97       	stdsp	sp[0xa4],r7
80002e8e:	3f f8       	mov	r8,-1
80002e90:	fb 58 00 a4 	st.h	sp[164],r8
80002e94:	30 4a       	mov	r10,4
80002e96:	4a 8b       	lddpc	r11,80002f34 <mainMenu+0x484>
80002e98:	fa cc ff 58 	sub	r12,sp,-168
80002e9c:	f0 1f 00 0b 	mcall	80002ec8 <mainMenu+0x418>
80002ea0:	42 98       	lddsp	r8,sp[0xa4]
80002ea2:	1a d8       	st.w	--sp,r8
80002ea4:	42 b8       	lddsp	r8,sp[0xac]
80002ea6:	1a d8       	st.w	--sp,r8
80002ea8:	0e 9a       	mov	r10,r7
80002eaa:	31 bb       	mov	r11,27
80002eac:	4a 3c       	lddpc	r12,80002f38 <mainMenu+0x488>
80002eae:	f0 1f 00 09 	mcall	80002ed0 <mainMenu+0x420>
80002eb2:	2f ed       	sub	sp,-8
80002eb4:	2d 5d       	sub	sp,-172
80002eb6:	e3 cd 80 e0 	ldm	sp++,r5-r7,pc
80002eba:	00 00       	add	r0,r0
80002ebc:	80 00       	ld.sh	r0,r0[0x0]
80002ebe:	32 30       	mov	r0,35
80002ec0:	80 00       	ld.sh	r0,r0[0x0]
80002ec2:	33 a4       	mov	r4,58
80002ec4:	80 00       	ld.sh	r0,r0[0x0]
80002ec6:	76 e4       	ld.w	r4,r11[0x38]
80002ec8:	80 00       	ld.sh	r0,r0[0x0]
80002eca:	3e 44       	mov	r4,-28
80002ecc:	80 00       	ld.sh	r0,r0[0x0]
80002ece:	76 f8       	ld.w	r8,r11[0x3c]
80002ed0:	80 00       	ld.sh	r0,r0[0x0]
80002ed2:	24 f4       	sub	r4,79
80002ed4:	80 00       	ld.sh	r0,r0[0x0]
80002ed6:	76 90       	ld.w	r0,r11[0x24]
80002ed8:	80 00       	ld.sh	r0,r0[0x0]
80002eda:	76 fc       	ld.w	r12,r11[0x3c]
80002edc:	80 00       	ld.sh	r0,r0[0x0]
80002ede:	76 bc       	ld.w	r12,r11[0x2c]
80002ee0:	80 00       	ld.sh	r0,r0[0x0]
80002ee2:	77 00       	ld.w	r0,r11[0x40]
80002ee4:	80 00       	ld.sh	r0,r0[0x0]
80002ee6:	76 c8       	ld.w	r8,r11[0x30]
80002ee8:	80 00       	ld.sh	r0,r0[0x0]
80002eea:	77 04       	ld.w	r4,r11[0x40]
80002eec:	80 00       	ld.sh	r0,r0[0x0]
80002eee:	76 e0       	ld.w	r0,r11[0x38]
80002ef0:	80 00       	ld.sh	r0,r0[0x0]
80002ef2:	77 08       	ld.w	r8,r11[0x40]
80002ef4:	80 00       	ld.sh	r0,r0[0x0]
80002ef6:	76 8c       	ld.w	r12,r11[0x20]
80002ef8:	80 00       	ld.sh	r0,r0[0x0]
80002efa:	77 10       	ld.w	r0,r11[0x44]
80002efc:	80 00       	ld.sh	r0,r0[0x0]
80002efe:	76 ac       	ld.w	r12,r11[0x28]
80002f00:	80 00       	ld.sh	r0,r0[0x0]
80002f02:	77 18       	ld.w	r8,r11[0x44]
80002f04:	80 00       	ld.sh	r0,r0[0x0]
80002f06:	76 e8       	ld.w	r8,r11[0x38]
80002f08:	80 00       	ld.sh	r0,r0[0x0]
80002f0a:	77 1c       	ld.w	r12,r11[0x44]
80002f0c:	80 00       	ld.sh	r0,r0[0x0]
80002f0e:	76 b0       	ld.w	r0,r11[0x2c]
80002f10:	80 00       	ld.sh	r0,r0[0x0]
80002f12:	77 20       	ld.w	r0,r11[0x48]
80002f14:	80 00       	ld.sh	r0,r0[0x0]
80002f16:	76 c4       	ld.w	r4,r11[0x30]
80002f18:	80 00       	ld.sh	r0,r0[0x0]
80002f1a:	77 34       	ld.w	r4,r11[0x4c]
80002f1c:	80 00       	ld.sh	r0,r0[0x0]
80002f1e:	76 cc       	ld.w	r12,r11[0x30]
80002f20:	80 00       	ld.sh	r0,r0[0x0]
80002f22:	77 40       	ld.w	r0,r11[0x50]
80002f24:	80 00       	ld.sh	r0,r0[0x0]
80002f26:	76 ec       	ld.w	r12,r11[0x38]
80002f28:	80 00       	ld.sh	r0,r0[0x0]
80002f2a:	77 4c       	ld.w	r12,r11[0x50]
80002f2c:	80 00       	ld.sh	r0,r0[0x0]
80002f2e:	76 98       	ld.w	r8,r11[0x24]
80002f30:	80 00       	ld.sh	r0,r0[0x0]
80002f32:	77 58       	ld.w	r8,r11[0x54]
80002f34:	80 00       	ld.sh	r0,r0[0x0]
80002f36:	76 94       	ld.w	r4,r11[0x24]
80002f38:	80 00       	ld.sh	r0,r0[0x0]
80002f3a:	77 6c       	ld.w	r12,r11[0x58]

80002f3c <gui_loadingScreen>:
		menus[n].input = NULL;
	}
	return true;
}

void gui_loadingScreen(void){
80002f3c:	d4 21       	pushm	r4-r7,lr
80002f3e:	21 bd       	sub	sp,108
	screen_SetPixels(Rect(0,0,320,240), (Color){RED});
80002f40:	30 07       	mov	r7,0
80002f42:	50 47       	stdsp	sp[0x10],r7
80002f44:	31 f4       	mov	r4,31
80002f46:	fb 54 00 10 	st.h	sp[16],r4
80002f4a:	e0 68 00 f0 	mov	r8,240
80002f4e:	e0 69 01 40 	mov	r9,320
80002f52:	0e 9a       	mov	r10,r7
80002f54:	0e 9b       	mov	r11,r7
80002f56:	fa cc ff ec 	sub	r12,sp,-20
80002f5a:	f0 1f 00 5c 	mcall	800030c8 <gui_loadingScreen+0x18c>
80002f5e:	40 48       	lddsp	r8,sp[0x10]
80002f60:	1a d8       	st.w	--sp,r8
80002f62:	fa e8 00 18 	ld.d	r8,sp[24]
80002f66:	bb 29       	st.d	--sp,r8
80002f68:	f0 1f 00 59 	mcall	800030cc <gui_loadingScreen+0x190>
	screen_SetPixels((Rectangle){.bottomLeft={10,10},.topRight={310,230}}, (Color){BLACK});
80002f6c:	50 a7       	stdsp	sp[0x28],r7
80002f6e:	30 8a       	mov	r10,8
80002f70:	4d 8b       	lddpc	r11,800030d0 <gui_loadingScreen+0x194>
80002f72:	fa cc ff d4 	sub	r12,sp,-44
80002f76:	f0 1f 00 58 	mcall	800030d4 <gui_loadingScreen+0x198>
80002f7a:	40 a8       	lddsp	r8,sp[0x28]
80002f7c:	1a d8       	st.w	--sp,r8
80002f7e:	fa e8 00 30 	ld.d	r8,sp[48]
80002f82:	bb 29       	st.d	--sp,r8
80002f84:	f0 1f 00 52 	mcall	800030cc <gui_loadingScreen+0x190>

	gfx_DrawCircle((Vector2){150,129},58,1,(Color){WHITE});
80002f88:	51 07       	stdsp	sp[0x40],r7
80002f8a:	3f f5       	mov	r5,-1
80002f8c:	fb 55 00 40 	st.h	sp[64],r5
80002f90:	30 46       	mov	r6,4
80002f92:	0c 9a       	mov	r10,r6
80002f94:	4d 1b       	lddpc	r11,800030d8 <gui_loadingScreen+0x19c>
80002f96:	fa cc ff bc 	sub	r12,sp,-68
80002f9a:	f0 1f 00 4f 	mcall	800030d4 <gui_loadingScreen+0x198>
80002f9e:	41 08       	lddsp	r8,sp[0x40]
80002fa0:	1a d8       	st.w	--sp,r8
80002fa2:	41 28       	lddsp	r8,sp[0x48]
80002fa4:	1a d8       	st.w	--sp,r8
80002fa6:	30 1b       	mov	r11,1
80002fa8:	33 ac       	mov	r12,58
80002faa:	f0 1f 00 4d 	mcall	800030dc <gui_loadingScreen+0x1a0>
	gfx_DrawCircle((Vector2){200,100},50,50,(Color){RED});
80002fae:	51 47       	stdsp	sp[0x50],r7
80002fb0:	fb 54 00 50 	st.h	sp[80],r4
80002fb4:	2f 8d       	sub	sp,-32
80002fb6:	0c 9a       	mov	r10,r6
80002fb8:	4c ab       	lddpc	r11,800030e0 <gui_loadingScreen+0x1a4>
80002fba:	fa cc ff cc 	sub	r12,sp,-52
80002fbe:	f0 1f 00 46 	mcall	800030d4 <gui_loadingScreen+0x198>
80002fc2:	40 c8       	lddsp	r8,sp[0x30]
80002fc4:	1a d8       	st.w	--sp,r8
80002fc6:	40 e8       	lddsp	r8,sp[0x38]
80002fc8:	1a d8       	st.w	--sp,r8
80002fca:	33 2b       	mov	r11,50
80002fcc:	16 9c       	mov	r12,r11
80002fce:	f0 1f 00 44 	mcall	800030dc <gui_loadingScreen+0x1a0>
	gfx_DrawLine((Vector2){100,100}, (Vector2){200,100}, (Color){WHITE}, 3);
80002fd2:	51 07       	stdsp	sp[0x40],r7
80002fd4:	fb 55 00 40 	st.h	sp[64],r5
80002fd8:	0c 9a       	mov	r10,r6
80002fda:	4c 3b       	lddpc	r11,800030e4 <gui_loadingScreen+0x1a8>
80002fdc:	fa cc ff bc 	sub	r12,sp,-68
80002fe0:	f0 1f 00 3d 	mcall	800030d4 <gui_loadingScreen+0x198>
80002fe4:	0c 9a       	mov	r10,r6
80002fe6:	4c 1b       	lddpc	r11,800030e8 <gui_loadingScreen+0x1ac>
80002fe8:	fa cc ff b8 	sub	r12,sp,-72
80002fec:	f0 1f 00 3a 	mcall	800030d4 <gui_loadingScreen+0x198>
80002ff0:	41 08       	lddsp	r8,sp[0x40]
80002ff2:	1a d8       	st.w	--sp,r8
80002ff4:	41 28       	lddsp	r8,sp[0x48]
80002ff6:	1a d8       	st.w	--sp,r8
80002ff8:	41 48       	lddsp	r8,sp[0x50]
80002ffa:	1a d8       	st.w	--sp,r8
80002ffc:	30 3c       	mov	r12,3
80002ffe:	f0 1f 00 3c 	mcall	800030ec <gui_loadingScreen+0x1b0>
	gfx_DrawLine((Vector2){150, 186}, (Vector2){200,100}, (Color){WHITE}, 1);
80003002:	51 67       	stdsp	sp[0x58],r7
80003004:	fb 55 00 58 	st.h	sp[88],r5
80003008:	0c 9a       	mov	r10,r6
8000300a:	4b ab       	lddpc	r11,800030f0 <gui_loadingScreen+0x1b4>
8000300c:	fa cc ff a4 	sub	r12,sp,-92
80003010:	f0 1f 00 31 	mcall	800030d4 <gui_loadingScreen+0x198>
80003014:	0c 9a       	mov	r10,r6
80003016:	4b 8b       	lddpc	r11,800030f4 <gui_loadingScreen+0x1b8>
80003018:	fa cc ff a0 	sub	r12,sp,-96
8000301c:	f0 1f 00 2e 	mcall	800030d4 <gui_loadingScreen+0x198>
80003020:	41 68       	lddsp	r8,sp[0x58]
80003022:	1a d8       	st.w	--sp,r8
80003024:	41 88       	lddsp	r8,sp[0x60]
80003026:	1a d8       	st.w	--sp,r8
80003028:	41 a8       	lddsp	r8,sp[0x68]
8000302a:	1a d8       	st.w	--sp,r8
8000302c:	30 1c       	mov	r12,1
8000302e:	f0 1f 00 30 	mcall	800030ec <gui_loadingScreen+0x1b0>
	gfx_DrawCircle((Vector2){100,100},40,5,(Color){RED});
80003032:	51 c7       	stdsp	sp[0x70],r7
80003034:	fb 54 00 70 	st.h	sp[112],r4
80003038:	2f 8d       	sub	sp,-32
8000303a:	0c 9a       	mov	r10,r6
8000303c:	4a fb       	lddpc	r11,800030f8 <gui_loadingScreen+0x1bc>
8000303e:	fa cc ff ac 	sub	r12,sp,-84
80003042:	f0 1f 00 25 	mcall	800030d4 <gui_loadingScreen+0x198>
80003046:	41 48       	lddsp	r8,sp[0x50]
80003048:	1a d8       	st.w	--sp,r8
8000304a:	41 68       	lddsp	r8,sp[0x58]
8000304c:	1a d8       	st.w	--sp,r8
8000304e:	30 5b       	mov	r11,5
80003050:	32 8c       	mov	r12,40
80003052:	f0 1f 00 23 	mcall	800030dc <gui_loadingScreen+0x1a0>
	gfx_DrawLine((Vector2){99,99}, (Vector2){150, 186}, (Color){WHITE}, 15);
80003056:	51 87       	stdsp	sp[0x60],r7
80003058:	fb 55 00 60 	st.h	sp[96],r5
8000305c:	0c 9a       	mov	r10,r6
8000305e:	4a 8b       	lddpc	r11,800030fc <gui_loadingScreen+0x1c0>
80003060:	fa cc ff 9c 	sub	r12,sp,-100
80003064:	f0 1f 00 1c 	mcall	800030d4 <gui_loadingScreen+0x198>
80003068:	0c 9a       	mov	r10,r6
8000306a:	4a 6b       	lddpc	r11,80003100 <gui_loadingScreen+0x1c4>
8000306c:	fa cc ff 98 	sub	r12,sp,-104
80003070:	f0 1f 00 19 	mcall	800030d4 <gui_loadingScreen+0x198>
80003074:	41 88       	lddsp	r8,sp[0x60]
80003076:	1a d8       	st.w	--sp,r8
80003078:	41 a8       	lddsp	r8,sp[0x68]
8000307a:	1a d8       	st.w	--sp,r8
8000307c:	41 c8       	lddsp	r8,sp[0x70]
8000307e:	1a d8       	st.w	--sp,r8
80003080:	30 fc       	mov	r12,15
80003082:	f0 1f 00 1b 	mcall	800030ec <gui_loadingScreen+0x1b0>
	char text[] = "LogoRetro.pixel";
80003086:	4a 08       	lddpc	r8,80003104 <gui_loadingScreen+0x1c8>
80003088:	fa c4 ff ec 	sub	r4,sp,-20
8000308c:	f0 ea 00 00 	ld.d	r10,r8[0]
80003090:	e8 eb 00 00 	st.d	r4[0],r10
80003094:	f0 e8 00 08 	ld.d	r8,r8[8]
80003098:	e8 e9 00 08 	st.d	r4[8],r8
	gfx_Label((Vector2){40,40}, text, sizeof(text)/sizeof(*text), Small, (Color){WHITE});
8000309c:	51 e7       	stdsp	sp[0x78],r7
8000309e:	fb 55 00 78 	st.h	sp[120],r5
800030a2:	0c 9a       	mov	r10,r6
800030a4:	49 9b       	lddpc	r11,80003108 <gui_loadingScreen+0x1cc>
800030a6:	fa cc ff 84 	sub	r12,sp,-124
800030aa:	f0 1f 00 0b 	mcall	800030d4 <gui_loadingScreen+0x198>
800030ae:	41 e8       	lddsp	r8,sp[0x78]
800030b0:	1a d8       	st.w	--sp,r8
800030b2:	42 08       	lddsp	r8,sp[0x80]
800030b4:	1a d8       	st.w	--sp,r8
800030b6:	0e 9a       	mov	r10,r7
800030b8:	31 0b       	mov	r11,16
800030ba:	08 9c       	mov	r12,r4
800030bc:	f0 1f 00 14 	mcall	8000310c <gui_loadingScreen+0x1d0>
800030c0:	2f 9d       	sub	sp,-28
}
800030c2:	2e 5d       	sub	sp,-108
800030c4:	d8 22       	popm	r4-r7,pc
800030c6:	00 00       	add	r0,r0
800030c8:	80 00       	ld.sh	r0,r0[0x0]
800030ca:	32 30       	mov	r0,35
800030cc:	80 00       	ld.sh	r0,r0[0x0]
800030ce:	33 a4       	mov	r4,58
800030d0:	80 00       	ld.sh	r0,r0[0x0]
800030d2:	76 d8       	ld.w	r8,r11[0x34]
800030d4:	80 00       	ld.sh	r0,r0[0x0]
800030d6:	3e 44       	mov	r4,-28
800030d8:	80 00       	ld.sh	r0,r0[0x0]
800030da:	76 88       	ld.w	r8,r11[0x20]
800030dc:	80 00       	ld.sh	r0,r0[0x0]
800030de:	28 10       	sub	r0,-127
800030e0:	80 00       	ld.sh	r0,r0[0x0]
800030e2:	76 a8       	ld.w	r8,r11[0x28]
800030e4:	80 00       	ld.sh	r0,r0[0x0]
800030e6:	76 c0       	ld.w	r0,r11[0x30]
800030e8:	80 00       	ld.sh	r0,r0[0x0]
800030ea:	76 d4       	ld.w	r4,r11[0x34]
800030ec:	80 00       	ld.sh	r0,r0[0x0]
800030ee:	26 74       	sub	r4,103
800030f0:	80 00       	ld.sh	r0,r0[0x0]
800030f2:	76 a0       	ld.w	r0,r11[0x28]
800030f4:	80 00       	ld.sh	r0,r0[0x0]
800030f6:	76 b4       	ld.w	r4,r11[0x2c]
800030f8:	80 00       	ld.sh	r0,r0[0x0]
800030fa:	76 f4       	ld.w	r4,r11[0x3c]
800030fc:	80 00       	ld.sh	r0,r0[0x0]
800030fe:	76 b8       	ld.w	r8,r11[0x2c]
80003100:	80 00       	ld.sh	r0,r0[0x0]
80003102:	76 f0       	ld.w	r0,r11[0x3c]
80003104:	80 00       	ld.sh	r0,r0[0x0]
80003106:	77 80       	ld.w	r0,r11[0x60]
80003108:	80 00       	ld.sh	r0,r0[0x0]
8000310a:	76 9c       	ld.w	r12,r11[0x24]
8000310c:	80 00       	ld.sh	r0,r0[0x0]
8000310e:	24 f4       	sub	r4,79

80003110 <gui_InitMenus>:
/* FUNCTIONS                                                            */
/************************************************************************/

void mainMenu(bool firstDraw);

bool gui_InitMenus(){
80003110:	eb cd 40 e0 	pushm	r5-r7,lr
80003114:	20 7d       	sub	sp,28
	menus = (Menu *) malloc(NBR_OF_MENU * sizeof(Menu));
80003116:	30 8c       	mov	r12,8
80003118:	f0 1f 00 26 	mcall	800031b0 <gui_InitMenus+0xa0>
8000311c:	4a 68       	lddpc	r8,800031b4 <gui_InitMenus+0xa4>
8000311e:	91 0c       	st.w	r8[0x0],r12
	
	if(menus == NULL){
80003120:	58 0c       	cp.w	r12,0
80003122:	c3 f1       	brne	800031a0 <gui_InitMenus+0x90>
		screen_SetPixels(Rect(0,0,320,240),(Color){BLACK});
80003124:	30 07       	mov	r7,0
80003126:	50 07       	stdsp	sp[0x0],r7
80003128:	e0 68 00 f0 	mov	r8,240
8000312c:	e0 69 01 40 	mov	r9,320
80003130:	0e 9a       	mov	r10,r7
80003132:	0e 9b       	mov	r11,r7
80003134:	fa cc ff fc 	sub	r12,sp,-4
80003138:	f0 1f 00 20 	mcall	800031b8 <gui_InitMenus+0xa8>
8000313c:	40 08       	lddsp	r8,sp[0x0]
8000313e:	1a d8       	st.w	--sp,r8
80003140:	fa e8 00 08 	ld.d	r8,sp[8]
80003144:	bb 29       	st.d	--sp,r8
80003146:	f0 1f 00 1e 	mcall	800031bc <gui_InitMenus+0xac>
		gfx_Label((Vector2){120,120},"gui_InitMenus();",16,Small, (Color){RED});
8000314a:	50 67       	stdsp	sp[0x18],r7
8000314c:	31 f6       	mov	r6,31
8000314e:	fb 56 00 18 	st.h	sp[24],r6
80003152:	30 45       	mov	r5,4
80003154:	0a 9a       	mov	r10,r5
80003156:	49 bb       	lddpc	r11,800031c0 <gui_InitMenus+0xb0>
80003158:	fa cc ff e4 	sub	r12,sp,-28
8000315c:	f0 1f 00 1a 	mcall	800031c4 <gui_InitMenus+0xb4>
80003160:	40 68       	lddsp	r8,sp[0x18]
80003162:	1a d8       	st.w	--sp,r8
80003164:	40 88       	lddsp	r8,sp[0x20]
80003166:	1a d8       	st.w	--sp,r8
80003168:	0e 9a       	mov	r10,r7
8000316a:	31 0b       	mov	r11,16
8000316c:	49 7c       	lddpc	r12,800031c8 <gui_InitMenus+0xb8>
8000316e:	f0 1f 00 18 	mcall	800031cc <gui_InitMenus+0xbc>
		gfx_Label((Vector2){110,120},"malloc failed",16,Small, (Color){RED});
80003172:	50 a7       	stdsp	sp[0x28],r7
80003174:	fb 56 00 28 	st.h	sp[40],r6
80003178:	0a 9a       	mov	r10,r5
8000317a:	49 6b       	lddpc	r11,800031d0 <gui_InitMenus+0xc0>
8000317c:	fa cc ff d4 	sub	r12,sp,-44
80003180:	f0 1f 00 11 	mcall	800031c4 <gui_InitMenus+0xb4>
80003184:	40 a8       	lddsp	r8,sp[0x28]
80003186:	1a d8       	st.w	--sp,r8
80003188:	40 c8       	lddsp	r8,sp[0x30]
8000318a:	1a d8       	st.w	--sp,r8
8000318c:	0e 9a       	mov	r10,r7
8000318e:	31 0b       	mov	r11,16
80003190:	49 1c       	lddpc	r12,800031d4 <gui_InitMenus+0xc4>
80003192:	f0 1f 00 0f 	mcall	800031cc <gui_InitMenus+0xbc>
80003196:	0e 9c       	mov	r12,r7
		return false;
80003198:	2f 9d       	sub	sp,-28
	for(uint8_t n = 0; n < NBR_OF_MENU; n++){
		menus[n].draw = mainMenu;
		menus[n].input = NULL;
	}
	return true;
}
8000319a:	2f 9d       	sub	sp,-28
8000319c:	e3 cd 80 e0 	ldm	sp++,r5-r7,pc
		gfx_Label((Vector2){110,120},"malloc failed",16,Small, (Color){RED});
		return false;
	}
	
	for(uint8_t n = 0; n < NBR_OF_MENU; n++){
		menus[n].draw = mainMenu;
800031a0:	48 e8       	lddpc	r8,800031d8 <gui_InitMenus+0xc8>
800031a2:	99 08       	st.w	r12[0x0],r8
		menus[n].input = NULL;
800031a4:	48 48       	lddpc	r8,800031b4 <gui_InitMenus+0xa4>
800031a6:	70 08       	ld.w	r8,r8[0x0]
800031a8:	30 09       	mov	r9,0
800031aa:	91 19       	st.w	r8[0x4],r9
800031ac:	30 1c       	mov	r12,1
800031ae:	cf 6b       	rjmp	8000319a <gui_InitMenus+0x8a>
800031b0:	80 00       	ld.sh	r0,r0[0x0]
800031b2:	3a 18       	mov	r8,-95
800031b4:	00 00       	add	r0,r0
800031b6:	06 28       	rsub	r8,r3
800031b8:	80 00       	ld.sh	r0,r0[0x0]
800031ba:	32 30       	mov	r0,35
800031bc:	80 00       	ld.sh	r0,r0[0x0]
800031be:	33 a4       	mov	r4,58
800031c0:	80 00       	ld.sh	r0,r0[0x0]
800031c2:	76 d0       	ld.w	r0,r11[0x34]
800031c4:	80 00       	ld.sh	r0,r0[0x0]
800031c6:	3e 44       	mov	r4,-28
800031c8:	80 00       	ld.sh	r0,r0[0x0]
800031ca:	77 90       	ld.w	r0,r11[0x64]
800031cc:	80 00       	ld.sh	r0,r0[0x0]
800031ce:	24 f4       	sub	r4,79
800031d0:	80 00       	ld.sh	r0,r0[0x0]
800031d2:	76 a4       	ld.w	r4,r11[0x28]
800031d4:	80 00       	ld.sh	r0,r0[0x0]
800031d6:	77 a4       	ld.w	r4,r11[0x68]
800031d8:	80 00       	ld.sh	r0,r0[0x0]
800031da:	2a b0       	sub	r0,-85

800031dc <rectangle_GetArea>:

uint8_t  rectangle_GetHeight(Rectangle rect){
	return rect.topRight.y - rect.bottomLeft.y;
}

uint32_t rectangle_GetArea(Rectangle rect){
800031dc:	eb cd 00 10 	pushm	r4
800031e0:	20 1d       	sub	sp,4
800031e2:	fa c4 ff f8 	sub	r4,sp,-8
	volatile uint32_t value = (uint32_t)(rect.topRight.x - rect.bottomLeft.x +1)*(uint32_t)(rect.topRight.y - rect.bottomLeft.y +1);
800031e6:	09 e9       	ld.ub	r9,r4[0x6]
800031e8:	2f f9       	sub	r9,-1
800031ea:	09 aa       	ld.ub	r10,r4[0x2]
800031ec:	14 19       	sub	r9,r10
800031ee:	88 a8       	ld.uh	r8,r4[0x4]
800031f0:	2f f8       	sub	r8,-1
800031f2:	88 8a       	ld.uh	r10,r4[0x0]
800031f4:	14 18       	sub	r8,r10
800031f6:	f2 08 02 48 	mul	r8,r9,r8
800031fa:	50 08       	stdsp	sp[0x0],r8
	return value;
800031fc:	40 0c       	lddsp	r12,sp[0x0]
}
800031fe:	2f fd       	sub	sp,-4
80003200:	e3 cd 00 10 	ldm	sp++,r4
80003204:	5e fc       	retal	r12

80003206 <rectangle_VerifySize>:

void rectangle_VerifySize(Rectangle *rect, uint16_t maxWidth, uint8_t maxHeight){
	if(rect->bottomLeft.x > maxWidth)
80003206:	98 08       	ld.sh	r8,r12[0x0]
		rect->bottomLeft.x = maxWidth;
80003208:	f6 08 19 00 	cp.h	r8,r11
8000320c:	f9 fb bc 00 	st.hhi	r12[0x0],r11

	if(rect->topRight.x > maxWidth)
80003210:	98 28       	ld.sh	r8,r12[0x4]
		rect->topRight.x = maxWidth;
80003212:	f6 08 19 00 	cp.h	r8,r11
80003216:	f9 fb bc 02 	st.hhi	r12[0x4],r11

	if(rect->bottomLeft.y > maxHeight)
8000321a:	19 a8       	ld.ub	r8,r12[0x2]
		rect->bottomLeft.y = maxHeight;
8000321c:	f4 08 18 00 	cp.b	r8,r10
80003220:	f9 fa be 02 	st.bhi	r12[0x2],r10

	if(rect->topRight.y > maxHeight)
80003224:	19 e8       	ld.ub	r8,r12[0x6]
		rect->topRight.y = maxHeight;
80003226:	f4 08 18 00 	cp.b	r8,r10
8000322a:	f9 fa be 06 	st.bhi	r12[0x6],r10
8000322e:	5e fc       	retal	r12

80003230 <Rect>:
	//if(rect->topRight.y == rect->bottomLeft.y)
		//rect->topRight.y++;
}


Rectangle Rect(uint16_t x1, uint8_t y1, uint16_t x2, uint8_t y2){
80003230:	d4 01       	pushm	lr
80003232:	18 9e       	mov	lr,r12
	//Vector2 tl = {x1,y1};
	//Vector2 br = {x2, y2};
	//Rectangle r = {tl, br};
	return (Rectangle){{x1,y1},{x2,y2}};
80003234:	b8 0b       	st.h	r12[0x0],r11
80003236:	b8 aa       	st.b	r12[0x2],r10
80003238:	b8 29       	st.h	r12[0x4],r9
8000323a:	b8 e8       	st.b	r12[0x6],r8
8000323c:	d8 02       	popm	pc
8000323e:	d7 03       	nop

80003240 <_writeRegister>:
	spi_unselectChip(SCREEN_SPI, SCREEN_SPI_NPCS);
	
	_setLimits(Rect(0,0,SCREEN_WIDTH,SCREEN_HEIGHT));
}

static void _writeRegister(uint8_t reg, uint16_t data){
80003240:	eb cd 40 c0 	pushm	r6-r7,lr
80003244:	18 96       	mov	r6,r12
80003246:	16 97       	mov	r7,r11
	spi_selectChip(SCREEN_SPI, SCREEN_SPI_NPCS);		//Chip Select adresse du TFT.
80003248:	30 0b       	mov	r11,0
8000324a:	fe 7c 24 00 	mov	r12,-56320
8000324e:	f0 1f 00 1a 	mcall	800032b4 <_writeRegister+0x74>
	spi_write(SCREEN_SPI, LCD_ID_WRITE_INDEX);
80003252:	37 0b       	mov	r11,112
80003254:	fe 7c 24 00 	mov	r12,-56320
80003258:	f0 1f 00 18 	mcall	800032b8 <_writeRegister+0x78>
	spi_write(SCREEN_SPI, 0x00);					// Adresse LSB
8000325c:	30 0b       	mov	r11,0
8000325e:	fe 7c 24 00 	mov	r12,-56320
80003262:	f0 1f 00 16 	mcall	800032b8 <_writeRegister+0x78>
	spi_write(SCREEN_SPI, reg);					// Adresse MSB
80003266:	0c 9b       	mov	r11,r6
80003268:	fe 7c 24 00 	mov	r12,-56320
8000326c:	f0 1f 00 13 	mcall	800032b8 <_writeRegister+0x78>
	spi_unselectChip(SCREEN_SPI, SCREEN_SPI_NPCS);
80003270:	30 0b       	mov	r11,0
80003272:	fe 7c 24 00 	mov	r12,-56320
80003276:	f0 1f 00 12 	mcall	800032bc <_writeRegister+0x7c>

	spi_selectChip(SCREEN_SPI, SCREEN_SPI_NPCS);		//Chip Select adresse du TFT.
8000327a:	30 0b       	mov	r11,0
8000327c:	fe 7c 24 00 	mov	r12,-56320
80003280:	f0 1f 00 0d 	mcall	800032b4 <_writeRegister+0x74>
	spi_write(SCREEN_SPI, LCD_ID_WRITE_GRAM);
80003284:	37 2b       	mov	r11,114
80003286:	fe 7c 24 00 	mov	r12,-56320
8000328a:	f0 1f 00 0c 	mcall	800032b8 <_writeRegister+0x78>
	spi_write(SCREEN_SPI, (uint8_t) (data >> 8));
8000328e:	f7 d7 c1 08 	bfextu	r11,r7,0x8,0x8
80003292:	fe 7c 24 00 	mov	r12,-56320
80003296:	f0 1f 00 09 	mcall	800032b8 <_writeRegister+0x78>
	spi_write(SCREEN_SPI, (uint8_t) (data & 0x00ff));
8000329a:	0e 9b       	mov	r11,r7
8000329c:	5c 5b       	castu.b	r11
8000329e:	fe 7c 24 00 	mov	r12,-56320
800032a2:	f0 1f 00 06 	mcall	800032b8 <_writeRegister+0x78>
	spi_unselectChip(SCREEN_SPI, SCREEN_SPI_NPCS);
800032a6:	30 0b       	mov	r11,0
800032a8:	fe 7c 24 00 	mov	r12,-56320
800032ac:	f0 1f 00 04 	mcall	800032bc <_writeRegister+0x7c>
}
800032b0:	e3 cd 80 c0 	ldm	sp++,r6-r7,pc
800032b4:	80 00       	ld.sh	r0,r0[0x0]
800032b6:	23 66       	sub	r6,54
800032b8:	80 00       	ld.sh	r0,r0[0x0]
800032ba:	24 96       	sub	r6,73
800032bc:	80 00       	ld.sh	r0,r0[0x0]
800032be:	23 b2       	sub	r2,59

800032c0 <_setStart>:
	spi_write( SCREEN_SPI, (uint8_t)(data >> 8));
	spi_write( SCREEN_SPI, (uint8_t)(data & 0x00ff));
	spi_unselectChip(SCREEN_SPI, SCREEN_SPI_NPCS);
}

static void _setStart(Vector2 position){
800032c0:	eb cd 40 10 	pushm	r4,lr
800032c4:	fa c4 ff f8 	sub	r4,sp,-8
	_writeRegister(R61580_ADDRESS_HORIZONTAL, position.y);
800032c8:	09 ab       	ld.ub	r11,r4[0x2]
800032ca:	32 0c       	mov	r12,32
800032cc:	f0 1f 00 04 	mcall	800032dc <_setStart+0x1c>
	_writeRegister(R61580_ADDRESS_VERTICAL	, position.x);
800032d0:	88 8b       	ld.uh	r11,r4[0x0]
800032d2:	32 1c       	mov	r12,33
800032d4:	f0 1f 00 02 	mcall	800032dc <_setStart+0x1c>
}
800032d8:	e3 cd 80 10 	ldm	sp++,r4,pc
800032dc:	80 00       	ld.sh	r0,r0[0x0]
800032de:	32 40       	mov	r0,36

800032e0 <_setLimits>:

static void _setLimits(Rectangle rect){
800032e0:	eb cd 40 10 	pushm	r4,lr
800032e4:	fa c4 ff f8 	sub	r4,sp,-8
	_writeRegister(R61580_ADD_HSA, rect.bottomLeft.y);
800032e8:	09 ab       	ld.ub	r11,r4[0x2]
800032ea:	35 0c       	mov	r12,80
800032ec:	f0 1f 00 08 	mcall	8000330c <_setLimits+0x2c>
	_writeRegister(R61580_ADD_HEA, rect.topRight.y);
800032f0:	09 eb       	ld.ub	r11,r4[0x6]
800032f2:	35 1c       	mov	r12,81
800032f4:	f0 1f 00 06 	mcall	8000330c <_setLimits+0x2c>
	_writeRegister(R61580_ADD_VSA, rect.bottomLeft.x);
800032f8:	88 8b       	ld.uh	r11,r4[0x0]
800032fa:	35 2c       	mov	r12,82
800032fc:	f0 1f 00 04 	mcall	8000330c <_setLimits+0x2c>
	_writeRegister(R61580_ADD_VEA, rect.topRight.x);
80003300:	88 ab       	ld.uh	r11,r4[0x4]
80003302:	35 2c       	mov	r12,82
80003304:	f0 1f 00 02 	mcall	8000330c <_setLimits+0x2c>
}
80003308:	e3 cd 80 10 	ldm	sp++,r4,pc
8000330c:	80 00       	ld.sh	r0,r0[0x0]
8000330e:	32 40       	mov	r0,36

80003310 <_selectRegister>:

	data = data_low + (data_high << 8);
	return data;
}

static void _selectRegister(uint8_t address){
80003310:	eb cd 40 80 	pushm	r7,lr
80003314:	18 97       	mov	r7,r12
	spi_selectChip(SCREEN_SPI, SCREEN_SPI_NPCS);
80003316:	30 0b       	mov	r11,0
80003318:	fe 7c 24 00 	mov	r12,-56320
8000331c:	f0 1f 00 0c 	mcall	8000334c <_selectRegister+0x3c>
	spi_write(SCREEN_SPI, LCD_ID_WRITE_INDEX);
80003320:	37 0b       	mov	r11,112
80003322:	fe 7c 24 00 	mov	r12,-56320
80003326:	f0 1f 00 0b 	mcall	80003350 <_selectRegister+0x40>
	spi_write(SCREEN_SPI, 0x00);
8000332a:	30 0b       	mov	r11,0
8000332c:	fe 7c 24 00 	mov	r12,-56320
80003330:	f0 1f 00 08 	mcall	80003350 <_selectRegister+0x40>
	spi_write(SCREEN_SPI, address);
80003334:	0e 9b       	mov	r11,r7
80003336:	fe 7c 24 00 	mov	r12,-56320
8000333a:	f0 1f 00 06 	mcall	80003350 <_selectRegister+0x40>
	spi_unselectChip(SCREEN_SPI, SCREEN_SPI_NPCS);
8000333e:	30 0b       	mov	r11,0
80003340:	fe 7c 24 00 	mov	r12,-56320
80003344:	f0 1f 00 04 	mcall	80003354 <_selectRegister+0x44>
}
80003348:	e3 cd 80 80 	ldm	sp++,r7,pc
8000334c:	80 00       	ld.sh	r0,r0[0x0]
8000334e:	23 66       	sub	r6,54
80003350:	80 00       	ld.sh	r0,r0[0x0]
80003352:	24 96       	sub	r6,73
80003354:	80 00       	ld.sh	r0,r0[0x0]
80003356:	23 b2       	sub	r2,59

80003358 <_writeRAM>:
	_writeRegister(R61580_PANEL_CONTROL3, 0x0701);		// Sets VCOM equalize period
	
	_writeRegister(R61580_DISPLAY_CONTROL1, 0x0100);		//Display Control 1
}

static void _writeRAM(uint16_t data){
80003358:	eb cd 40 80 	pushm	r7,lr
8000335c:	18 97       	mov	r7,r12
	spi_selectChip(SCREEN_SPI, SCREEN_SPI_NPCS);
8000335e:	30 0b       	mov	r11,0
80003360:	fe 7c 24 00 	mov	r12,-56320
80003364:	f0 1f 00 0d 	mcall	80003398 <_writeRAM+0x40>
	spi_write( SCREEN_SPI, LCD_ID_WRITE_GRAM);
80003368:	37 2b       	mov	r11,114
8000336a:	fe 7c 24 00 	mov	r12,-56320
8000336e:	f0 1f 00 0c 	mcall	8000339c <_writeRAM+0x44>

	spi_write( SCREEN_SPI, (uint8_t)(data >> 8));
80003372:	f7 d7 c1 08 	bfextu	r11,r7,0x8,0x8
80003376:	fe 7c 24 00 	mov	r12,-56320
8000337a:	f0 1f 00 09 	mcall	8000339c <_writeRAM+0x44>
	spi_write( SCREEN_SPI, (uint8_t)(data & 0x00ff));
8000337e:	0e 9b       	mov	r11,r7
80003380:	5c 5b       	castu.b	r11
80003382:	fe 7c 24 00 	mov	r12,-56320
80003386:	f0 1f 00 06 	mcall	8000339c <_writeRAM+0x44>
	spi_unselectChip(SCREEN_SPI, SCREEN_SPI_NPCS);
8000338a:	30 0b       	mov	r11,0
8000338c:	fe 7c 24 00 	mov	r12,-56320
80003390:	f0 1f 00 04 	mcall	800033a0 <_writeRAM+0x48>
}
80003394:	e3 cd 80 80 	ldm	sp++,r7,pc
80003398:	80 00       	ld.sh	r0,r0[0x0]
8000339a:	23 66       	sub	r6,54
8000339c:	80 00       	ld.sh	r0,r0[0x0]
8000339e:	24 96       	sub	r6,73
800033a0:	80 00       	ld.sh	r0,r0[0x0]
800033a2:	23 b2       	sub	r2,59

800033a4 <screen_SetPixels>:
	_selectRegister(R61580_DATA_WRITE);
	_writeRAM(color.value);
	spi_unselectChip(SCREEN_SPI,SCREEN_SPI_NPCS);
}

void screen_SetPixels(Rectangle rect, Color color){
800033a4:	eb cd 40 d0 	pushm	r4,r6-r7,lr
800033a8:	20 3d       	sub	sp,12
800033aa:	fa c4 ff e4 	sub	r4,sp,-28
	rectangle_VerifySize(&rect, SCREEN_WIDTH, SCREEN_HEIGHT);
800033ae:	e0 6a 00 f0 	mov	r10,240
800033b2:	e0 6b 01 40 	mov	r11,320
800033b6:	08 9c       	mov	r12,r4
800033b8:	f0 1f 00 1b 	mcall	80003424 <screen_SetPixels+0x80>

	_setLimits(rect);
800033bc:	e8 e8 00 00 	ld.d	r8,r4[0]
800033c0:	bb 29       	st.d	--sp,r8
800033c2:	f0 1f 00 1a 	mcall	80003428 <screen_SetPixels+0x84>
	_setStart(rect.bottomLeft);
800033c6:	68 08       	ld.w	r8,r4[0x0]
800033c8:	1a d8       	st.w	--sp,r8
800033ca:	f0 1f 00 19 	mcall	8000342c <screen_SetPixels+0x88>

	_selectRegister(R61580_DATA_WRITE);
800033ce:	32 2c       	mov	r12,34
800033d0:	f0 1f 00 18 	mcall	80003430 <screen_SetPixels+0x8c>
	volatile c = rectangle_GetArea(rect);
800033d4:	e8 e8 00 00 	ld.d	r8,r4[0]
800033d8:	bb 29       	st.d	--sp,r8
800033da:	f0 1f 00 17 	mcall	80003434 <screen_SetPixels+0x90>
800033de:	50 5c       	stdsp	sp[0x14],r12
	for(uint32_t count = c; count > 0; count--){
800033e0:	40 57       	lddsp	r7,sp[0x14]
800033e2:	2f bd       	sub	sp,-20
800033e4:	58 07       	cp.w	r7,0
800033e6:	c0 70       	breq	800033f4 <screen_SetPixels+0x50>
		_writeRAM(color.value);
800033e8:	88 c6       	ld.uh	r6,r4[0x8]
800033ea:	0c 9c       	mov	r12,r6
800033ec:	f0 1f 00 13 	mcall	80003438 <screen_SetPixels+0x94>
	_setLimits(rect);
	_setStart(rect.bottomLeft);

	_selectRegister(R61580_DATA_WRITE);
	volatile c = rectangle_GetArea(rect);
	for(uint32_t count = c; count > 0; count--){
800033f0:	20 17       	sub	r7,1
800033f2:	cf c1       	brne	800033ea <screen_SetPixels+0x46>
		_writeRAM(color.value);
	}

	spi_unselectChip(SCREEN_SPI, SCREEN_SPI_NPCS);
800033f4:	30 0b       	mov	r11,0
800033f6:	fe 7c 24 00 	mov	r12,-56320
800033fa:	f0 1f 00 11 	mcall	8000343c <screen_SetPixels+0x98>
	
	_setLimits(Rect(0,0,SCREEN_WIDTH,SCREEN_HEIGHT));
800033fe:	e0 68 00 f0 	mov	r8,240
80003402:	e0 69 01 40 	mov	r9,320
80003406:	30 0a       	mov	r10,0
80003408:	14 9b       	mov	r11,r10
8000340a:	fa cc ff fc 	sub	r12,sp,-4
8000340e:	f0 1f 00 0d 	mcall	80003440 <screen_SetPixels+0x9c>
80003412:	fa e8 00 04 	ld.d	r8,sp[4]
80003416:	bb 29       	st.d	--sp,r8
80003418:	f0 1f 00 04 	mcall	80003428 <screen_SetPixels+0x84>
8000341c:	2f ed       	sub	sp,-8
}
8000341e:	2f dd       	sub	sp,-12
80003420:	e3 cd 80 d0 	ldm	sp++,r4,r6-r7,pc
80003424:	80 00       	ld.sh	r0,r0[0x0]
80003426:	32 06       	mov	r6,32
80003428:	80 00       	ld.sh	r0,r0[0x0]
8000342a:	32 e0       	mov	r0,46
8000342c:	80 00       	ld.sh	r0,r0[0x0]
8000342e:	32 c0       	mov	r0,44
80003430:	80 00       	ld.sh	r0,r0[0x0]
80003432:	33 10       	mov	r0,49
80003434:	80 00       	ld.sh	r0,r0[0x0]
80003436:	31 dc       	mov	r12,29
80003438:	80 00       	ld.sh	r0,r0[0x0]
8000343a:	33 58       	mov	r8,53
8000343c:	80 00       	ld.sh	r0,r0[0x0]
8000343e:	23 b2       	sub	r2,59
80003440:	80 00       	ld.sh	r0,r0[0x0]
80003442:	32 30       	mov	r0,35

80003444 <screen_SetPixel>:
void screen_TouchZone(Rectangle rect, void *callback(void)){


}

void screen_SetPixel(Vector2 position, Color color){
80003444:	eb cd 40 10 	pushm	r4,lr
80003448:	fa c4 ff f8 	sub	r4,sp,-8
	_setStart(position);
8000344c:	68 08       	ld.w	r8,r4[0x0]
8000344e:	1a d8       	st.w	--sp,r8
80003450:	f0 1f 00 08 	mcall	80003470 <screen_SetPixel+0x2c>
	_selectRegister(R61580_DATA_WRITE);
80003454:	32 2c       	mov	r12,34
80003456:	f0 1f 00 08 	mcall	80003474 <screen_SetPixel+0x30>
	_writeRAM(color.value);
8000345a:	88 ac       	ld.uh	r12,r4[0x4]
8000345c:	f0 1f 00 07 	mcall	80003478 <screen_SetPixel+0x34>
	spi_unselectChip(SCREEN_SPI,SCREEN_SPI_NPCS);
80003460:	30 0b       	mov	r11,0
80003462:	fe 7c 24 00 	mov	r12,-56320
80003466:	f0 1f 00 06 	mcall	8000347c <screen_SetPixel+0x38>
8000346a:	2f fd       	sub	sp,-4
}
8000346c:	e3 cd 80 10 	ldm	sp++,r4,pc
80003470:	80 00       	ld.sh	r0,r0[0x0]
80003472:	32 c0       	mov	r0,44
80003474:	80 00       	ld.sh	r0,r0[0x0]
80003476:	33 10       	mov	r0,49
80003478:	80 00       	ld.sh	r0,r0[0x0]
8000347a:	33 58       	mov	r8,53
8000347c:	80 00       	ld.sh	r0,r0[0x0]
8000347e:	23 b2       	sub	r2,59

80003480 <screen_Init>:

static void _powerUp();
static void _reset();
static void _setPWM();

void screen_Init(){
80003480:	eb cd 40 80 	pushm	r7,lr
80003484:	21 8d       	sub	sp,96
	{
		{PIN_SCK_SPI0,  FCT_SCK_SPI0 },			// SPI Clock.
		{PIN_MISO_SPI0, FCT_MISO_SPI0},			// MISO.
		{PIN_MOSI_SPI0, FCT_MOSI_SPI0},			// MOSI.
		{PIN_NPCS_TFT,  FCT_NPCS_TFT}			// Chip Select NPCS0 pour l'cran TFT.
	};
80003486:	fe f8 03 a2 	ld.w	r8,pc[930]
8000348a:	fa cc ff c0 	sub	r12,sp,-64
8000348e:	f0 ea 00 00 	ld.d	r10,r8[0]
80003492:	f8 eb 00 00 	st.d	r12[0],r10
80003496:	f0 ea 00 08 	ld.d	r10,r8[8]
8000349a:	f8 eb 00 08 	st.d	r12[8],r10
8000349e:	f0 ea 00 10 	ld.d	r10,r8[16]
800034a2:	f8 eb 00 10 	st.d	r12[16],r10
800034a6:	f0 e8 00 18 	ld.d	r8,r8[24]
800034aa:	f8 e9 00 18 	st.d	r12[24],r8
		.spck_delay		= 	1,					// Delay entre CS et SPCK.
		.trans_delay	= 	0,					// Delay entre deux transfert.
		.stay_act		=	1,					// ?
		.spi_mode		= 	3,					// ?
		.modfdis		=	1					// ?
	};
800034ae:	fe f8 03 7e 	ld.w	r8,pc[894]
800034b2:	fa c7 ff d0 	sub	r7,sp,-48
800034b6:	f0 ea 00 00 	ld.d	r10,r8[0]
800034ba:	ee eb 00 00 	st.d	r7[0],r10
800034be:	f0 e8 00 08 	ld.d	r8,r8[8]
800034c2:	ee e9 00 08 	st.d	r7[8],r8

	// Assign I/Os to SPI.
	gpio_enable_module(screenGPIO, sizeof(screenGPIO) / sizeof(screenGPIO[0]));
800034c6:	30 4b       	mov	r11,4
800034c8:	f0 1f 00 da 	mcall	80003830 <screen_Init+0x3b0>
	// Initialize as master.
	spi_initMaster(AVR32_SPI0_ADDRESS, &screenOptions);
800034cc:	0e 9b       	mov	r11,r7
800034ce:	fe 7c 24 00 	mov	r12,-56320
800034d2:	f0 1f 00 d9 	mcall	80003834 <screen_Init+0x3b4>
	// Enable SPI module.
	spi_enable(AVR32_SPI0_ADDRESS);
800034d6:	fe 7c 24 00 	mov	r12,-56320
800034da:	f0 1f 00 d8 	mcall	80003838 <screen_Init+0x3b8>
	// Initialize SD/MMC driver with SPI clock (PBA).
	spi_setupChipReg(AVR32_SPI0_ADDRESS, &screenOptions, BOARD_OSC0_HZ);
800034de:	e0 6a 90 00 	mov	r10,36864
800034e2:	ea 1a 03 d0 	orh	r10,0x3d0
800034e6:	0e 9b       	mov	r11,r7
800034e8:	fe 7c 24 00 	mov	r12,-56320
800034ec:	f0 1f 00 d4 	mcall	8000383c <screen_Init+0x3bc>
	_writeRegister(R61580_ADD_VSA, rect.bottomLeft.x);
	_writeRegister(R61580_ADD_VEA, rect.topRight.x);
}

static void _reset(){
	gpio_clr_gpio_pin(PIN_RESET_TFT);
800034f0:	30 ec       	mov	r12,14
800034f2:	f0 1f 00 d4 	mcall	80003840 <screen_Init+0x3c0>
 * \param  delay:   (input) delay in CPU cycles before timeout.
 * \param  cpu_time: (output) internal information used by the timer API.
 */
__always_inline static void cpu_set_timeout(unsigned long delay, t_cpu_time *cpu_time)
{
  cpu_time->delay_start_cycle = Get_system_register(AVR32_COUNT);
800034f6:	e1 b8 00 42 	mfsr	r8,0x108
  cpu_time->delay_end_cycle   = cpu_time->delay_start_cycle + delay;
800034fa:	e0 6a a8 00 	mov	r10,43008
800034fe:	ea 1a 00 61 	orh	r10,0x61
80003502:	f0 0a 00 0a 	add	r10,r8,r10
 *
 * \return true if timeout occurred, otherwise false.
 */
__always_inline static unsigned long cpu_is_timeout(t_cpu_time *cpu_time)
{
  unsigned long current_cycle_count = Get_system_register(AVR32_COUNT);
80003506:	e1 b9 00 42 	mfsr	r9,0x108
  // Test if the timeout as already occurred.
  else if (cpu_time->timer_state == CPU_TIMER_STATE_REACHED)
    return true;

  // If the ending cycle count of this timeout is wrapped, ...
  else if (cpu_time->delay_start_cycle > cpu_time->delay_end_cycle)
8000350a:	14 38       	cp.w	r8,r10
8000350c:	e0 88 00 08 	brls	8000351c <screen_Init+0x9c>
  {
    if (current_cycle_count < cpu_time->delay_start_cycle && current_cycle_count > cpu_time->delay_end_cycle)
80003510:	12 38       	cp.w	r8,r9
80003512:	fe 98 ff fa 	brls	80003506 <screen_Init+0x86>
80003516:	12 3a       	cp.w	r10,r9
80003518:	c4 e3       	brcs	800035b4 <screen_Init+0x134>
8000351a:	cf 6b       	rjmp	80003506 <screen_Init+0x86>
    }
    return false;
  }
  else
  {
    if (current_cycle_count < cpu_time->delay_start_cycle || current_cycle_count > cpu_time->delay_end_cycle)
8000351c:	12 38       	cp.w	r8,r9
8000351e:	e0 8b 00 4b 	brhi	800035b4 <screen_Init+0x134>
80003522:	12 3a       	cp.w	r10,r9
80003524:	c4 83       	brcs	800035b4 <screen_Init+0x134>
80003526:	cf 0b       	rjmp	80003506 <screen_Init+0x86>
 *
 * \return true if timeout occurred, otherwise false.
 */
__always_inline static unsigned long cpu_is_timeout(t_cpu_time *cpu_time)
{
  unsigned long current_cycle_count = Get_system_register(AVR32_COUNT);
80003528:	e1 b9 00 42 	mfsr	r9,0x108
  // Test if the timeout as already occurred.
  else if (cpu_time->timer_state == CPU_TIMER_STATE_REACHED)
    return true;

  // If the ending cycle count of this timeout is wrapped, ...
  else if (cpu_time->delay_start_cycle > cpu_time->delay_end_cycle)
8000352c:	14 38       	cp.w	r8,r10
8000352e:	e0 88 00 08 	brls	8000353e <screen_Init+0xbe>
  {
    if (current_cycle_count < cpu_time->delay_start_cycle && current_cycle_count > cpu_time->delay_end_cycle)
80003532:	12 38       	cp.w	r8,r9
80003534:	fe 98 ff fa 	brls	80003528 <screen_Init+0xa8>
80003538:	12 3a       	cp.w	r10,r9
8000353a:	c4 73       	brcs	800035c8 <screen_Init+0x148>
8000353c:	cf 6b       	rjmp	80003528 <screen_Init+0xa8>
    }
    return false;
  }
  else
  {
    if (current_cycle_count < cpu_time->delay_start_cycle || current_cycle_count > cpu_time->delay_end_cycle)
8000353e:	12 38       	cp.w	r8,r9
80003540:	e0 8b 00 44 	brhi	800035c8 <screen_Init+0x148>
80003544:	12 3a       	cp.w	r10,r9
80003546:	c4 13       	brcs	800035c8 <screen_Init+0x148>
80003548:	cf 0b       	rjmp	80003528 <screen_Init+0xa8>
 *
 * \return true if timeout occurred, otherwise false.
 */
__always_inline static unsigned long cpu_is_timeout(t_cpu_time *cpu_time)
{
  unsigned long current_cycle_count = Get_system_register(AVR32_COUNT);
8000354a:	e1 b9 00 42 	mfsr	r9,0x108
  // Test if the timeout as already occurred.
  else if (cpu_time->timer_state == CPU_TIMER_STATE_REACHED)
    return true;

  // If the ending cycle count of this timeout is wrapped, ...
  else if (cpu_time->delay_start_cycle > cpu_time->delay_end_cycle)
8000354e:	14 38       	cp.w	r8,r10
80003550:	e0 88 00 08 	brls	80003560 <screen_Init+0xe0>
  {
    if (current_cycle_count < cpu_time->delay_start_cycle && current_cycle_count > cpu_time->delay_end_cycle)
80003554:	12 38       	cp.w	r8,r9
80003556:	fe 98 ff fa 	brls	8000354a <screen_Init+0xca>
8000355a:	12 3a       	cp.w	r10,r9
8000355c:	c4 73       	brcs	800035ea <screen_Init+0x16a>
8000355e:	cf 6b       	rjmp	8000354a <screen_Init+0xca>
    }
    return false;
  }
  else
  {
    if (current_cycle_count < cpu_time->delay_start_cycle || current_cycle_count > cpu_time->delay_end_cycle)
80003560:	12 38       	cp.w	r8,r9
80003562:	e0 8b 00 44 	brhi	800035ea <screen_Init+0x16a>
80003566:	12 3a       	cp.w	r10,r9
80003568:	c4 13       	brcs	800035ea <screen_Init+0x16a>
8000356a:	cf 0b       	rjmp	8000354a <screen_Init+0xca>
 *
 * \return true if timeout occurred, otherwise false.
 */
__always_inline static unsigned long cpu_is_timeout(t_cpu_time *cpu_time)
{
  unsigned long current_cycle_count = Get_system_register(AVR32_COUNT);
8000356c:	e1 b9 00 42 	mfsr	r9,0x108
  // Test if the timeout as already occurred.
  else if (cpu_time->timer_state == CPU_TIMER_STATE_REACHED)
    return true;

  // If the ending cycle count of this timeout is wrapped, ...
  else if (cpu_time->delay_start_cycle > cpu_time->delay_end_cycle)
80003570:	14 38       	cp.w	r8,r10
80003572:	e0 88 00 08 	brls	80003582 <screen_Init+0x102>
  {
    if (current_cycle_count < cpu_time->delay_start_cycle && current_cycle_count > cpu_time->delay_end_cycle)
80003576:	12 38       	cp.w	r8,r9
80003578:	fe 98 ff fa 	brls	8000356c <screen_Init+0xec>
8000357c:	12 3a       	cp.w	r10,r9
8000357e:	c5 43       	brcs	80003626 <screen_Init+0x1a6>
80003580:	cf 6b       	rjmp	8000356c <screen_Init+0xec>
    }
    return false;
  }
  else
  {
    if (current_cycle_count < cpu_time->delay_start_cycle || current_cycle_count > cpu_time->delay_end_cycle)
80003582:	12 38       	cp.w	r8,r9
80003584:	e0 8b 00 51 	brhi	80003626 <screen_Init+0x1a6>
80003588:	12 3a       	cp.w	r10,r9
8000358a:	c4 e3       	brcs	80003626 <screen_Init+0x1a6>
8000358c:	cf 0b       	rjmp	8000356c <screen_Init+0xec>
 *
 * \return true if timeout occurred, otherwise false.
 */
__always_inline static unsigned long cpu_is_timeout(t_cpu_time *cpu_time)
{
  unsigned long current_cycle_count = Get_system_register(AVR32_COUNT);
8000358e:	e1 b9 00 42 	mfsr	r9,0x108
  // Test if the timeout as already occurred.
  else if (cpu_time->timer_state == CPU_TIMER_STATE_REACHED)
    return true;

  // If the ending cycle count of this timeout is wrapped, ...
  else if (cpu_time->delay_start_cycle > cpu_time->delay_end_cycle)
80003592:	14 38       	cp.w	r8,r10
80003594:	e0 88 00 09 	brls	800035a6 <screen_Init+0x126>
  {
    if (current_cycle_count < cpu_time->delay_start_cycle && current_cycle_count > cpu_time->delay_end_cycle)
80003598:	12 38       	cp.w	r8,r9
8000359a:	fe 98 ff fa 	brls	8000358e <screen_Init+0x10e>
8000359e:	12 3a       	cp.w	r10,r9
800035a0:	e0 83 00 a0 	brlo	800036e0 <screen_Init+0x260>
800035a4:	cf 5b       	rjmp	8000358e <screen_Init+0x10e>
    }
    return false;
  }
  else
  {
    if (current_cycle_count < cpu_time->delay_start_cycle || current_cycle_count > cpu_time->delay_end_cycle)
800035a6:	12 38       	cp.w	r8,r9
800035a8:	e0 8b 00 9c 	brhi	800036e0 <screen_Init+0x260>
800035ac:	12 3a       	cp.w	r10,r9
800035ae:	e0 83 00 99 	brlo	800036e0 <screen_Init+0x260>
800035b2:	ce eb       	rjmp	8000358e <screen_Init+0x10e>
	// 50us delay
	cpu_delay_ms( 100, BOARD_OSC0_HZ);

	gpio_set_gpio_pin(PIN_RESET_TFT);
800035b4:	30 ec       	mov	r12,14
800035b6:	f0 1f 00 a4 	mcall	80003844 <screen_Init+0x3c4>
 * \param  delay:   (input) delay in CPU cycles before timeout.
 * \param  cpu_time: (output) internal information used by the timer API.
 */
__always_inline static void cpu_set_timeout(unsigned long delay, t_cpu_time *cpu_time)
{
  cpu_time->delay_start_cycle = Get_system_register(AVR32_COUNT);
800035ba:	e1 b8 00 42 	mfsr	r8,0x108
  cpu_time->delay_end_cycle   = cpu_time->delay_start_cycle + delay;
800035be:	e4 69 e2 00 	mov	r9,320000
800035c2:	f0 09 00 0a 	add	r10,r8,r9
800035c6:	cb 1b       	rjmp	80003528 <screen_Init+0xa8>
	{
		ID = _readRegister(0x00);
	}
	
	// Synchronization after reset
	_writeRegister(R61580_DEVICE_CODE, 0x0000);
800035c8:	30 0b       	mov	r11,0
800035ca:	16 9c       	mov	r12,r11
800035cc:	f0 1f 00 9f 	mcall	80003848 <screen_Init+0x3c8>
	_writeRegister(R61580_DEVICE_CODE, 0x0000);
800035d0:	30 0b       	mov	r11,0
800035d2:	16 9c       	mov	r12,r11
800035d4:	f0 1f 00 9d 	mcall	80003848 <screen_Init+0x3c8>
 * \param  delay:   (input) delay in CPU cycles before timeout.
 * \param  cpu_time: (output) internal information used by the timer API.
 */
__always_inline static void cpu_set_timeout(unsigned long delay, t_cpu_time *cpu_time)
{
  cpu_time->delay_start_cycle = Get_system_register(AVR32_COUNT);
800035d8:	e1 b8 00 42 	mfsr	r8,0x108
  cpu_time->delay_end_cycle   = cpu_time->delay_start_cycle + delay;
800035dc:	e0 6a a8 00 	mov	r10,43008
800035e0:	ea 1a 00 61 	orh	r10,0x61
800035e4:	f0 0a 00 0a 	add	r10,r8,r10
800035e8:	cb 1b       	rjmp	8000354a <screen_Init+0xca>
	cpu_delay_ms(100, BOARD_OSC0_HZ);
	
	_writeRegister(R61580_DEVICE_CODE, 0x0000);
800035ea:	30 0b       	mov	r11,0
800035ec:	16 9c       	mov	r12,r11
800035ee:	f0 1f 00 97 	mcall	80003848 <screen_Init+0x3c8>
	_writeRegister(R61580_DEVICE_CODE, 0x0000);
800035f2:	30 0b       	mov	r11,0
800035f4:	16 9c       	mov	r12,r11
800035f6:	f0 1f 00 95 	mcall	80003848 <screen_Init+0x3c8>
	_writeRegister(R61580_DEVICE_CODE, 0x0000);
800035fa:	30 0b       	mov	r11,0
800035fc:	16 9c       	mov	r12,r11
800035fe:	f0 1f 00 93 	mcall	80003848 <screen_Init+0x3c8>
	_writeRegister(R61580_DEVICE_CODE, 0x0000);
80003602:	30 0b       	mov	r11,0
80003604:	16 9c       	mov	r12,r11
80003606:	f0 1f 00 91 	mcall	80003848 <screen_Init+0x3c8>
	// Setup display
	_writeRegister(R61580_NVM_CONTROL, (uint16_t) (1 << CALB));	// CALB=1
8000360a:	30 1b       	mov	r11,1
8000360c:	e0 6c 00 a4 	mov	r12,164
80003610:	f0 1f 00 8e 	mcall	80003848 <screen_Init+0x3c8>
 * \param  delay:   (input) delay in CPU cycles before timeout.
 * \param  cpu_time: (output) internal information used by the timer API.
 */
__always_inline static void cpu_set_timeout(unsigned long delay, t_cpu_time *cpu_time)
{
  cpu_time->delay_start_cycle = Get_system_register(AVR32_COUNT);
80003614:	e1 b8 00 42 	mfsr	r8,0x108
  cpu_time->delay_end_cycle   = cpu_time->delay_start_cycle + delay;
80003618:	e0 6a a8 00 	mov	r10,43008
8000361c:	ea 1a 00 61 	orh	r10,0x61
80003620:	f0 0a 00 0a 	add	r10,r8,r10
80003624:	ca 4b       	rjmp	8000356c <screen_Init+0xec>
	
	cpu_delay_ms(100, BOARD_OSC0_HZ);
	_writeRegister(R61580_DRIVER_OUTPUT, 0xA700);		// Driver Output Control
80003626:	e0 6b a7 00 	mov	r11,42752
8000362a:	36 0c       	mov	r12,96
8000362c:	f0 1f 00 87 	mcall	80003848 <screen_Init+0x3c8>
	_writeRegister(R61580_DISPLAY_CONTROL2, 0x0808);		// Display Control BP=8, FP=8
80003630:	e0 6b 08 08 	mov	r11,2056
80003634:	30 8c       	mov	r12,8
80003636:	f0 1f 00 85 	mcall	80003848 <screen_Init+0x3c8>
	
	//Gamma Setting:
	_writeRegister(R61580_Y_CONTROL0, 0x0203);		// y control
8000363a:	e0 6b 02 03 	mov	r11,515
8000363e:	33 0c       	mov	r12,48
80003640:	f0 1f 00 82 	mcall	80003848 <screen_Init+0x3c8>
	_writeRegister(R61580_Y_CONTROL1, 0x080F);		// y control
80003644:	e0 6b 08 0f 	mov	r11,2063
80003648:	33 1c       	mov	r12,49
8000364a:	f0 1f 00 80 	mcall	80003848 <screen_Init+0x3c8>
	_writeRegister(R61580_Y_CONTROL2, 0x0401);		// y control
8000364e:	e0 6b 04 01 	mov	r11,1025
80003652:	33 2c       	mov	r12,50
80003654:	f0 1f 00 7d 	mcall	80003848 <screen_Init+0x3c8>
	_writeRegister(R61580_Y_CONTROL3, 0x050B);		// y control
80003658:	e0 6b 05 0b 	mov	r11,1291
8000365c:	33 3c       	mov	r12,51
8000365e:	f0 1f 00 7b 	mcall	80003848 <screen_Init+0x3c8>
	_writeRegister(R61580_Y_CONTROL4, 0x3330);		// y control
80003662:	e0 6b 33 30 	mov	r11,13104
80003666:	33 4c       	mov	r12,52
80003668:	f0 1f 00 78 	mcall	80003848 <screen_Init+0x3c8>
	_writeRegister(R61580_Y_CONTROL5, 0x0B05);		// y control
8000366c:	e0 6b 0b 05 	mov	r11,2821
80003670:	33 5c       	mov	r12,53
80003672:	f0 1f 00 76 	mcall	80003848 <screen_Init+0x3c8>
	_writeRegister(R61580_Y_CONTROL6, 0x0005);		// y control
80003676:	30 5b       	mov	r11,5
80003678:	33 6c       	mov	r12,54
8000367a:	f0 1f 00 74 	mcall	80003848 <screen_Init+0x3c8>
	_writeRegister(R61580_Y_CONTROL7, 0x0F08);		// y control
8000367e:	e0 6b 0f 08 	mov	r11,3848
80003682:	33 7c       	mov	r12,55
80003684:	f0 1f 00 71 	mcall	80003848 <screen_Init+0x3c8>
	_writeRegister(R61580_Y_CONTROL8, 0x0302);		// y control
80003688:	e0 6b 03 02 	mov	r11,770
8000368c:	33 8c       	mov	r12,56
8000368e:	f0 1f 00 6f 	mcall	80003848 <screen_Init+0x3c8>
	_writeRegister(R61580_Y_CONTROL9, 0x3033);		// y control
80003692:	e0 6b 30 33 	mov	r11,12339
80003696:	33 9c       	mov	r12,57
80003698:	f0 1f 00 6c 	mcall	80003848 <screen_Init+0x3c8>
	
	//Power Setting:
	
	_writeRegister(R61580_PANEL_CONTROL1, 0x0018);	// 80Hz
8000369c:	31 8b       	mov	r11,24
8000369e:	e0 6c 00 90 	mov	r12,144
800036a2:	f0 1f 00 6a 	mcall	80003848 <screen_Init+0x3c8>
	_writeRegister(R61580_POWER_CONTROL1, 0x0530);	// Power Control
800036a6:	e0 6b 05 30 	mov	r11,1328
800036aa:	31 0c       	mov	r12,16
800036ac:	f0 1f 00 67 	mcall	80003848 <screen_Init+0x3c8>
	_writeRegister(R61580_POWER_CONTROL2, 0x0237);
800036b0:	e0 6b 02 37 	mov	r11,567
800036b4:	31 1c       	mov	r12,17
800036b6:	f0 1f 00 65 	mcall	80003848 <screen_Init+0x3c8>
	_writeRegister(R61580_POWER_CONTROL3, 0x01BF);
800036ba:	e0 6b 01 bf 	mov	r11,447
800036be:	31 2c       	mov	r12,18
800036c0:	f0 1f 00 62 	mcall	80003848 <screen_Init+0x3c8>
	_writeRegister(R61580_POWER_CONTROL4, 0x1000);
800036c4:	e0 6b 10 00 	mov	r11,4096
800036c8:	31 3c       	mov	r12,19
800036ca:	f0 1f 00 60 	mcall	80003848 <screen_Init+0x3c8>
 * \param  delay:   (input) delay in CPU cycles before timeout.
 * \param  cpu_time: (output) internal information used by the timer API.
 */
__always_inline static void cpu_set_timeout(unsigned long delay, t_cpu_time *cpu_time)
{
  cpu_time->delay_start_cycle = Get_system_register(AVR32_COUNT);
800036ce:	e1 b8 00 42 	mfsr	r8,0x108
  cpu_time->delay_end_cycle   = cpu_time->delay_start_cycle + delay;
800036d2:	e0 6a 50 00 	mov	r10,20480
800036d6:	ea 1a 00 c3 	orh	r10,0xc3
800036da:	f0 0a 00 0a 	add	r10,r8,r10
800036de:	c5 8b       	rjmp	8000358e <screen_Init+0x10e>
	
	cpu_delay_ms(200, BOARD_OSC0_HZ);

	_writeRegister(R61580_DRIVER_CONTROL, 0x0000  | (1 << SS));
800036e0:	e0 6b 01 00 	mov	r11,256
800036e4:	30 1c       	mov	r12,1
800036e6:	f0 1f 00 59 	mcall	80003848 <screen_Init+0x3c8>
	_writeRegister(R61580_WAVE_CONTROL, 0x0200);
800036ea:	e0 6b 02 00 	mov	r11,512
800036ee:	30 2c       	mov	r12,2
800036f0:	f0 1f 00 56 	mcall	80003848 <screen_Init+0x3c8>
	//_write(R61580_ENTRY_MODE, 0x0000 | (1 << ORG) | (1 << ID0) | (1 << AM));
	_writeRegister(R61580_ENTRY_MODE, 0x0000 | (1 << ID1) | (1 << ID0));
800036f4:	33 0b       	mov	r11,48
800036f6:	30 3c       	mov	r12,3
800036f8:	f0 1f 00 54 	mcall	80003848 <screen_Init+0x3c8>
	_write(R61580_ENTRY_MODE, 0x0000 | (1 << ID0) | (1 << AM));
	#else
	_write(R61580_ENTRY_MODE, 0x0000 | (1 << ID1) | (1 << ID0));
	#endif*/
	
	_writeRegister(R61580_DISPLAY_CONTROL3, 0x0001);		//Scan Cycle
800036fc:	30 1b       	mov	r11,1
800036fe:	30 9c       	mov	r12,9
80003700:	f0 1f 00 52 	mcall	80003848 <screen_Init+0x3c8>
	_writeRegister(R61580_DISPLAY_CONTROL4, 0x0008);		//Sets output interval FMARK
80003704:	30 8b       	mov	r11,8
80003706:	30 ac       	mov	r12,10
80003708:	f0 1f 00 50 	mcall	80003848 <screen_Init+0x3c8>
	_writeRegister(R61580_INTERFACE_CONTROL1, 0x0000);	//Sets the interface format
8000370c:	30 0b       	mov	r11,0
8000370e:	30 cc       	mov	r12,12
80003710:	f0 1f 00 4e 	mcall	80003848 <screen_Init+0x3c8>
	_writeRegister(R61580_MARKER_POSITION, 0xD000);		//Sets the output position
80003714:	e0 6b d0 00 	mov	r11,53248
80003718:	30 dc       	mov	r12,13
8000371a:	f0 1f 00 4c 	mcall	80003848 <screen_Init+0x3c8>
	
	_writeRegister(R61580_VCOM, 0x0030);					//Sets equalize function control bit
8000371e:	33 0b       	mov	r11,48
80003720:	30 ec       	mov	r12,14
80003722:	f0 1f 00 4a 	mcall	80003848 <screen_Init+0x3c8>
	_writeRegister(R61580_INTEFACE_CONTROL2, 0x0000);	//Sets the signal polarity
80003726:	30 0b       	mov	r11,0
80003728:	30 fc       	mov	r12,15
8000372a:	f0 1f 00 48 	mcall	80003848 <screen_Init+0x3c8>
	_writeRegister(R61580_ADDRESS_HORIZONTAL, 0);
8000372e:	30 0b       	mov	r11,0
80003730:	32 0c       	mov	r12,32
80003732:	f0 1f 00 46 	mcall	80003848 <screen_Init+0x3c8>
	_writeRegister(R61580_ADDRESS_VERTICAL, 0);			//A frame memory address Set
80003736:	30 0b       	mov	r11,0
80003738:	32 1c       	mov	r12,33
8000373a:	f0 1f 00 44 	mcall	80003848 <screen_Init+0x3c8>
	
	_writeRegister(R61580_NVM_READ2, 0x002E);			// Selects the factor of VREG1OUT 0x77
8000373e:	32 eb       	mov	r11,46
80003740:	32 9c       	mov	r12,41
80003742:	f0 1f 00 42 	mcall	80003848 <screen_Init+0x3c8>
	
	_writeRegister(R61580_ADD_HSA, 0);				// Adresse window Horizontal frame Address (Start Address)
80003746:	30 0b       	mov	r11,0
80003748:	35 0c       	mov	r12,80
8000374a:	f0 1f 00 40 	mcall	80003848 <screen_Init+0x3c8>
	_writeRegister(R61580_ADD_HEA, SCREEN_HEIGHT);		// Adresse window Horizontal frame Address (End Address)
8000374e:	e0 6b 00 f0 	mov	r11,240
80003752:	35 1c       	mov	r12,81
80003754:	f0 1f 00 3d 	mcall	80003848 <screen_Init+0x3c8>
	_writeRegister(R61580_ADD_VEA, 0);				// Adresse window Vertical frame Address (Start Address)
80003758:	30 0b       	mov	r11,0
8000375a:	35 2c       	mov	r12,82
8000375c:	f0 1f 00 3b 	mcall	80003848 <screen_Init+0x3c8>
	_writeRegister(R61580_ADD_VSA, SCREEN_WIDTH);		// Adresse window Vertical frame Address (End Address)
80003760:	e0 6b 01 40 	mov	r11,320
80003764:	35 2c       	mov	r12,82
80003766:	f0 1f 00 39 	mcall	80003848 <screen_Init+0x3c8>
	
	
	_writeRegister(R61580_BASE_IMAGE, (uint16_t) (1 << REV));	// Base image Display Control
8000376a:	30 1b       	mov	r11,1
8000376c:	36 1c       	mov	r12,97
8000376e:	f0 1f 00 37 	mcall	80003848 <screen_Init+0x3c8>
	_writeRegister(R61580_SCROLL_VERTICAL, 0x0000);
80003772:	30 0b       	mov	r11,0
80003774:	36 ac       	mov	r12,106
80003776:	f0 1f 00 35 	mcall	80003848 <screen_Init+0x3c8>
	
	_writeRegister(R61580_PARTIAL_DISPLAY, 0x0000);		// Sets the display position of partial image
8000377a:	30 0b       	mov	r11,0
8000377c:	e0 6c 00 80 	mov	r12,128
80003780:	f0 1f 00 32 	mcall	80003848 <screen_Init+0x3c8>
	_writeRegister(R61580_PARTIAL_FRAME1, 0x0000);		// Sets the start Line Address
80003784:	30 0b       	mov	r11,0
80003786:	e0 6c 00 81 	mov	r12,129
8000378a:	f0 1f 00 30 	mcall	80003848 <screen_Init+0x3c8>
	_writeRegister(R61580_PARTIAL_FRAME2, 0x005F);		// Sets the end Line Address
8000378e:	35 fb       	mov	r11,95
80003790:	e0 6c 00 82 	mov	r12,130
80003794:	f0 1f 00 2d 	mcall	80003848 <screen_Init+0x3c8>
	_writeRegister(R61580_PANEL_CONTROL3, 0x0701);		// Sets VCOM equalize period
80003798:	e0 6b 07 01 	mov	r11,1793
8000379c:	e0 6c 00 93 	mov	r12,147
800037a0:	f0 1f 00 2a 	mcall	80003848 <screen_Init+0x3c8>
	
	_writeRegister(R61580_DISPLAY_CONTROL1, 0x0100);		//Display Control 1
800037a4:	e0 6b 01 00 	mov	r11,256
800037a8:	30 7c       	mov	r12,7
800037aa:	f0 1f 00 28 	mcall	80003848 <screen_Init+0x3c8>
	{
		.diva = AVR32_PWM_DIVA_CLK_OFF,
		.divb = AVR32_PWM_DIVB_CLK_OFF,
		.prea = AVR32_PWM_PREA_MCK,
		.preb = AVR32_PWM_PREB_MCK
	};
800037ae:	30 08       	mov	r8,0
800037b0:	50 88       	stdsp	sp[0x20],r8
800037b2:	50 98       	stdsp	sp[0x24],r8
800037b4:	50 a8       	stdsp	sp[0x28],r8
800037b6:	50 b8       	stdsp	sp[0x2c],r8
		
	volatile avr32_pwm_channel_t pwm_channel = { .ccnt = 0 };
800037b8:	30 0a       	mov	r10,0
800037ba:	30 0b       	mov	r11,0
800037bc:	fa eb 00 00 	st.d	sp[0],r10
800037c0:	fa c9 ff f8 	sub	r9,sp,-8
800037c4:	f2 eb 00 00 	st.d	r9[0],r10
800037c8:	fa c9 ff f0 	sub	r9,sp,-16
800037cc:	f2 eb 00 00 	st.d	r9[0],r10
800037d0:	fa c9 ff e8 	sub	r9,sp,-24
800037d4:	f2 eb 00 00 	st.d	r9[0],r10

	// With these settings, the output waveform period will be:
	// (115200/256)/20 == 22.5Hz == (MCK/prescaler)/period, with
	// MCK == 115200Hz, prescaler == 256, period == 20. 

	pwm_channel.cdty = 1; // Channel duty cycle, should be < CPRD. 
800037d8:	30 1b       	mov	r11,1
800037da:	50 1b       	stdsp	sp[0x4],r11
	pwm_channel.cprd = 20; // Channel period. 
800037dc:	31 49       	mov	r9,20
800037de:	50 29       	stdsp	sp[0x8],r9
	pwm_channel.cupd = 0; // Channel update is not used here. 
800037e0:	50 48       	stdsp	sp[0x10],r8
	pwm_channel.CMR.calg = PWM_MODE_LEFT_ALIGNED; // Channel mode. 
800037e2:	40 09       	lddsp	r9,sp[0x0]
800037e4:	f3 d8 d1 01 	bfins	r9,r8,0x8,0x1
800037e8:	50 09       	stdsp	sp[0x0],r9
	pwm_channel.CMR.cpol = PWM_POLARITY_LOW;      // Channel polarity. 
800037ea:	40 09       	lddsp	r9,sp[0x0]
800037ec:	f3 d8 d1 21 	bfins	r9,r8,0x9,0x1
800037f0:	50 09       	stdsp	sp[0x0],r9
	pwm_channel.CMR.cpd = PWM_UPDATE_DUTY;        // Not used the first time. 
800037f2:	40 09       	lddsp	r9,sp[0x0]
800037f4:	f3 d8 d1 41 	bfins	r9,r8,0xa,0x1
800037f8:	50 09       	stdsp	sp[0x0],r9
	pwm_channel.CMR.cpre = AVR32_PWM_CPRE_MCK_DIV_32; // Channel prescaler. 
800037fa:	40 08       	lddsp	r8,sp[0x0]
800037fc:	30 57       	mov	r7,5
800037fe:	f1 d7 d0 04 	bfins	r8,r7,0x0,0x4
80003802:	50 08       	stdsp	sp[0x0],r8
	
	// Enable the alternative mode of the output pin to connect it to the PWM
	// module within the device. 
	gpio_enable_module_pin(PIN_PWM_TFT, FCT_PWM_TFT);
80003804:	33 cc       	mov	r12,60
80003806:	f0 1f 00 12 	mcall	8000384c <screen_Init+0x3cc>

	// Initialize the PWM module. 
	pwm_init(&pwm_opt);
8000380a:	fa cc ff e0 	sub	r12,sp,-32
8000380e:	f0 1f 00 11 	mcall	80003850 <screen_Init+0x3d0>

	// Set channel configuration to channel 0. 
	pwm_channel_init(5, &pwm_channel);
80003812:	1a 9b       	mov	r11,sp
80003814:	0e 9c       	mov	r12,r7
80003816:	f0 1f 00 10 	mcall	80003854 <screen_Init+0x3d4>

	// Start channel 0. 
	pwm_start_channels(1 << 5);
8000381a:	32 0c       	mov	r12,32
8000381c:	f0 1f 00 0f 	mcall	80003858 <screen_Init+0x3d8>
	spi_setupChipReg(AVR32_SPI0_ADDRESS, &screenOptions, BOARD_OSC0_HZ);

	_reset();
	_powerUp();
	_setPWM();
}
80003820:	2e 8d       	sub	sp,-96
80003822:	e3 cd 80 80 	ldm	sp++,r7,pc
80003826:	00 00       	add	r0,r0
80003828:	80 00       	ld.sh	r0,r0[0x0]
8000382a:	77 b4       	ld.w	r4,r11[0x6c]
8000382c:	80 00       	ld.sh	r0,r0[0x0]
8000382e:	77 d4       	ld.w	r4,r11[0x74]
80003830:	80 00       	ld.sh	r0,r0[0x0]
80003832:	20 64       	sub	r4,6
80003834:	80 00       	ld.sh	r0,r0[0x0]
80003836:	23 02       	sub	r2,48
80003838:	80 00       	ld.sh	r0,r0[0x0]
8000383a:	24 90       	sub	r0,73
8000383c:	80 00       	ld.sh	r0,r0[0x0]
8000383e:	23 d8       	sub	r8,61
80003840:	80 00       	ld.sh	r0,r0[0x0]
80003842:	20 b0       	sub	r0,11
80003844:	80 00       	ld.sh	r0,r0[0x0]
80003846:	20 94       	sub	r4,9
80003848:	80 00       	ld.sh	r0,r0[0x0]
8000384a:	32 40       	mov	r0,36
8000384c:	80 00       	ld.sh	r0,r0[0x0]
8000384e:	20 12       	sub	r2,1
80003850:	80 00       	ld.sh	r0,r0[0x0]
80003852:	22 9c       	sub	r12,41
80003854:	80 00       	ld.sh	r0,r0[0x0]
80003856:	22 54       	sub	r4,37
80003858:	80 00       	ld.sh	r0,r0[0x0]
8000385a:	22 8a       	sub	r10,40

8000385c <vector2_Add>:
 *  Author: voletqu
 */ 

#include "vector2.h"

Vector2 vector2_Add(Vector2 v1, Vector2 v2){
8000385c:	eb cd 00 10 	pushm	r4
80003860:	fa c4 ff fc 	sub	r4,sp,-4
	return (Vector2){.x = v1.x + v2.x,
80003864:	09 ea       	ld.ub	r10,r4[0x6]
80003866:	09 a9       	ld.ub	r9,r4[0x2]
80003868:	f4 09 00 09 	add	r9,r10,r9
8000386c:	88 2b       	ld.sh	r11,r4[0x4]
8000386e:	88 0a       	ld.sh	r10,r4[0x0]
80003870:	f6 0a 00 0a 	add	r10,r11,r10
80003874:	b8 0a       	st.h	r12[0x0],r10
80003876:	b8 a9       	st.b	r12[0x2],r9
					 .y = v1.y + v2.y};
80003878:	e3 cd 00 10 	ldm	sp++,r4
8000387c:	5e fc       	retal	r12
8000387e:	d7 03       	nop

80003880 <mainCentre>:
#include "SDCard/sdcard.h"
#include "GFX/screen.h"
#include "GFX/gui.h"


void mainCentre(void){
80003880:	d4 01       	pushm	lr
	sysclk_init();
80003882:	f0 1f 00 16 	mcall	800038d8 <mainCentre+0x58>
	
	screen_Init();
80003886:	f0 1f 00 16 	mcall	800038dc <mainCentre+0x5c>
	gui_loadingScreen();
8000388a:	f0 1f 00 16 	mcall	800038e0 <mainCentre+0x60>
 * \param  delay:   (input) delay in CPU cycles before timeout.
 * \param  cpu_time: (output) internal information used by the timer API.
 */
__always_inline static void cpu_set_timeout(unsigned long delay, t_cpu_time *cpu_time)
{
  cpu_time->delay_start_cycle = Get_system_register(AVR32_COUNT);
8000388e:	e1 b8 00 42 	mfsr	r8,0x108
  cpu_time->delay_end_cycle   = cpu_time->delay_start_cycle + delay;
80003892:	e0 6a d8 00 	mov	r10,55296
80003896:	ea 1a 05 b8 	orh	r10,0x5b8
8000389a:	f0 0a 00 0a 	add	r10,r8,r10
 *
 * \return true if timeout occurred, otherwise false.
 */
__always_inline static unsigned long cpu_is_timeout(t_cpu_time *cpu_time)
{
  unsigned long current_cycle_count = Get_system_register(AVR32_COUNT);
8000389e:	e1 b9 00 42 	mfsr	r9,0x108
  // Test if the timeout as already occurred.
  else if (cpu_time->timer_state == CPU_TIMER_STATE_REACHED)
    return true;

  // If the ending cycle count of this timeout is wrapped, ...
  else if (cpu_time->delay_start_cycle > cpu_time->delay_end_cycle)
800038a2:	14 38       	cp.w	r8,r10
800038a4:	e0 88 00 08 	brls	800038b4 <mainCentre+0x34>
  {
    if (current_cycle_count < cpu_time->delay_start_cycle && current_cycle_count > cpu_time->delay_end_cycle)
800038a8:	12 38       	cp.w	r8,r9
800038aa:	fe 98 ff fa 	brls	8000389e <mainCentre+0x1e>
800038ae:	12 3a       	cp.w	r10,r9
800038b0:	c0 93       	brcs	800038c2 <mainCentre+0x42>
800038b2:	cf 6b       	rjmp	8000389e <mainCentre+0x1e>
    }
    return false;
  }
  else
  {
    if (current_cycle_count < cpu_time->delay_start_cycle || current_cycle_count > cpu_time->delay_end_cycle)
800038b4:	12 38       	cp.w	r8,r9
800038b6:	e0 8b 00 06 	brhi	800038c2 <mainCentre+0x42>
800038ba:	12 3a       	cp.w	r10,r9
800038bc:	c0 33       	brcs	800038c2 <mainCentre+0x42>
800038be:	cf 0b       	rjmp	8000389e <mainCentre+0x1e>
800038c0:	c0 08       	rjmp	800038c0 <mainCentre+0x40>
	
	cpu_delay_ms(1500,BOARD_OSC0_HZ);
	
	sdcard_Init();
800038c2:	f0 1f 00 09 	mcall	800038e4 <mainCentre+0x64>
	gui_InitMenus();
800038c6:	f0 1f 00 09 	mcall	800038e8 <mainCentre+0x68>
	
	menus[0].draw(true);
800038ca:	48 98       	lddpc	r8,800038ec <mainCentre+0x6c>
800038cc:	70 08       	ld.w	r8,r8[0x0]
800038ce:	70 08       	ld.w	r8,r8[0x0]
800038d0:	30 1c       	mov	r12,1
800038d2:	5d 18       	icall	r8
800038d4:	cf 6b       	rjmp	800038c0 <mainCentre+0x40>
800038d6:	00 00       	add	r0,r0
800038d8:	80 00       	ld.sh	r0,r0[0x0]
800038da:	39 78       	mov	r8,-105
800038dc:	80 00       	ld.sh	r0,r0[0x0]
800038de:	34 80       	mov	r0,72
800038e0:	80 00       	ld.sh	r0,r0[0x0]
800038e2:	2f 3c       	sub	r12,-13
800038e4:	80 00       	ld.sh	r0,r0[0x0]
800038e6:	38 f0       	mov	r0,-113
800038e8:	80 00       	ld.sh	r0,r0[0x0]
800038ea:	31 10       	mov	r0,17
800038ec:	00 00       	add	r0,r0
800038ee:	06 28       	rsub	r8,r3

800038f0 <sdcard_Init>:
static bool _setupFAT(void);
static uint8_t _filesName(void);

bool sdcard_ReadSector(void *ram, uint32_t sector);

void sdcard_Init(void){
800038f0:	eb cd 40 80 	pushm	r7,lr
800038f4:	20 8d       	sub	sp,32
	gpio_map_t sdGPIO={
		{PIN_NPCS_SD,	FCT_NPCS_SD	  },
		{PIN_SCK_SPI1,	FCT_SCK_SPI1  },
		{PIN_MISO_SPI1, FCT_MISO_SPI1 },
		{PIN_MOSI_SPI1, FCT_MOSI_SPI1 }
	};
800038f6:	49 a8       	lddpc	r8,8000395c <sdcard_Init+0x6c>
800038f8:	1a 9c       	mov	r12,sp
800038fa:	f0 ea 00 00 	ld.d	r10,r8[0]
800038fe:	fa eb 00 00 	st.d	sp[0],r10
80003902:	f0 ea 00 08 	ld.d	r10,r8[8]
80003906:	fa eb 00 08 	st.d	sp[8],r10
8000390a:	f0 ea 00 10 	ld.d	r10,r8[16]
8000390e:	fa eb 00 10 	st.d	sp[16],r10
80003912:	f0 e8 00 18 	ld.d	r8,r8[24]
80003916:	fa e9 00 18 	st.d	sp[24],r8

	gpio_enable_module(sdGPIO, sizeof (sdGPIO)/ sizeof(sdGPIO[0]));
8000391a:	30 4b       	mov	r11,4
8000391c:	f0 1f 00 11 	mcall	80003960 <sdcard_Init+0x70>
	

	spi_initMaster((volatile struct avr32_spi_t*) SD_MMC_SPI,&sdOptions);
80003920:	49 17       	lddpc	r7,80003964 <sdcard_Init+0x74>
80003922:	0e 9b       	mov	r11,r7
80003924:	fe 7c 28 00 	mov	r12,-55296
80003928:	f0 1f 00 10 	mcall	80003968 <sdcard_Init+0x78>

	spi_selectionMode((volatile struct avr32_spi_t*) SD_MMC_SPI, 0, 0, 0);
8000392c:	30 09       	mov	r9,0
8000392e:	12 9a       	mov	r10,r9
80003930:	12 9b       	mov	r11,r9
80003932:	fe 7c 28 00 	mov	r12,-55296
80003936:	f0 1f 00 0e 	mcall	8000396c <sdcard_Init+0x7c>

	spi_setupChipReg((volatile struct avr32_spi_t*) SD_MMC_SPI, &sdOptions,BOARD_OSC0_HZ);
8000393a:	e0 6a 90 00 	mov	r10,36864
8000393e:	ea 1a 03 d0 	orh	r10,0x3d0
80003942:	0e 9b       	mov	r11,r7
80003944:	fe 7c 28 00 	mov	r12,-55296
80003948:	f0 1f 00 0a 	mcall	80003970 <sdcard_Init+0x80>

	spi_enable((volatile struct avr32_spi_t*) SD_MMC_SPI);
8000394c:	fe 7c 28 00 	mov	r12,-55296
80003950:	f0 1f 00 09 	mcall	80003974 <sdcard_Init+0x84>
}
80003954:	2f 8d       	sub	sp,-32
80003956:	e3 cd 80 80 	ldm	sp++,r7,pc
8000395a:	00 00       	add	r0,r0
8000395c:	80 00       	ld.sh	r0,r0[0x0]
8000395e:	77 e4       	ld.w	r4,r11[0x78]
80003960:	80 00       	ld.sh	r0,r0[0x0]
80003962:	20 64       	sub	r4,6
80003964:	00 00       	add	r0,r0
80003966:	00 04       	add	r4,r0
80003968:	80 00       	ld.sh	r0,r0[0x0]
8000396a:	23 02       	sub	r2,48
8000396c:	80 00       	ld.sh	r0,r0[0x0]
8000396e:	23 3a       	sub	r10,51
80003970:	80 00       	ld.sh	r0,r0[0x0]
80003972:	23 d8       	sub	r8,61
80003974:	80 00       	ld.sh	r0,r0[0x0]
80003976:	24 90       	sub	r0,73

80003978 <sysclk_init>:
/* sysclk_init (void)
*
* Initializes SYSCLK for a 64 MHz clock.
*
*/
void sysclk_init (void) {
80003978:	d4 01       	pushm	lr
  // PLL formula = PLL_OUT (OSC0 / DIV) * (MUL+1) => (16MHz / 1) * (7+1) = 128MHz
  pm_switch_to_osc0(&AVR32_PM, BOARD_OSC0_HZ, OSC0_STARTUP_US);  // Switch main clock to Osc0.
8000397a:	30 3a       	mov	r10,3
8000397c:	e0 6b 90 00 	mov	r11,36864
80003980:	ea 1b 03 d0 	orh	r11,0x3d0
80003984:	fe 7c 0c 00 	mov	r12,-62464
80003988:	f0 1f 00 19 	mcall	800039ec <sysclk_init+0x74>
  pm_pll_setup(&AVR32_PM, PLL, MUL, DIV, OSC, LOCK_COUNT);
8000398c:	31 08       	mov	r8,16
8000398e:	1a d8       	st.w	--sp,r8
80003990:	30 08       	mov	r8,0
80003992:	30 19       	mov	r9,1
80003994:	30 7a       	mov	r10,7
80003996:	10 9b       	mov	r11,r8
80003998:	fe 7c 0c 00 	mov	r12,-62464
8000399c:	f0 1f 00 15 	mcall	800039f0 <sysclk_init+0x78>
   pll_freq Set to 1 for VCO frequency range 80-180MHz, set to 0 for VCO frequency range 160-240Mhz.
   pll_div2 Divide the PLL output frequency by 2 (this settings does not change the FVCO value)
   pll_wbwdisable 1 Disable the Wide-Bandith Mode (Wide-Bandwith mode allow a faster startup time and out-of-lock time). 0 to enable the Wide-Bandith Mode.
  */
  /* PLL output VCO frequency is 128MHz. We divide it by 2 with the pll_div2=1. This enable to get later main clock to 64MHz */
  pm_pll_set_option(&AVR32_PM, PLL, PLL_F, PLL_DIV2, PLL_WBW_DIS);
800039a0:	30 08       	mov	r8,0
800039a2:	30 19       	mov	r9,1
800039a4:	12 9a       	mov	r10,r9
800039a6:	10 9b       	mov	r11,r8
800039a8:	fe 7c 0c 00 	mov	r12,-62464
800039ac:	f0 1f 00 12 	mcall	800039f4 <sysclk_init+0x7c>
  pm_pll_enable(&AVR32_PM, PLL);
800039b0:	30 0b       	mov	r11,0
800039b2:	fe 7c 0c 00 	mov	r12,-62464
800039b6:	f0 1f 00 11 	mcall	800039f8 <sysclk_init+0x80>

  /* Wait for PLL0 locked */
  pm_wait_for_pll0_locked(&AVR32_PM) ;
800039ba:	fe 7c 0c 00 	mov	r12,-62464
800039be:	f0 1f 00 10 	mcall	800039fc <sysclk_init+0x84>
  pm_cksel(&AVR32_PM, 1, 0, 0, 0, 0, 0);		// 1 divides PBA clock by two
800039c2:	30 0a       	mov	r10,0
800039c4:	1a da       	st.w	--sp,r10
800039c6:	1a da       	st.w	--sp,r10
800039c8:	14 98       	mov	r8,r10
800039ca:	14 99       	mov	r9,r10
800039cc:	30 1b       	mov	r11,1
800039ce:	fe 7c 0c 00 	mov	r12,-62464
800039d2:	f0 1f 00 0c 	mcall	80003a00 <sysclk_init+0x88>

  // Set one wait-state (WS) for flash controller. 0 WS access is up to 30MHz for HSB/CPU clock.
  // As we want to have 64MHz on HSB/CPU clock, we need to set 1 WS on flash controller.
  flashc_set_wait_state(1);
800039d6:	30 1c       	mov	r12,1
800039d8:	f0 1f 00 0b 	mcall	80003a04 <sysclk_init+0x8c>
  pm_switch_to_clock(&AVR32_PM, AVR32_PM_MCSEL_PLL0); /* Switch main clock to 64MHz */	
800039dc:	30 2b       	mov	r11,2
800039de:	fe 7c 0c 00 	mov	r12,-62464
800039e2:	f0 1f 00 0a 	mcall	80003a08 <sysclk_init+0x90>
800039e6:	2f dd       	sub	sp,-12
}
800039e8:	d8 02       	popm	pc
800039ea:	00 00       	add	r0,r0
800039ec:	80 00       	ld.sh	r0,r0[0x0]
800039ee:	22 28       	sub	r8,34
800039f0:	80 00       	ld.sh	r0,r0[0x0]
800039f2:	21 ca       	sub	r10,28
800039f4:	80 00       	ld.sh	r0,r0[0x0]
800039f6:	21 ec       	sub	r12,30
800039f8:	80 00       	ld.sh	r0,r0[0x0]
800039fa:	22 06       	sub	r6,32
800039fc:	80 00       	ld.sh	r0,r0[0x0]
800039fe:	22 14       	sub	r4,33
80003a00:	80 00       	ld.sh	r0,r0[0x0]
80003a02:	21 84       	sub	r4,24
80003a04:	80 00       	ld.sh	r0,r0[0x0]
80003a06:	20 04       	sub	r4,0
80003a08:	80 00       	ld.sh	r0,r0[0x0]
80003a0a:	22 1e       	sub	lr,33

80003a0c <main>:
#else
	#include "mainCentre.h"
#endif


int main (void) {
80003a0c:	d4 01       	pushm	lr
	
	#ifdef AVIS_POLITIQUE
		mainGauche();
	#else
		mainCentre();
80003a0e:	f0 1f 00 02 	mcall	80003a14 <main+0x8>
	#endif
	
}
80003a12:	d8 0a       	popm	pc,r12=0
80003a14:	80 00       	ld.sh	r0,r0[0x0]
80003a16:	38 80       	mov	r0,-120

80003a18 <malloc>:
80003a18:	d4 01       	pushm	lr
80003a1a:	e0 68 05 14 	mov	r8,1300
80003a1e:	18 9b       	mov	r11,r12
80003a20:	70 0c       	ld.w	r12,r8[0x0]
80003a22:	c0 3c       	rcall	80003a28 <_malloc_r>
80003a24:	d8 02       	popm	pc
80003a26:	d7 03       	nop

80003a28 <_malloc_r>:
80003a28:	d4 31       	pushm	r0-r7,lr
80003a2a:	f6 c8 ff f5 	sub	r8,r11,-11
80003a2e:	18 95       	mov	r5,r12
80003a30:	10 97       	mov	r7,r8
80003a32:	e0 17 ff f8 	andl	r7,0xfff8
80003a36:	59 68       	cp.w	r8,22
80003a38:	f9 b7 08 10 	movls	r7,16
80003a3c:	16 37       	cp.w	r7,r11
80003a3e:	5f 38       	srlo	r8
80003a40:	f1 e7 13 f8 	or	r8,r8,r7>>0x1f
80003a44:	c0 50       	breq	80003a4e <_malloc_r+0x26>
80003a46:	30 c8       	mov	r8,12
80003a48:	99 38       	st.w	r12[0xc],r8
80003a4a:	e0 8f 01 ee 	bral	80003e26 <_malloc_r+0x3fe>
80003a4e:	e0 a0 02 9f 	rcall	80003f8c <__malloc_lock>
80003a52:	e0 47 01 f7 	cp.w	r7,503
80003a56:	e0 8b 00 1c 	brhi	80003a8e <_malloc_r+0x66>
80003a5a:	ee 03 16 03 	lsr	r3,r7,0x3
80003a5e:	31 48       	mov	r8,20
80003a60:	f0 03 00 38 	add	r8,r8,r3<<0x3
80003a64:	70 36       	ld.w	r6,r8[0xc]
80003a66:	10 36       	cp.w	r6,r8
80003a68:	c0 61       	brne	80003a74 <_malloc_r+0x4c>
80003a6a:	ec c8 ff f8 	sub	r8,r6,-8
80003a6e:	70 36       	ld.w	r6,r8[0xc]
80003a70:	10 36       	cp.w	r6,r8
80003a72:	c0 c0       	breq	80003a8a <_malloc_r+0x62>
80003a74:	6c 18       	ld.w	r8,r6[0x4]
80003a76:	e0 18 ff fc 	andl	r8,0xfffc
80003a7a:	6c 3a       	ld.w	r10,r6[0xc]
80003a7c:	ec 08 00 09 	add	r9,r6,r8
80003a80:	0a 9c       	mov	r12,r5
80003a82:	6c 28       	ld.w	r8,r6[0x8]
80003a84:	95 28       	st.w	r10[0x8],r8
80003a86:	91 3a       	st.w	r8[0xc],r10
80003a88:	c4 68       	rjmp	80003b14 <_malloc_r+0xec>
80003a8a:	2f e3       	sub	r3,-2
80003a8c:	c4 c8       	rjmp	80003b24 <_malloc_r+0xfc>
80003a8e:	ee 03 16 09 	lsr	r3,r7,0x9
80003a92:	c0 41       	brne	80003a9a <_malloc_r+0x72>
80003a94:	ee 03 16 03 	lsr	r3,r7,0x3
80003a98:	c2 68       	rjmp	80003ae4 <_malloc_r+0xbc>
80003a9a:	58 43       	cp.w	r3,4
80003a9c:	e0 8b 00 06 	brhi	80003aa8 <_malloc_r+0x80>
80003aa0:	ee 03 16 06 	lsr	r3,r7,0x6
80003aa4:	2c 83       	sub	r3,-56
80003aa6:	c1 f8       	rjmp	80003ae4 <_malloc_r+0xbc>
80003aa8:	59 43       	cp.w	r3,20
80003aaa:	e0 8b 00 04 	brhi	80003ab2 <_malloc_r+0x8a>
80003aae:	2a 53       	sub	r3,-91
80003ab0:	c1 a8       	rjmp	80003ae4 <_malloc_r+0xbc>
80003ab2:	e0 43 00 54 	cp.w	r3,84
80003ab6:	e0 8b 00 06 	brhi	80003ac2 <_malloc_r+0x9a>
80003aba:	ee 03 16 0c 	lsr	r3,r7,0xc
80003abe:	29 23       	sub	r3,-110
80003ac0:	c1 28       	rjmp	80003ae4 <_malloc_r+0xbc>
80003ac2:	e0 43 01 54 	cp.w	r3,340
80003ac6:	e0 8b 00 06 	brhi	80003ad2 <_malloc_r+0xaa>
80003aca:	ee 03 16 0f 	lsr	r3,r7,0xf
80003ace:	28 93       	sub	r3,-119
80003ad0:	c0 a8       	rjmp	80003ae4 <_malloc_r+0xbc>
80003ad2:	e0 43 05 54 	cp.w	r3,1364
80003ad6:	e0 88 00 04 	brls	80003ade <_malloc_r+0xb6>
80003ada:	37 e3       	mov	r3,126
80003adc:	c0 48       	rjmp	80003ae4 <_malloc_r+0xbc>
80003ade:	ee 03 16 12 	lsr	r3,r7,0x12
80003ae2:	28 43       	sub	r3,-124
80003ae4:	31 4a       	mov	r10,20
80003ae6:	f4 03 00 3a 	add	r10,r10,r3<<0x3
80003aea:	74 36       	ld.w	r6,r10[0xc]
80003aec:	c1 98       	rjmp	80003b1e <_malloc_r+0xf6>
80003aee:	6c 19       	ld.w	r9,r6[0x4]
80003af0:	e0 19 ff fc 	andl	r9,0xfffc
80003af4:	f2 07 01 0b 	sub	r11,r9,r7
80003af8:	58 fb       	cp.w	r11,15
80003afa:	e0 8a 00 04 	brle	80003b02 <_malloc_r+0xda>
80003afe:	20 13       	sub	r3,1
80003b00:	c1 18       	rjmp	80003b22 <_malloc_r+0xfa>
80003b02:	6c 38       	ld.w	r8,r6[0xc]
80003b04:	58 0b       	cp.w	r11,0
80003b06:	c0 b5       	brlt	80003b1c <_malloc_r+0xf4>
80003b08:	6c 2a       	ld.w	r10,r6[0x8]
80003b0a:	ec 09 00 09 	add	r9,r6,r9
80003b0e:	0a 9c       	mov	r12,r5
80003b10:	91 2a       	st.w	r8[0x8],r10
80003b12:	95 38       	st.w	r10[0xc],r8
80003b14:	72 18       	ld.w	r8,r9[0x4]
80003b16:	a1 a8       	sbr	r8,0x0
80003b18:	93 18       	st.w	r9[0x4],r8
80003b1a:	cb 88       	rjmp	80003c8a <_malloc_r+0x262>
80003b1c:	10 96       	mov	r6,r8
80003b1e:	14 36       	cp.w	r6,r10
80003b20:	ce 71       	brne	80003aee <_malloc_r+0xc6>
80003b22:	2f f3       	sub	r3,-1
80003b24:	31 4a       	mov	r10,20
80003b26:	f4 cc ff f8 	sub	r12,r10,-8
80003b2a:	78 26       	ld.w	r6,r12[0x8]
80003b2c:	18 36       	cp.w	r6,r12
80003b2e:	c6 a0       	breq	80003c02 <_malloc_r+0x1da>
80003b30:	6c 19       	ld.w	r9,r6[0x4]
80003b32:	e0 19 ff fc 	andl	r9,0xfffc
80003b36:	f2 07 01 08 	sub	r8,r9,r7
80003b3a:	58 f8       	cp.w	r8,15
80003b3c:	e0 89 00 8c 	brgt	80003c54 <_malloc_r+0x22c>
80003b40:	99 3c       	st.w	r12[0xc],r12
80003b42:	99 2c       	st.w	r12[0x8],r12
80003b44:	58 08       	cp.w	r8,0
80003b46:	c0 55       	brlt	80003b50 <_malloc_r+0x128>
80003b48:	ec 09 00 09 	add	r9,r6,r9
80003b4c:	0a 9c       	mov	r12,r5
80003b4e:	ce 3b       	rjmp	80003b14 <_malloc_r+0xec>
80003b50:	e0 49 01 ff 	cp.w	r9,511
80003b54:	e0 8b 00 13 	brhi	80003b7a <_malloc_r+0x152>
80003b58:	a3 99       	lsr	r9,0x3
80003b5a:	f4 09 00 38 	add	r8,r10,r9<<0x3
80003b5e:	70 2b       	ld.w	r11,r8[0x8]
80003b60:	8d 38       	st.w	r6[0xc],r8
80003b62:	8d 2b       	st.w	r6[0x8],r11
80003b64:	97 36       	st.w	r11[0xc],r6
80003b66:	91 26       	st.w	r8[0x8],r6
80003b68:	a3 49       	asr	r9,0x2
80003b6a:	74 18       	ld.w	r8,r10[0x4]
80003b6c:	30 1b       	mov	r11,1
80003b6e:	f6 09 09 49 	lsl	r9,r11,r9
80003b72:	f1 e9 10 09 	or	r9,r8,r9
80003b76:	95 19       	st.w	r10[0x4],r9
80003b78:	c4 58       	rjmp	80003c02 <_malloc_r+0x1da>
80003b7a:	f2 0a 16 09 	lsr	r10,r9,0x9
80003b7e:	58 4a       	cp.w	r10,4
80003b80:	e0 8b 00 06 	brhi	80003b8c <_malloc_r+0x164>
80003b84:	f2 0a 16 06 	lsr	r10,r9,0x6
80003b88:	2c 8a       	sub	r10,-56
80003b8a:	c1 f8       	rjmp	80003bc8 <_malloc_r+0x1a0>
80003b8c:	59 4a       	cp.w	r10,20
80003b8e:	e0 8b 00 04 	brhi	80003b96 <_malloc_r+0x16e>
80003b92:	2a 5a       	sub	r10,-91
80003b94:	c1 a8       	rjmp	80003bc8 <_malloc_r+0x1a0>
80003b96:	e0 4a 00 54 	cp.w	r10,84
80003b9a:	e0 8b 00 06 	brhi	80003ba6 <_malloc_r+0x17e>
80003b9e:	f2 0a 16 0c 	lsr	r10,r9,0xc
80003ba2:	29 2a       	sub	r10,-110
80003ba4:	c1 28       	rjmp	80003bc8 <_malloc_r+0x1a0>
80003ba6:	e0 4a 01 54 	cp.w	r10,340
80003baa:	e0 8b 00 06 	brhi	80003bb6 <_malloc_r+0x18e>
80003bae:	f2 0a 16 0f 	lsr	r10,r9,0xf
80003bb2:	28 9a       	sub	r10,-119
80003bb4:	c0 a8       	rjmp	80003bc8 <_malloc_r+0x1a0>
80003bb6:	e0 4a 05 54 	cp.w	r10,1364
80003bba:	e0 88 00 04 	brls	80003bc2 <_malloc_r+0x19a>
80003bbe:	37 ea       	mov	r10,126
80003bc0:	c0 48       	rjmp	80003bc8 <_malloc_r+0x1a0>
80003bc2:	f2 0a 16 12 	lsr	r10,r9,0x12
80003bc6:	28 4a       	sub	r10,-124
80003bc8:	31 4b       	mov	r11,20
80003bca:	f6 0a 00 34 	add	r4,r11,r10<<0x3
80003bce:	68 28       	ld.w	r8,r4[0x8]
80003bd0:	08 38       	cp.w	r8,r4
80003bd2:	c0 e1       	brne	80003bee <_malloc_r+0x1c6>
80003bd4:	76 19       	ld.w	r9,r11[0x4]
80003bd6:	a3 4a       	asr	r10,0x2
80003bd8:	30 1e       	mov	lr,1
80003bda:	fc 0a 09 4a 	lsl	r10,lr,r10
80003bde:	f3 ea 10 0a 	or	r10,r9,r10
80003be2:	10 99       	mov	r9,r8
80003be4:	97 1a       	st.w	r11[0x4],r10
80003be6:	c0 a8       	rjmp	80003bfa <_malloc_r+0x1d2>
80003be8:	70 28       	ld.w	r8,r8[0x8]
80003bea:	08 38       	cp.w	r8,r4
80003bec:	c0 60       	breq	80003bf8 <_malloc_r+0x1d0>
80003bee:	70 1a       	ld.w	r10,r8[0x4]
80003bf0:	e0 1a ff fc 	andl	r10,0xfffc
80003bf4:	14 39       	cp.w	r9,r10
80003bf6:	cf 93       	brcs	80003be8 <_malloc_r+0x1c0>
80003bf8:	70 39       	ld.w	r9,r8[0xc]
80003bfa:	8d 39       	st.w	r6[0xc],r9
80003bfc:	8d 28       	st.w	r6[0x8],r8
80003bfe:	91 36       	st.w	r8[0xc],r6
80003c00:	93 26       	st.w	r9[0x8],r6
80003c02:	e6 08 14 02 	asr	r8,r3,0x2
80003c06:	30 1b       	mov	r11,1
80003c08:	31 44       	mov	r4,20
80003c0a:	f6 08 09 4b 	lsl	r11,r11,r8
80003c0e:	68 18       	ld.w	r8,r4[0x4]
80003c10:	10 3b       	cp.w	r11,r8
80003c12:	e0 8b 00 69 	brhi	80003ce4 <_malloc_r+0x2bc>
80003c16:	f7 e8 00 09 	and	r9,r11,r8
80003c1a:	c0 b1       	brne	80003c30 <_malloc_r+0x208>
80003c1c:	e0 13 ff fc 	andl	r3,0xfffc
80003c20:	a1 7b       	lsl	r11,0x1
80003c22:	2f c3       	sub	r3,-4
80003c24:	c0 38       	rjmp	80003c2a <_malloc_r+0x202>
80003c26:	2f c3       	sub	r3,-4
80003c28:	a1 7b       	lsl	r11,0x1
80003c2a:	f7 e8 00 09 	and	r9,r11,r8
80003c2e:	cf c0       	breq	80003c26 <_malloc_r+0x1fe>
80003c30:	e8 03 00 3e 	add	lr,r4,r3<<0x3
80003c34:	06 92       	mov	r2,r3
80003c36:	1c 91       	mov	r1,lr
80003c38:	62 36       	ld.w	r6,r1[0xc]
80003c3a:	c2 d8       	rjmp	80003c94 <_malloc_r+0x26c>
80003c3c:	6c 1a       	ld.w	r10,r6[0x4]
80003c3e:	e0 1a ff fc 	andl	r10,0xfffc
80003c42:	f4 07 01 08 	sub	r8,r10,r7
80003c46:	58 f8       	cp.w	r8,15
80003c48:	e0 8a 00 15 	brle	80003c72 <_malloc_r+0x24a>
80003c4c:	6c 3a       	ld.w	r10,r6[0xc]
80003c4e:	6c 29       	ld.w	r9,r6[0x8]
80003c50:	95 29       	st.w	r10[0x8],r9
80003c52:	93 3a       	st.w	r9[0xc],r10
80003c54:	0e 99       	mov	r9,r7
80003c56:	ec 07 00 07 	add	r7,r6,r7
80003c5a:	a1 a9       	sbr	r9,0x0
80003c5c:	99 37       	st.w	r12[0xc],r7
80003c5e:	99 27       	st.w	r12[0x8],r7
80003c60:	8d 19       	st.w	r6[0x4],r9
80003c62:	ee 08 09 08 	st.w	r7[r8],r8
80003c66:	8f 2c       	st.w	r7[0x8],r12
80003c68:	8f 3c       	st.w	r7[0xc],r12
80003c6a:	a1 a8       	sbr	r8,0x0
80003c6c:	0a 9c       	mov	r12,r5
80003c6e:	8f 18       	st.w	r7[0x4],r8
80003c70:	c0 d8       	rjmp	80003c8a <_malloc_r+0x262>
80003c72:	6c 39       	ld.w	r9,r6[0xc]
80003c74:	58 08       	cp.w	r8,0
80003c76:	c0 e5       	brlt	80003c92 <_malloc_r+0x26a>
80003c78:	ec 0a 00 0a 	add	r10,r6,r10
80003c7c:	74 18       	ld.w	r8,r10[0x4]
80003c7e:	a1 a8       	sbr	r8,0x0
80003c80:	0a 9c       	mov	r12,r5
80003c82:	95 18       	st.w	r10[0x4],r8
80003c84:	6c 28       	ld.w	r8,r6[0x8]
80003c86:	93 28       	st.w	r9[0x8],r8
80003c88:	91 39       	st.w	r8[0xc],r9
80003c8a:	c8 2d       	rcall	80003f8e <__malloc_unlock>
80003c8c:	ec cc ff f8 	sub	r12,r6,-8
80003c90:	d8 32       	popm	r0-r7,pc
80003c92:	12 96       	mov	r6,r9
80003c94:	02 36       	cp.w	r6,r1
80003c96:	cd 31       	brne	80003c3c <_malloc_r+0x214>
80003c98:	2f f2       	sub	r2,-1
80003c9a:	f1 d2 c0 02 	bfextu	r8,r2,0x0,0x2
80003c9e:	c0 30       	breq	80003ca4 <_malloc_r+0x27c>
80003ca0:	2f 81       	sub	r1,-8
80003ca2:	cc bb       	rjmp	80003c38 <_malloc_r+0x210>
80003ca4:	1c 98       	mov	r8,lr
80003ca6:	f3 d3 c0 02 	bfextu	r9,r3,0x0,0x2
80003caa:	c0 81       	brne	80003cba <_malloc_r+0x292>
80003cac:	68 19       	ld.w	r9,r4[0x4]
80003cae:	f6 08 11 ff 	rsub	r8,r11,-1
80003cb2:	f3 e8 00 08 	and	r8,r9,r8
80003cb6:	89 18       	st.w	r4[0x4],r8
80003cb8:	c0 78       	rjmp	80003cc6 <_malloc_r+0x29e>
80003cba:	f0 c9 00 08 	sub	r9,r8,8
80003cbe:	20 13       	sub	r3,1
80003cc0:	70 08       	ld.w	r8,r8[0x0]
80003cc2:	12 38       	cp.w	r8,r9
80003cc4:	cf 10       	breq	80003ca6 <_malloc_r+0x27e>
80003cc6:	a1 7b       	lsl	r11,0x1
80003cc8:	68 18       	ld.w	r8,r4[0x4]
80003cca:	10 3b       	cp.w	r11,r8
80003ccc:	e0 8b 00 0c 	brhi	80003ce4 <_malloc_r+0x2bc>
80003cd0:	58 0b       	cp.w	r11,0
80003cd2:	c0 90       	breq	80003ce4 <_malloc_r+0x2bc>
80003cd4:	04 93       	mov	r3,r2
80003cd6:	c0 38       	rjmp	80003cdc <_malloc_r+0x2b4>
80003cd8:	2f c3       	sub	r3,-4
80003cda:	a1 7b       	lsl	r11,0x1
80003cdc:	f7 e8 00 09 	and	r9,r11,r8
80003ce0:	ca 81       	brne	80003c30 <_malloc_r+0x208>
80003ce2:	cf bb       	rjmp	80003cd8 <_malloc_r+0x2b0>
80003ce4:	68 23       	ld.w	r3,r4[0x8]
80003ce6:	66 12       	ld.w	r2,r3[0x4]
80003ce8:	e0 12 ff fc 	andl	r2,0xfffc
80003cec:	0e 32       	cp.w	r2,r7
80003cee:	5f 39       	srlo	r9
80003cf0:	e4 07 01 08 	sub	r8,r2,r7
80003cf4:	58 f8       	cp.w	r8,15
80003cf6:	5f aa       	srle	r10
80003cf8:	f5 e9 10 09 	or	r9,r10,r9
80003cfc:	e0 80 00 96 	breq	80003e28 <_malloc_r+0x400>
80003d00:	e0 68 05 f8 	mov	r8,1528
80003d04:	70 01       	ld.w	r1,r8[0x0]
80003d06:	e0 68 04 20 	mov	r8,1056
80003d0a:	2f 01       	sub	r1,-16
80003d0c:	70 08       	ld.w	r8,r8[0x0]
80003d0e:	0e 01       	add	r1,r7
80003d10:	5b f8       	cp.w	r8,-1
80003d12:	c0 40       	breq	80003d1a <_malloc_r+0x2f2>
80003d14:	28 11       	sub	r1,-127
80003d16:	e0 11 ff 80 	andl	r1,0xff80
80003d1a:	02 9b       	mov	r11,r1
80003d1c:	0a 9c       	mov	r12,r5
80003d1e:	c3 9d       	rcall	80003f90 <_sbrk_r>
80003d20:	18 96       	mov	r6,r12
80003d22:	5b fc       	cp.w	r12,-1
80003d24:	c7 30       	breq	80003e0a <_malloc_r+0x3e2>
80003d26:	e6 02 00 08 	add	r8,r3,r2
80003d2a:	10 3c       	cp.w	r12,r8
80003d2c:	c0 32       	brcc	80003d32 <_malloc_r+0x30a>
80003d2e:	08 33       	cp.w	r3,r4
80003d30:	c6 d1       	brne	80003e0a <_malloc_r+0x3e2>
80003d32:	e0 6a 05 fc 	mov	r10,1532
80003d36:	74 09       	ld.w	r9,r10[0x0]
80003d38:	e2 09 00 09 	add	r9,r1,r9
80003d3c:	95 09       	st.w	r10[0x0],r9
80003d3e:	10 36       	cp.w	r6,r8
80003d40:	c0 a1       	brne	80003d54 <_malloc_r+0x32c>
80003d42:	f5 d6 c0 07 	bfextu	r10,r6,0x0,0x7
80003d46:	c0 71       	brne	80003d54 <_malloc_r+0x32c>
80003d48:	e2 02 00 02 	add	r2,r1,r2
80003d4c:	68 28       	ld.w	r8,r4[0x8]
80003d4e:	a1 a2       	sbr	r2,0x0
80003d50:	91 12       	st.w	r8[0x4],r2
80003d52:	c4 d8       	rjmp	80003dec <_malloc_r+0x3c4>
80003d54:	e0 6a 04 20 	mov	r10,1056
80003d58:	74 0b       	ld.w	r11,r10[0x0]
80003d5a:	5b fb       	cp.w	r11,-1
80003d5c:	c0 31       	brne	80003d62 <_malloc_r+0x33a>
80003d5e:	95 06       	st.w	r10[0x0],r6
80003d60:	c0 78       	rjmp	80003d6e <_malloc_r+0x346>
80003d62:	ec 09 00 09 	add	r9,r6,r9
80003d66:	e0 6a 05 fc 	mov	r10,1532
80003d6a:	10 19       	sub	r9,r8
80003d6c:	95 09       	st.w	r10[0x0],r9
80003d6e:	f1 d6 c0 03 	bfextu	r8,r6,0x0,0x3
80003d72:	f0 09 11 08 	rsub	r9,r8,8
80003d76:	58 08       	cp.w	r8,0
80003d78:	f2 08 17 10 	movne	r8,r9
80003d7c:	ed d8 e1 06 	addne	r6,r6,r8
80003d80:	28 08       	sub	r8,-128
80003d82:	ec 01 00 01 	add	r1,r6,r1
80003d86:	0a 9c       	mov	r12,r5
80003d88:	e3 d1 c0 07 	bfextu	r1,r1,0x0,0x7
80003d8c:	f0 01 01 01 	sub	r1,r8,r1
80003d90:	02 9b       	mov	r11,r1
80003d92:	cf fc       	rcall	80003f90 <_sbrk_r>
80003d94:	e0 68 05 fc 	mov	r8,1532
80003d98:	5b fc       	cp.w	r12,-1
80003d9a:	ec 0c 17 00 	moveq	r12,r6
80003d9e:	f9 b1 00 00 	moveq	r1,0
80003da2:	70 09       	ld.w	r9,r8[0x0]
80003da4:	0c 1c       	sub	r12,r6
80003da6:	89 26       	st.w	r4[0x8],r6
80003da8:	02 0c       	add	r12,r1
80003daa:	12 01       	add	r1,r9
80003dac:	a1 ac       	sbr	r12,0x0
80003dae:	91 01       	st.w	r8[0x0],r1
80003db0:	8d 1c       	st.w	r6[0x4],r12
80003db2:	08 33       	cp.w	r3,r4
80003db4:	c1 c0       	breq	80003dec <_malloc_r+0x3c4>
80003db6:	58 f2       	cp.w	r2,15
80003db8:	e0 8b 00 05 	brhi	80003dc2 <_malloc_r+0x39a>
80003dbc:	30 18       	mov	r8,1
80003dbe:	8d 18       	st.w	r6[0x4],r8
80003dc0:	c2 58       	rjmp	80003e0a <_malloc_r+0x3e2>
80003dc2:	30 59       	mov	r9,5
80003dc4:	20 c2       	sub	r2,12
80003dc6:	e0 12 ff f8 	andl	r2,0xfff8
80003dca:	e6 02 00 08 	add	r8,r3,r2
80003dce:	91 29       	st.w	r8[0x8],r9
80003dd0:	91 19       	st.w	r8[0x4],r9
80003dd2:	66 18       	ld.w	r8,r3[0x4]
80003dd4:	f1 d8 c0 01 	bfextu	r8,r8,0x0,0x1
80003dd8:	e5 e8 10 08 	or	r8,r2,r8
80003ddc:	87 18       	st.w	r3[0x4],r8
80003dde:	58 f2       	cp.w	r2,15
80003de0:	e0 88 00 06 	brls	80003dec <_malloc_r+0x3c4>
80003de4:	e6 cb ff f8 	sub	r11,r3,-8
80003de8:	0a 9c       	mov	r12,r5
80003dea:	c4 9d       	rcall	8000407c <_free_r>
80003dec:	e0 69 05 f4 	mov	r9,1524
80003df0:	72 0a       	ld.w	r10,r9[0x0]
80003df2:	e0 68 05 fc 	mov	r8,1532
80003df6:	70 08       	ld.w	r8,r8[0x0]
80003df8:	14 38       	cp.w	r8,r10
80003dfa:	f3 f8 ba 00 	st.whi	r9[0x0],r8
80003dfe:	e0 69 05 f0 	mov	r9,1520
80003e02:	72 0a       	ld.w	r10,r9[0x0]
80003e04:	14 38       	cp.w	r8,r10
80003e06:	f3 f8 ba 00 	st.whi	r9[0x0],r8
80003e0a:	68 28       	ld.w	r8,r4[0x8]
80003e0c:	70 18       	ld.w	r8,r8[0x4]
80003e0e:	e0 18 ff fc 	andl	r8,0xfffc
80003e12:	0e 38       	cp.w	r8,r7
80003e14:	5f 39       	srlo	r9
80003e16:	0e 18       	sub	r8,r7
80003e18:	58 f8       	cp.w	r8,15
80003e1a:	5f aa       	srle	r10
80003e1c:	f5 e9 10 09 	or	r9,r10,r9
80003e20:	c0 40       	breq	80003e28 <_malloc_r+0x400>
80003e22:	0a 9c       	mov	r12,r5
80003e24:	cb 5c       	rcall	80003f8e <__malloc_unlock>
80003e26:	d8 3a       	popm	r0-r7,pc,r12=0
80003e28:	68 26       	ld.w	r6,r4[0x8]
80003e2a:	a1 a8       	sbr	r8,0x0
80003e2c:	0e 99       	mov	r9,r7
80003e2e:	a1 a9       	sbr	r9,0x0
80003e30:	8d 19       	st.w	r6[0x4],r9
80003e32:	ec 07 00 07 	add	r7,r6,r7
80003e36:	0a 9c       	mov	r12,r5
80003e38:	89 27       	st.w	r4[0x8],r7
80003e3a:	8f 18       	st.w	r7[0x4],r8
80003e3c:	ca 9c       	rcall	80003f8e <__malloc_unlock>
80003e3e:	ec cc ff f8 	sub	r12,r6,-8
80003e42:	d8 32       	popm	r0-r7,pc

80003e44 <memcpy>:
80003e44:	58 8a       	cp.w	r10,8
80003e46:	c2 f5       	brlt	80003ea4 <memcpy+0x60>
80003e48:	f9 eb 10 09 	or	r9,r12,r11
80003e4c:	e2 19 00 03 	andl	r9,0x3,COH
80003e50:	e0 81 00 97 	brne	80003f7e <memcpy+0x13a>
80003e54:	e0 4a 00 20 	cp.w	r10,32
80003e58:	c3 b4       	brge	80003ece <memcpy+0x8a>
80003e5a:	f4 08 14 02 	asr	r8,r10,0x2
80003e5e:	f0 09 11 08 	rsub	r9,r8,8
80003e62:	fe 09 00 2f 	add	pc,pc,r9<<0x2
80003e66:	76 69       	ld.w	r9,r11[0x18]
80003e68:	99 69       	st.w	r12[0x18],r9
80003e6a:	76 59       	ld.w	r9,r11[0x14]
80003e6c:	99 59       	st.w	r12[0x14],r9
80003e6e:	76 49       	ld.w	r9,r11[0x10]
80003e70:	99 49       	st.w	r12[0x10],r9
80003e72:	76 39       	ld.w	r9,r11[0xc]
80003e74:	99 39       	st.w	r12[0xc],r9
80003e76:	76 29       	ld.w	r9,r11[0x8]
80003e78:	99 29       	st.w	r12[0x8],r9
80003e7a:	76 19       	ld.w	r9,r11[0x4]
80003e7c:	99 19       	st.w	r12[0x4],r9
80003e7e:	76 09       	ld.w	r9,r11[0x0]
80003e80:	99 09       	st.w	r12[0x0],r9
80003e82:	f6 08 00 2b 	add	r11,r11,r8<<0x2
80003e86:	f8 08 00 28 	add	r8,r12,r8<<0x2
80003e8a:	e0 1a 00 03 	andl	r10,0x3
80003e8e:	f4 0a 11 04 	rsub	r10,r10,4
80003e92:	fe 0a 00 2f 	add	pc,pc,r10<<0x2
80003e96:	17 a9       	ld.ub	r9,r11[0x2]
80003e98:	b0 a9       	st.b	r8[0x2],r9
80003e9a:	17 99       	ld.ub	r9,r11[0x1]
80003e9c:	b0 99       	st.b	r8[0x1],r9
80003e9e:	17 89       	ld.ub	r9,r11[0x0]
80003ea0:	b0 89       	st.b	r8[0x0],r9
80003ea2:	5e fc       	retal	r12
80003ea4:	f4 0a 11 09 	rsub	r10,r10,9
80003ea8:	fe 0a 00 2f 	add	pc,pc,r10<<0x2
80003eac:	17 f9       	ld.ub	r9,r11[0x7]
80003eae:	b8 f9       	st.b	r12[0x7],r9
80003eb0:	17 e9       	ld.ub	r9,r11[0x6]
80003eb2:	b8 e9       	st.b	r12[0x6],r9
80003eb4:	17 d9       	ld.ub	r9,r11[0x5]
80003eb6:	b8 d9       	st.b	r12[0x5],r9
80003eb8:	17 c9       	ld.ub	r9,r11[0x4]
80003eba:	b8 c9       	st.b	r12[0x4],r9
80003ebc:	17 b9       	ld.ub	r9,r11[0x3]
80003ebe:	b8 b9       	st.b	r12[0x3],r9
80003ec0:	17 a9       	ld.ub	r9,r11[0x2]
80003ec2:	b8 a9       	st.b	r12[0x2],r9
80003ec4:	17 99       	ld.ub	r9,r11[0x1]
80003ec6:	b8 99       	st.b	r12[0x1],r9
80003ec8:	17 89       	ld.ub	r9,r11[0x0]
80003eca:	b8 89       	st.b	r12[0x0],r9
80003ecc:	5e fc       	retal	r12
80003ece:	eb cd 40 c0 	pushm	r6-r7,lr
80003ed2:	18 99       	mov	r9,r12
80003ed4:	22 0a       	sub	r10,32
80003ed6:	b7 07       	ld.d	r6,r11++
80003ed8:	b3 26       	st.d	r9++,r6
80003eda:	b7 07       	ld.d	r6,r11++
80003edc:	b3 26       	st.d	r9++,r6
80003ede:	b7 07       	ld.d	r6,r11++
80003ee0:	b3 26       	st.d	r9++,r6
80003ee2:	b7 07       	ld.d	r6,r11++
80003ee4:	b3 26       	st.d	r9++,r6
80003ee6:	22 0a       	sub	r10,32
80003ee8:	cf 74       	brge	80003ed6 <memcpy+0x92>
80003eea:	2f 0a       	sub	r10,-16
80003eec:	c0 65       	brlt	80003ef8 <memcpy+0xb4>
80003eee:	b7 07       	ld.d	r6,r11++
80003ef0:	b3 26       	st.d	r9++,r6
80003ef2:	b7 07       	ld.d	r6,r11++
80003ef4:	b3 26       	st.d	r9++,r6
80003ef6:	21 0a       	sub	r10,16
80003ef8:	5c 3a       	neg	r10
80003efa:	fe 0a 00 3f 	add	pc,pc,r10<<0x3
80003efe:	d7 03       	nop
80003f00:	d7 03       	nop
80003f02:	f7 36 00 0e 	ld.ub	r6,r11[14]
80003f06:	f3 66 00 0e 	st.b	r9[14],r6
80003f0a:	f7 36 00 0d 	ld.ub	r6,r11[13]
80003f0e:	f3 66 00 0d 	st.b	r9[13],r6
80003f12:	f7 36 00 0c 	ld.ub	r6,r11[12]
80003f16:	f3 66 00 0c 	st.b	r9[12],r6
80003f1a:	f7 36 00 0b 	ld.ub	r6,r11[11]
80003f1e:	f3 66 00 0b 	st.b	r9[11],r6
80003f22:	f7 36 00 0a 	ld.ub	r6,r11[10]
80003f26:	f3 66 00 0a 	st.b	r9[10],r6
80003f2a:	f7 36 00 09 	ld.ub	r6,r11[9]
80003f2e:	f3 66 00 09 	st.b	r9[9],r6
80003f32:	f7 36 00 08 	ld.ub	r6,r11[8]
80003f36:	f3 66 00 08 	st.b	r9[8],r6
80003f3a:	f7 36 00 07 	ld.ub	r6,r11[7]
80003f3e:	f3 66 00 07 	st.b	r9[7],r6
80003f42:	f7 36 00 06 	ld.ub	r6,r11[6]
80003f46:	f3 66 00 06 	st.b	r9[6],r6
80003f4a:	f7 36 00 05 	ld.ub	r6,r11[5]
80003f4e:	f3 66 00 05 	st.b	r9[5],r6
80003f52:	f7 36 00 04 	ld.ub	r6,r11[4]
80003f56:	f3 66 00 04 	st.b	r9[4],r6
80003f5a:	f7 36 00 03 	ld.ub	r6,r11[3]
80003f5e:	f3 66 00 03 	st.b	r9[3],r6
80003f62:	f7 36 00 02 	ld.ub	r6,r11[2]
80003f66:	f3 66 00 02 	st.b	r9[2],r6
80003f6a:	f7 36 00 01 	ld.ub	r6,r11[1]
80003f6e:	f3 66 00 01 	st.b	r9[1],r6
80003f72:	f7 36 00 00 	ld.ub	r6,r11[0]
80003f76:	f3 66 00 00 	st.b	r9[0],r6
80003f7a:	e3 cd 80 c0 	ldm	sp++,r6-r7,pc
80003f7e:	20 1a       	sub	r10,1
80003f80:	f6 0a 07 09 	ld.ub	r9,r11[r10]
80003f84:	f8 0a 0b 09 	st.b	r12[r10],r9
80003f88:	cf b1       	brne	80003f7e <memcpy+0x13a>
80003f8a:	5e fc       	retal	r12

80003f8c <__malloc_lock>:
80003f8c:	5e fc       	retal	r12

80003f8e <__malloc_unlock>:
80003f8e:	5e fc       	retal	r12

80003f90 <_sbrk_r>:
80003f90:	d4 21       	pushm	r4-r7,lr
80003f92:	30 08       	mov	r8,0
80003f94:	18 97       	mov	r7,r12
80003f96:	e0 66 06 2c 	mov	r6,1580
80003f9a:	16 9c       	mov	r12,r11
80003f9c:	8d 08       	st.w	r6[0x0],r8
80003f9e:	c0 9c       	rcall	80003fb0 <_sbrk>
80003fa0:	5b fc       	cp.w	r12,-1
80003fa2:	c0 51       	brne	80003fac <_sbrk_r+0x1c>
80003fa4:	6c 08       	ld.w	r8,r6[0x0]
80003fa6:	58 08       	cp.w	r8,0
80003fa8:	ef f8 1a 03 	st.wne	r7[0xc],r8
80003fac:	d8 22       	popm	r4-r7,pc
80003fae:	d7 03       	nop

80003fb0 <_sbrk>:
80003fb0:	d4 01       	pushm	lr
80003fb2:	e0 68 06 24 	mov	r8,1572
80003fb6:	70 09       	ld.w	r9,r8[0x0]
80003fb8:	58 09       	cp.w	r9,0
80003fba:	c0 41       	brne	80003fc2 <_sbrk+0x12>
80003fbc:	e0 69 06 30 	mov	r9,1584
80003fc0:	91 09       	st.w	r8[0x0],r9
80003fc2:	e0 69 06 24 	mov	r9,1572
80003fc6:	e0 6a f0 00 	mov	r10,61440
80003fca:	72 08       	ld.w	r8,r9[0x0]
80003fcc:	f0 0c 00 0c 	add	r12,r8,r12
80003fd0:	14 3c       	cp.w	r12,r10
80003fd2:	e0 8b 00 04 	brhi	80003fda <_sbrk+0x2a>
80003fd6:	93 0c       	st.w	r9[0x0],r12
80003fd8:	c0 58       	rjmp	80003fe2 <_sbrk+0x32>
80003fda:	c0 7c       	rcall	80003fe8 <__errno>
80003fdc:	30 c8       	mov	r8,12
80003fde:	99 08       	st.w	r12[0x0],r8
80003fe0:	3f f8       	mov	r8,-1
80003fe2:	10 9c       	mov	r12,r8
80003fe4:	d8 02       	popm	pc
80003fe6:	d7 03       	nop

80003fe8 <__errno>:
80003fe8:	e0 68 05 14 	mov	r8,1300
80003fec:	70 0c       	ld.w	r12,r8[0x0]
80003fee:	2f 4c       	sub	r12,-12
80003ff0:	5e fc       	retal	r12
80003ff2:	d7 03       	nop

80003ff4 <_malloc_trim_r>:
80003ff4:	d4 21       	pushm	r4-r7,lr
80003ff6:	16 95       	mov	r5,r11
80003ff8:	18 97       	mov	r7,r12
80003ffa:	cc 9f       	rcall	80003f8c <__malloc_lock>
80003ffc:	31 44       	mov	r4,20
80003ffe:	68 28       	ld.w	r8,r4[0x8]
80004000:	70 16       	ld.w	r6,r8[0x4]
80004002:	e0 16 ff fc 	andl	r6,0xfffc
80004006:	ec c8 ff 91 	sub	r8,r6,-111
8000400a:	f0 05 01 05 	sub	r5,r8,r5
8000400e:	e0 15 ff 80 	andl	r5,0xff80
80004012:	ea c5 00 80 	sub	r5,r5,128
80004016:	e0 45 00 7f 	cp.w	r5,127
8000401a:	e0 8a 00 22 	brle	8000405e <_malloc_trim_r+0x6a>
8000401e:	30 0b       	mov	r11,0
80004020:	0e 9c       	mov	r12,r7
80004022:	cb 7f       	rcall	80003f90 <_sbrk_r>
80004024:	68 28       	ld.w	r8,r4[0x8]
80004026:	0c 08       	add	r8,r6
80004028:	10 3c       	cp.w	r12,r8
8000402a:	c1 a1       	brne	8000405e <_malloc_trim_r+0x6a>
8000402c:	ea 0b 11 00 	rsub	r11,r5,0
80004030:	0e 9c       	mov	r12,r7
80004032:	ca ff       	rcall	80003f90 <_sbrk_r>
80004034:	5b fc       	cp.w	r12,-1
80004036:	c1 71       	brne	80004064 <_malloc_trim_r+0x70>
80004038:	30 0b       	mov	r11,0
8000403a:	0e 9c       	mov	r12,r7
8000403c:	ca af       	rcall	80003f90 <_sbrk_r>
8000403e:	68 28       	ld.w	r8,r4[0x8]
80004040:	f8 08 01 09 	sub	r9,r12,r8
80004044:	58 f9       	cp.w	r9,15
80004046:	e0 8a 00 0c 	brle	8000405e <_malloc_trim_r+0x6a>
8000404a:	a1 a9       	sbr	r9,0x0
8000404c:	91 19       	st.w	r8[0x4],r9
8000404e:	e0 68 04 20 	mov	r8,1056
80004052:	70 09       	ld.w	r9,r8[0x0]
80004054:	e0 68 05 fc 	mov	r8,1532
80004058:	f8 09 01 09 	sub	r9,r12,r9
8000405c:	91 09       	st.w	r8[0x0],r9
8000405e:	0e 9c       	mov	r12,r7
80004060:	c9 7f       	rcall	80003f8e <__malloc_unlock>
80004062:	d8 2a       	popm	r4-r7,pc,r12=0
80004064:	68 28       	ld.w	r8,r4[0x8]
80004066:	0a 16       	sub	r6,r5
80004068:	a1 a6       	sbr	r6,0x0
8000406a:	91 16       	st.w	r8[0x4],r6
8000406c:	e0 68 05 fc 	mov	r8,1532
80004070:	70 09       	ld.w	r9,r8[0x0]
80004072:	0a 19       	sub	r9,r5
80004074:	0e 9c       	mov	r12,r7
80004076:	91 09       	st.w	r8[0x0],r9
80004078:	c8 bf       	rcall	80003f8e <__malloc_unlock>
8000407a:	da 2a       	popm	r4-r7,pc,r12=1

8000407c <_free_r>:
8000407c:	d4 21       	pushm	r4-r7,lr
8000407e:	16 96       	mov	r6,r11
80004080:	18 97       	mov	r7,r12
80004082:	58 0b       	cp.w	r11,0
80004084:	e0 80 00 bb 	breq	800041fa <_free_r+0x17e>
80004088:	c8 2f       	rcall	80003f8c <__malloc_lock>
8000408a:	20 86       	sub	r6,8
8000408c:	31 4a       	mov	r10,20
8000408e:	6c 18       	ld.w	r8,r6[0x4]
80004090:	74 2e       	ld.w	lr,r10[0x8]
80004092:	f9 d8 c0 01 	bfextu	r12,r8,0x0,0x1
80004096:	a1 c8       	cbr	r8,0x0
80004098:	ec 08 00 09 	add	r9,r6,r8
8000409c:	72 1b       	ld.w	r11,r9[0x4]
8000409e:	e0 1b ff fc 	andl	r11,0xfffc
800040a2:	1c 39       	cp.w	r9,lr
800040a4:	c1 d1       	brne	800040de <_free_r+0x62>
800040a6:	f6 08 00 08 	add	r8,r11,r8
800040aa:	58 0c       	cp.w	r12,0
800040ac:	c0 81       	brne	800040bc <_free_r+0x40>
800040ae:	6c 09       	ld.w	r9,r6[0x0]
800040b0:	12 16       	sub	r6,r9
800040b2:	12 08       	add	r8,r9
800040b4:	6c 3b       	ld.w	r11,r6[0xc]
800040b6:	6c 29       	ld.w	r9,r6[0x8]
800040b8:	97 29       	st.w	r11[0x8],r9
800040ba:	93 3b       	st.w	r9[0xc],r11
800040bc:	10 99       	mov	r9,r8
800040be:	95 26       	st.w	r10[0x8],r6
800040c0:	a1 a9       	sbr	r9,0x0
800040c2:	8d 19       	st.w	r6[0x4],r9
800040c4:	e0 69 04 1c 	mov	r9,1052
800040c8:	72 09       	ld.w	r9,r9[0x0]
800040ca:	12 38       	cp.w	r8,r9
800040cc:	c0 63       	brcs	800040d8 <_free_r+0x5c>
800040ce:	e0 68 05 f8 	mov	r8,1528
800040d2:	0e 9c       	mov	r12,r7
800040d4:	70 0b       	ld.w	r11,r8[0x0]
800040d6:	c8 ff       	rcall	80003ff4 <_malloc_trim_r>
800040d8:	0e 9c       	mov	r12,r7
800040da:	c5 af       	rcall	80003f8e <__malloc_unlock>
800040dc:	d8 22       	popm	r4-r7,pc
800040de:	93 1b       	st.w	r9[0x4],r11
800040e0:	58 0c       	cp.w	r12,0
800040e2:	c0 30       	breq	800040e8 <_free_r+0x6c>
800040e4:	30 0c       	mov	r12,0
800040e6:	c1 08       	rjmp	80004106 <_free_r+0x8a>
800040e8:	6c 0e       	ld.w	lr,r6[0x0]
800040ea:	f4 c5 ff f8 	sub	r5,r10,-8
800040ee:	1c 16       	sub	r6,lr
800040f0:	1c 08       	add	r8,lr
800040f2:	6c 2e       	ld.w	lr,r6[0x8]
800040f4:	0a 3e       	cp.w	lr,r5
800040f6:	f9 bc 00 01 	moveq	r12,1
800040fa:	ed f5 10 03 	ld.wne	r5,r6[0xc]
800040fe:	eb fe 1a 02 	st.wne	r5[0x8],lr
80004102:	fd f5 1a 03 	st.wne	lr[0xc],r5
80004106:	f2 0b 00 0e 	add	lr,r9,r11
8000410a:	7c 1e       	ld.w	lr,lr[0x4]
8000410c:	ed be 00 00 	bld	lr,0x0
80004110:	c1 30       	breq	80004136 <_free_r+0xba>
80004112:	16 08       	add	r8,r11
80004114:	58 0c       	cp.w	r12,0
80004116:	c0 c1       	brne	8000412e <_free_r+0xb2>
80004118:	31 4e       	mov	lr,20
8000411a:	72 2b       	ld.w	r11,r9[0x8]
8000411c:	2f 8e       	sub	lr,-8
8000411e:	1c 3b       	cp.w	r11,lr
80004120:	c0 71       	brne	8000412e <_free_r+0xb2>
80004122:	97 36       	st.w	r11[0xc],r6
80004124:	97 26       	st.w	r11[0x8],r6
80004126:	8d 2b       	st.w	r6[0x8],r11
80004128:	8d 3b       	st.w	r6[0xc],r11
8000412a:	30 1c       	mov	r12,1
8000412c:	c0 58       	rjmp	80004136 <_free_r+0xba>
8000412e:	72 2b       	ld.w	r11,r9[0x8]
80004130:	72 39       	ld.w	r9,r9[0xc]
80004132:	93 2b       	st.w	r9[0x8],r11
80004134:	97 39       	st.w	r11[0xc],r9
80004136:	10 99       	mov	r9,r8
80004138:	ec 08 09 08 	st.w	r6[r8],r8
8000413c:	a1 a9       	sbr	r9,0x0
8000413e:	8d 19       	st.w	r6[0x4],r9
80004140:	58 0c       	cp.w	r12,0
80004142:	c5 a1       	brne	800041f6 <_free_r+0x17a>
80004144:	e0 48 01 ff 	cp.w	r8,511
80004148:	e0 8b 00 13 	brhi	8000416e <_free_r+0xf2>
8000414c:	a3 98       	lsr	r8,0x3
8000414e:	f4 08 00 39 	add	r9,r10,r8<<0x3
80004152:	72 2b       	ld.w	r11,r9[0x8]
80004154:	8d 39       	st.w	r6[0xc],r9
80004156:	8d 2b       	st.w	r6[0x8],r11
80004158:	97 36       	st.w	r11[0xc],r6
8000415a:	93 26       	st.w	r9[0x8],r6
8000415c:	a3 48       	asr	r8,0x2
8000415e:	74 19       	ld.w	r9,r10[0x4]
80004160:	30 1b       	mov	r11,1
80004162:	f6 08 09 48 	lsl	r8,r11,r8
80004166:	f3 e8 10 08 	or	r8,r9,r8
8000416a:	95 18       	st.w	r10[0x4],r8
8000416c:	c4 58       	rjmp	800041f6 <_free_r+0x17a>
8000416e:	f0 0b 16 09 	lsr	r11,r8,0x9
80004172:	58 4b       	cp.w	r11,4
80004174:	e0 8b 00 06 	brhi	80004180 <_free_r+0x104>
80004178:	f0 0b 16 06 	lsr	r11,r8,0x6
8000417c:	2c 8b       	sub	r11,-56
8000417e:	c2 08       	rjmp	800041be <_free_r+0x142>
80004180:	59 4b       	cp.w	r11,20
80004182:	e0 8b 00 04 	brhi	8000418a <_free_r+0x10e>
80004186:	2a 5b       	sub	r11,-91
80004188:	c1 b8       	rjmp	800041be <_free_r+0x142>
8000418a:	e0 4b 00 54 	cp.w	r11,84
8000418e:	e0 8b 00 06 	brhi	8000419a <_free_r+0x11e>
80004192:	f0 0b 16 0c 	lsr	r11,r8,0xc
80004196:	29 2b       	sub	r11,-110
80004198:	c1 38       	rjmp	800041be <_free_r+0x142>
8000419a:	e0 4b 01 54 	cp.w	r11,340
8000419e:	e0 8b 00 06 	brhi	800041aa <_free_r+0x12e>
800041a2:	f0 0b 16 0f 	lsr	r11,r8,0xf
800041a6:	28 9b       	sub	r11,-119
800041a8:	c0 b8       	rjmp	800041be <_free_r+0x142>
800041aa:	e0 4b 05 54 	cp.w	r11,1364
800041ae:	e0 88 00 05 	brls	800041b8 <_free_r+0x13c>
800041b2:	37 eb       	mov	r11,126
800041b4:	c0 58       	rjmp	800041be <_free_r+0x142>
800041b6:	d7 03       	nop
800041b8:	f0 0b 16 12 	lsr	r11,r8,0x12
800041bc:	28 4b       	sub	r11,-124
800041be:	f4 0b 00 3c 	add	r12,r10,r11<<0x3
800041c2:	78 29       	ld.w	r9,r12[0x8]
800041c4:	18 39       	cp.w	r9,r12
800041c6:	c0 e1       	brne	800041e2 <_free_r+0x166>
800041c8:	74 18       	ld.w	r8,r10[0x4]
800041ca:	a3 4b       	asr	r11,0x2
800041cc:	30 1c       	mov	r12,1
800041ce:	f8 0b 09 4b 	lsl	r11,r12,r11
800041d2:	f1 eb 10 0b 	or	r11,r8,r11
800041d6:	12 98       	mov	r8,r9
800041d8:	95 1b       	st.w	r10[0x4],r11
800041da:	c0 a8       	rjmp	800041ee <_free_r+0x172>
800041dc:	72 29       	ld.w	r9,r9[0x8]
800041de:	18 39       	cp.w	r9,r12
800041e0:	c0 60       	breq	800041ec <_free_r+0x170>
800041e2:	72 1a       	ld.w	r10,r9[0x4]
800041e4:	e0 1a ff fc 	andl	r10,0xfffc
800041e8:	14 38       	cp.w	r8,r10
800041ea:	cf 93       	brcs	800041dc <_free_r+0x160>
800041ec:	72 38       	ld.w	r8,r9[0xc]
800041ee:	8d 38       	st.w	r6[0xc],r8
800041f0:	8d 29       	st.w	r6[0x8],r9
800041f2:	93 36       	st.w	r9[0xc],r6
800041f4:	91 26       	st.w	r8[0x8],r6
800041f6:	0e 9c       	mov	r12,r7
800041f8:	cc be       	rcall	80003f8e <__malloc_unlock>
800041fa:	d8 22       	popm	r4-r7,pc

Disassembly of section .exception:

80004200 <_evba>:
80004200:	c0 08       	rjmp	80004200 <_evba>
	...

80004204 <_handle_TLB_Multiple_Hit>:
80004204:	c0 08       	rjmp	80004204 <_handle_TLB_Multiple_Hit>
	...

80004208 <_handle_Bus_Error_Data_Fetch>:
80004208:	c0 08       	rjmp	80004208 <_handle_Bus_Error_Data_Fetch>
	...

8000420c <_handle_Bus_Error_Instruction_Fetch>:
8000420c:	c0 08       	rjmp	8000420c <_handle_Bus_Error_Instruction_Fetch>
	...

80004210 <_handle_NMI>:
80004210:	c0 08       	rjmp	80004210 <_handle_NMI>
	...

80004214 <_handle_Instruction_Address>:
80004214:	c0 08       	rjmp	80004214 <_handle_Instruction_Address>
	...

80004218 <_handle_ITLB_Protection>:
80004218:	c0 08       	rjmp	80004218 <_handle_ITLB_Protection>
	...

8000421c <_handle_Breakpoint>:
	rjmp $

	.org  0x01C
	// Breakpoint.
_handle_Breakpoint:
	rjmp $
8000421c:	c0 08       	rjmp	8000421c <_handle_Breakpoint>
	...

80004220 <_handle_Illegal_Opcode>:

	.org  0x020
	// Illegal Opcode.
_handle_Illegal_Opcode:
	rjmp $
80004220:	c0 08       	rjmp	80004220 <_handle_Illegal_Opcode>
	...

80004224 <_handle_Unimplemented_Instruction>:

	.org  0x024
	// Unimplemented Instruction.
_handle_Unimplemented_Instruction:
	rjmp $
80004224:	c0 08       	rjmp	80004224 <_handle_Unimplemented_Instruction>
	...

80004228 <_handle_Privilege_Violation>:

	.org  0x028
	// Privilege Violation.
_handle_Privilege_Violation:
	rjmp $
80004228:	c0 08       	rjmp	80004228 <_handle_Privilege_Violation>
	...

8000422c <_handle_Floating_Point>:

	.org  0x02C
	// Floating-Point: UNUSED IN AVR32UC and AVR32AP.
_handle_Floating_Point:
	rjmp $
8000422c:	c0 08       	rjmp	8000422c <_handle_Floating_Point>
	...

80004230 <_handle_Coprocessor_Absent>:

	.org  0x030
	// Coprocessor Absent: UNUSED IN AVR32UC.
_handle_Coprocessor_Absent:
	rjmp $
80004230:	c0 08       	rjmp	80004230 <_handle_Coprocessor_Absent>
	...

80004234 <_handle_Data_Address_Read>:

	.org  0x034
	// Data Address (Read).
_handle_Data_Address_Read:
	rjmp $
80004234:	c0 08       	rjmp	80004234 <_handle_Data_Address_Read>
	...

80004238 <_handle_Data_Address_Write>:

	.org  0x038
	// Data Address (Write).
_handle_Data_Address_Write:
	rjmp $
80004238:	c0 08       	rjmp	80004238 <_handle_Data_Address_Write>
	...

8000423c <_handle_DTLB_Protection_Read>:

	.org  0x03C
	// DTLB Protection (Read).
_handle_DTLB_Protection_Read:
	rjmp $
8000423c:	c0 08       	rjmp	8000423c <_handle_DTLB_Protection_Read>
	...

80004240 <_handle_DTLB_Protection_Write>:

	.org  0x040
	// DTLB Protection (Write).
_handle_DTLB_Protection_Write:
	rjmp $
80004240:	c0 08       	rjmp	80004240 <_handle_DTLB_Protection_Write>
	...

80004244 <_handle_DTLB_Modified>:

	.org  0x044
	// DTLB Modified: UNUSED IN AVR32UC.
_handle_DTLB_Modified:
	rjmp $
80004244:	c0 08       	rjmp	80004244 <_handle_DTLB_Modified>
	...

80004250 <_handle_ITLB_Miss>:

	.org  0x050
	// ITLB Miss.
_handle_ITLB_Miss:
	rjmp $
80004250:	c0 08       	rjmp	80004250 <_handle_ITLB_Miss>
	...

80004260 <_handle_DTLB_Miss_Read>:

	.org  0x060
	// DTLB Miss (Read).
_handle_DTLB_Miss_Read:
	rjmp $
80004260:	c0 08       	rjmp	80004260 <_handle_DTLB_Miss_Read>
	...

80004270 <_handle_DTLB_Miss_Write>:

	.org  0x070
	// DTLB Miss (Write).
_handle_DTLB_Miss_Write:
	rjmp $
80004270:	c0 08       	rjmp	80004270 <_handle_DTLB_Miss_Write>
	...

80004300 <_handle_Supervisor_Call>:

	.org  0x100
	// Supervisor Call.
_handle_Supervisor_Call:
	rjmp $
80004300:	c0 08       	rjmp	80004300 <_handle_Supervisor_Call>
80004302:	d7 03       	nop

80004304 <_int0>:
	 * RSR_INTx by the CPU upon interrupt entry. No other register is saved
	 * by hardware.
	 */
	pushm   r8-r12, lr
#endif
	// Pass the int_level parameter to the _get_interrupt_handler function.
80004304:	30 0c       	mov	r12,0
80004306:	fe b0 ee e3 	rcall	800020cc <_get_interrupt_handler>
8000430a:	58 0c       	cp.w	r12,0
8000430c:	f8 0f 17 10 	movne	pc,r12
	popm    r8-r12, lr
#endif
	/*
	 * If this was a spurious interrupt (R12 == NULL), return from event
	 * handler.
	 */
80004310:	d6 03       	rete

80004312 <_int1>:
	 * RSR_INTx by the CPU upon interrupt entry. No other register is saved
	 * by hardware.
	 */
	pushm   r8-r12, lr
#endif
	// Pass the int_level parameter to the _get_interrupt_handler function.
80004312:	30 1c       	mov	r12,1
80004314:	fe b0 ee dc 	rcall	800020cc <_get_interrupt_handler>
80004318:	58 0c       	cp.w	r12,0
8000431a:	f8 0f 17 10 	movne	pc,r12
	popm    r8-r12, lr
#endif
	/*
	 * If this was a spurious interrupt (R12 == NULL), return from event
	 * handler.
	 */
8000431e:	d6 03       	rete

80004320 <_int2>:
	 * RSR_INTx by the CPU upon interrupt entry. No other register is saved
	 * by hardware.
	 */
	pushm   r8-r12, lr
#endif
	// Pass the int_level parameter to the _get_interrupt_handler function.
80004320:	30 2c       	mov	r12,2
80004322:	fe b0 ee d5 	rcall	800020cc <_get_interrupt_handler>
80004326:	58 0c       	cp.w	r12,0
80004328:	f8 0f 17 10 	movne	pc,r12
	popm    r8-r12, lr
#endif
	/*
	 * If this was a spurious interrupt (R12 == NULL), return from event
	 * handler.
	 */
8000432c:	d6 03       	rete

8000432e <_int3>:
	 * RSR_INTx by the CPU upon interrupt entry. No other register is saved
	 * by hardware.
	 */
	pushm   r8-r12, lr
#endif
	// Pass the int_level parameter to the _get_interrupt_handler function.
8000432e:	30 3c       	mov	r12,3
80004330:	fe b0 ee ce 	rcall	800020cc <_get_interrupt_handler>
80004334:	58 0c       	cp.w	r12,0
80004336:	f8 0f 17 10 	movne	pc,r12
	popm    r8-r12, lr
#endif
	/*
	 * If this was a spurious interrupt (R12 == NULL), return from event
	 * handler.
	 */
8000433a:	d6 03       	rete
8000433c:	d7 03       	nop
8000433e:	d7 03       	nop
80004340:	d7 03       	nop
80004342:	d7 03       	nop
80004344:	d7 03       	nop
80004346:	d7 03       	nop
80004348:	d7 03       	nop
8000434a:	d7 03       	nop
8000434c:	d7 03       	nop
8000434e:	d7 03       	nop
80004350:	d7 03       	nop
80004352:	d7 03       	nop
80004354:	d7 03       	nop
80004356:	d7 03       	nop
80004358:	d7 03       	nop
8000435a:	d7 03       	nop
8000435c:	d7 03       	nop
8000435e:	d7 03       	nop
80004360:	d7 03       	nop
80004362:	d7 03       	nop
80004364:	d7 03       	nop
80004366:	d7 03       	nop
80004368:	d7 03       	nop
8000436a:	d7 03       	nop
8000436c:	d7 03       	nop
8000436e:	d7 03       	nop
80004370:	d7 03       	nop
80004372:	d7 03       	nop
80004374:	d7 03       	nop
80004376:	d7 03       	nop
80004378:	d7 03       	nop
8000437a:	d7 03       	nop
8000437c:	d7 03       	nop
8000437e:	d7 03       	nop
80004380:	d7 03       	nop
80004382:	d7 03       	nop
80004384:	d7 03       	nop
80004386:	d7 03       	nop
80004388:	d7 03       	nop
8000438a:	d7 03       	nop
8000438c:	d7 03       	nop
8000438e:	d7 03       	nop
80004390:	d7 03       	nop
80004392:	d7 03       	nop
80004394:	d7 03       	nop
80004396:	d7 03       	nop
80004398:	d7 03       	nop
8000439a:	d7 03       	nop
8000439c:	d7 03       	nop
8000439e:	d7 03       	nop
800043a0:	d7 03       	nop
800043a2:	d7 03       	nop
800043a4:	d7 03       	nop
800043a6:	d7 03       	nop
800043a8:	d7 03       	nop
800043aa:	d7 03       	nop
800043ac:	d7 03       	nop
800043ae:	d7 03       	nop
800043b0:	d7 03       	nop
800043b2:	d7 03       	nop
800043b4:	d7 03       	nop
800043b6:	d7 03       	nop
800043b8:	d7 03       	nop
800043ba:	d7 03       	nop
800043bc:	d7 03       	nop
800043be:	d7 03       	nop
800043c0:	d7 03       	nop
800043c2:	d7 03       	nop
800043c4:	d7 03       	nop
800043c6:	d7 03       	nop
800043c8:	d7 03       	nop
800043ca:	d7 03       	nop
800043cc:	d7 03       	nop
800043ce:	d7 03       	nop
800043d0:	d7 03       	nop
800043d2:	d7 03       	nop
800043d4:	d7 03       	nop
800043d6:	d7 03       	nop
800043d8:	d7 03       	nop
800043da:	d7 03       	nop
800043dc:	d7 03       	nop
800043de:	d7 03       	nop
800043e0:	d7 03       	nop
800043e2:	d7 03       	nop
800043e4:	d7 03       	nop
800043e6:	d7 03       	nop
800043e8:	d7 03       	nop
800043ea:	d7 03       	nop
800043ec:	d7 03       	nop
800043ee:	d7 03       	nop
800043f0:	d7 03       	nop
800043f2:	d7 03       	nop
800043f4:	d7 03       	nop
800043f6:	d7 03       	nop
800043f8:	d7 03       	nop
800043fa:	d7 03       	nop
800043fc:	d7 03       	nop
800043fe:	d7 03       	nop
