
Command.elf:     file format elf32-avr32

Sections:
Idx Name          Size      VMA       LMA       File off  Algn
  0 .reset        00002004  80000000  80000000  00000400  2**2
                  CONTENTS, ALLOC, LOAD, READONLY, CODE
  1 .rela.got     00000000  80002004  80002004  00002404  2**2
                  CONTENTS, ALLOC, LOAD, READONLY, DATA
  2 .text         00001d98  80002004  80002004  00002404  2**2
                  CONTENTS, ALLOC, LOAD, READONLY, CODE
  3 .exception    00000200  80003e00  80003e00  00004200  2**9
                  CONTENTS, ALLOC, LOAD, READONLY, CODE
  4 .rodata       000034b4  80004000  80004000  00004400  2**2
                  CONTENTS, ALLOC, LOAD, READONLY, DATA
  5 .dalign       00000004  800074b4  800074b4  000078b4  2**0
                  ALLOC
  6 .data         00000004  00000004  800074b8  00007c04  2**1
                  CONTENTS, ALLOC, LOAD, DATA
  7 .bss          00000170  00000008  800074bc  00007c08  2**2
                  ALLOC
  8 .comment      00000030  00000000  00000000  00007c08  2**0
                  CONTENTS, READONLY
  9 .debug_aranges 00000930  00000000  00000000  00007c38  2**3
                  CONTENTS, READONLY, DEBUGGING
 10 .debug_pubnames 0000166c  00000000  00000000  00008568  2**0
                  CONTENTS, READONLY, DEBUGGING
 11 .debug_info   0000cf01  00000000  00000000  00009bd4  2**0
                  CONTENTS, READONLY, DEBUGGING
 12 .debug_abbrev 00002189  00000000  00000000  00016ad5  2**0
                  CONTENTS, READONLY, DEBUGGING
 13 .debug_line   0000a7a1  00000000  00000000  00018c5e  2**0
                  CONTENTS, READONLY, DEBUGGING
 14 .debug_frame  00001970  00000000  00000000  00023400  2**2
                  CONTENTS, READONLY, DEBUGGING
 15 .debug_str    00002d8d  00000000  00000000  00024d70  2**0
                  CONTENTS, READONLY, DEBUGGING
 16 .debug_loc    000039e3  00000000  00000000  00027afd  2**0
                  CONTENTS, READONLY, DEBUGGING
 17 .debug_macinfo 00ff563f  00000000  00000000  0002b4e0  2**0
                  CONTENTS, READONLY, DEBUGGING
 18 .stack        00001000  0000f000  0000f000  00000400  2**0
                  ALLOC
 19 .debug_ranges 000009f8  00000000  00000000  01020b20  2**3
                  CONTENTS, READONLY, DEBUGGING

Disassembly of section .reset:

80000000 <_trampoline>:

  .global _trampoline
  .type _trampoline, @function
_trampoline:
  // Jump to program start.
  rjmp    program_start
80000000:	e0 8f 10 00 	bral	80002000 <program_start>
	...

80002000 <program_start>:

  .org  PROGRAM_START_OFFSET
program_start:
  // Jump to the C runtime startup routine.
  lda.w   pc, _stext
80002000:	fe cf f7 44 	sub	pc,pc,-2236

Disassembly of section .text:

80002004 <flashc_set_wait_state>:
80002004:	fe 68 14 00 	mov	r8,-125952
}


void flashc_set_wait_state(unsigned int wait_state)
{
	u_avr32_flashc_fcr_t u_avr32_flashc_fcr = {AVR32_FLASHC.fcr};
80002008:	70 09       	ld.w	r9,r8[0x0]
	u_avr32_flashc_fcr.FCR.fws = wait_state;
8000200a:	f3 dc d0 c1 	bfins	r9,r12,0x6,0x1
	AVR32_FLASHC.fcr = u_avr32_flashc_fcr.fcr;
8000200e:	91 09       	st.w	r8[0x0],r9
}
80002010:	5e fc       	retal	r12

80002012 <gpio_enable_module_pin>:
 *
 * \return \ref GPIO_SUCCESS or \ref GPIO_INVALID_ARGUMENT.
 */
uint32_t gpio_enable_module_pin(uint32_t pin, uint32_t function)
{
	volatile avr32_gpio_port_t *gpio_port = &AVR32_GPIO.port[pin >> 5];
80002012:	f8 08 16 05 	lsr	r8,r12,0x5
80002016:	a9 68       	lsl	r8,0x8
80002018:	e0 28 f0 00 	sub	r8,61440

	/* Enable the correct function. */
	switch (function) {
8000201c:	58 1b       	cp.w	r11,1
8000201e:	c0 d0       	breq	80002038 <gpio_enable_module_pin+0x26>
80002020:	c0 63       	brcs	8000202c <gpio_enable_module_pin+0x1a>
80002022:	58 2b       	cp.w	r11,2
80002024:	c1 00       	breq	80002044 <gpio_enable_module_pin+0x32>
80002026:	58 3b       	cp.w	r11,3
80002028:	c1 40       	breq	80002050 <gpio_enable_module_pin+0x3e>
8000202a:	5e ff       	retal	1
	case 0: /* A function. */
		gpio_port->pmr0c = 1 << (pin & 0x1F);
8000202c:	30 19       	mov	r9,1
8000202e:	f2 0c 09 49 	lsl	r9,r9,r12
80002032:	91 69       	st.w	r8[0x18],r9
		gpio_port->pmr1c = 1 << (pin & 0x1F);
80002034:	91 a9       	st.w	r8[0x28],r9
#if (AVR32_GPIO_H_VERSION >= 210)
		gpio_port->pmr2c = 1 << (pin & 0x1F);
#endif
		break;
80002036:	c1 28       	rjmp	8000205a <gpio_enable_module_pin+0x48>

	case 1: /* B function. */
		gpio_port->pmr0s = 1 << (pin & 0x1F);
80002038:	30 19       	mov	r9,1
8000203a:	f2 0c 09 49 	lsl	r9,r9,r12
8000203e:	91 59       	st.w	r8[0x14],r9
		gpio_port->pmr1c = 1 << (pin & 0x1F);
80002040:	91 a9       	st.w	r8[0x28],r9
#if (AVR32_GPIO_H_VERSION >= 210)
		gpio_port->pmr2c = 1 << (pin & 0x1F);
#endif
		break;
80002042:	c0 c8       	rjmp	8000205a <gpio_enable_module_pin+0x48>

	case 2: /* C function. */
		gpio_port->pmr0c = 1 << (pin & 0x1F);
80002044:	30 19       	mov	r9,1
80002046:	f2 0c 09 49 	lsl	r9,r9,r12
8000204a:	91 69       	st.w	r8[0x18],r9
		gpio_port->pmr1s = 1 << (pin & 0x1F);
8000204c:	91 99       	st.w	r8[0x24],r9
#if (AVR32_GPIO_H_VERSION >= 210)
		gpio_port->pmr2c = 1 << (pin & 0x1F);
#endif
		break;
8000204e:	c0 68       	rjmp	8000205a <gpio_enable_module_pin+0x48>

	case 3: /* D function. */
		gpio_port->pmr0s = 1 << (pin & 0x1F);
80002050:	30 19       	mov	r9,1
80002052:	f2 0c 09 49 	lsl	r9,r9,r12
80002056:	91 59       	st.w	r8[0x14],r9
		gpio_port->pmr1s = 1 << (pin & 0x1F);
80002058:	91 99       	st.w	r8[0x24],r9
	default:
		return GPIO_INVALID_ARGUMENT;
	}

	/* Disable GPIO control. */
	gpio_port->gperc = 1 << (pin & 0x1F);
8000205a:	30 19       	mov	r9,1
8000205c:	f2 0c 09 4c 	lsl	r12,r9,r12
80002060:	91 2c       	st.w	r8[0x8],r12
80002062:	5e fd       	retal	0

80002064 <gpio_enable_module>:
 * \param size The number of pins in \a gpiomap.
 *
 * \return \ref GPIO_SUCCESS or \ref GPIO_INVALID_ARGUMENT.
 */
uint32_t gpio_enable_module(const gpio_map_t gpiomap, uint32_t size)
{
80002064:	d4 21       	pushm	r4-r7,lr
80002066:	18 97       	mov	r7,r12
80002068:	16 94       	mov	r4,r11
	uint32_t status = GPIO_SUCCESS;
	uint32_t i;

	for (i = 0; i < size; i++) {
8000206a:	58 0b       	cp.w	r11,0
8000206c:	c0 31       	brne	80002072 <gpio_enable_module+0xe>
8000206e:	30 05       	mov	r5,0
80002070:	c0 d8       	rjmp	8000208a <gpio_enable_module+0x26>
80002072:	30 06       	mov	r6,0
80002074:	0c 95       	mov	r5,r6
		status |= gpio_enable_module_pin(gpiomap->pin, gpiomap->function);
80002076:	6e 1b       	ld.w	r11,r7[0x4]
80002078:	6e 0c       	ld.w	r12,r7[0x0]
8000207a:	f0 1f 00 06 	mcall	80002090 <gpio_enable_module+0x2c>
8000207e:	18 45       	or	r5,r12
		gpiomap++;
80002080:	2f 87       	sub	r7,-8
uint32_t gpio_enable_module(const gpio_map_t gpiomap, uint32_t size)
{
	uint32_t status = GPIO_SUCCESS;
	uint32_t i;

	for (i = 0; i < size; i++) {
80002082:	2f f6       	sub	r6,-1
80002084:	0c 34       	cp.w	r4,r6
80002086:	fe 9b ff f8 	brhi	80002076 <gpio_enable_module+0x12>
		status |= gpio_enable_module_pin(gpiomap->pin, gpiomap->function);
		gpiomap++;
	}

	return status;
}
8000208a:	0a 9c       	mov	r12,r5
8000208c:	d8 22       	popm	r4-r7,pc
8000208e:	00 00       	add	r0,r0
80002090:	80 00       	ld.sh	r0,r0[0x0]
80002092:	20 12       	sub	r2,1

80002094 <gpio_configure_group>:
 * \param mask The mask.
 * \param flags The configuration.
 */
void gpio_configure_group(uint32_t port, uint32_t mask, uint32_t flags)
{
	volatile avr32_gpio_port_t *gpio_port = &AVR32_GPIO.port[port];
80002094:	a9 6c       	lsl	r12,0x8
80002096:	e0 2c f0 00 	sub	r12,61440
	} else {
		gpio_port->pderc = mask;
	}

#endif
	if (flags & GPIO_PULL_UP) {
8000209a:	14 98       	mov	r8,r10
8000209c:	e2 18 00 04 	andl	r8,0x4,COH
		gpio_port->puers = mask;
800020a0:	f9 fb 1a 1d 	st.wne	r12[0x74],r11
	} else {
		gpio_port->puerc = mask;
800020a4:	f9 fb 0a 1e 	st.weq	r12[0x78],r11
	}

#endif

	/* Select interrupt level for group */
	if (flags & GPIO_INTERRUPT) {
800020a8:	14 98       	mov	r8,r10
800020aa:	e2 18 00 80 	andl	r8,0x80,COH
800020ae:	c1 a0       	breq	800020e2 <gpio_configure_group+0x4e>
		if (flags & GPIO_BOTHEDGES) {
800020b0:	14 98       	mov	r8,r10
800020b2:	e2 18 01 80 	andl	r8,0x180,COH
800020b6:	c0 60       	breq	800020c2 <gpio_configure_group+0x2e>
			gpio_port->imr0c = mask;
800020b8:	f9 4b 00 a8 	st.w	r12[168],r11
			gpio_port->imr1c = mask;
800020bc:	f9 4b 00 b8 	st.w	r12[184],r11
800020c0:	c1 18       	rjmp	800020e2 <gpio_configure_group+0x4e>
		} else if (flags & GPIO_RISING) {
800020c2:	14 98       	mov	r8,r10
800020c4:	e2 18 02 80 	andl	r8,0x280,COH
800020c8:	c0 60       	breq	800020d4 <gpio_configure_group+0x40>
			gpio_port->imr0s = mask;
800020ca:	f9 4b 00 a4 	st.w	r12[164],r11
			gpio_port->imr1c = mask;
800020ce:	f9 4b 00 b8 	st.w	r12[184],r11
800020d2:	c0 88       	rjmp	800020e2 <gpio_configure_group+0x4e>
		} else if (flags & GPIO_FALLING) {
800020d4:	14 98       	mov	r8,r10
800020d6:	e2 18 03 80 	andl	r8,0x380,COH
			gpio_port->imr0c = mask;
800020da:	f9 fb 1a 2a 	st.wne	r12[0xa8],r11
			gpio_port->imr1s = mask;
800020de:	f9 fb 1a 2d 	st.wne	r12[0xb4],r11
		}
	}

	/* Select direction and initial pin state */
	if (flags & GPIO_DIR_OUTPUT) {
800020e2:	f1 da c0 01 	bfextu	r8,r10,0x0,0x1
800020e6:	c0 a0       	breq	800020fa <gpio_configure_group+0x66>
		if (flags & GPIO_INIT_HIGH) {
800020e8:	e2 1a 00 02 	andl	r10,0x2,COH
			gpio_port->ovrs = mask;
800020ec:	f9 fb 1a 15 	st.wne	r12[0x54],r11
		} else {
			gpio_port->ovrc = mask;
800020f0:	f9 fb 0a 16 	st.weq	r12[0x58],r11
		}

		gpio_port->oders = mask;
800020f4:	f9 4b 00 44 	st.w	r12[68],r11
800020f8:	c0 38       	rjmp	800020fe <gpio_configure_group+0x6a>
	} else {
		gpio_port->oderc = mask;
800020fa:	f9 4b 00 48 	st.w	r12[72],r11
	}

	/* Enable GPIO */
	gpio_port->gpers = mask;
800020fe:	99 1b       	st.w	r12[0x4],r11
}
80002100:	5e fc       	retal	r12

80002102 <gpio_set_gpio_pin>:
 *
 * \param pin The pin number.
 */
void gpio_set_gpio_pin(uint32_t pin)
{
	volatile avr32_gpio_port_t *gpio_port = &AVR32_GPIO.port[pin >> 5];
80002102:	f8 08 16 05 	lsr	r8,r12,0x5
80002106:	a9 68       	lsl	r8,0x8
80002108:	e0 28 f0 00 	sub	r8,61440
	
	/* Value to be driven on the I/O line: 1. */
	gpio_port->ovrs  = 1 << (pin & 0x1F);
8000210c:	30 19       	mov	r9,1
8000210e:	f2 0c 09 4c 	lsl	r12,r9,r12
80002112:	f1 4c 00 54 	st.w	r8[84],r12
	/* The GPIO output driver is enabled for that pin. */ 
	gpio_port->oders = 1 << (pin & 0x1F);
80002116:	f1 4c 00 44 	st.w	r8[68],r12
	/* The GPIO module controls that pin. */
	gpio_port->gpers = 1 << (pin & 0x1F);
8000211a:	91 1c       	st.w	r8[0x4],r12
}
8000211c:	5e fc       	retal	r12

8000211e <gpio_clr_gpio_pin>:
 *
 * \param pin The pin number.
 */
void gpio_clr_gpio_pin(uint32_t pin)
{
	volatile avr32_gpio_port_t *gpio_port = &AVR32_GPIO.port[pin >> 5];
8000211e:	f8 08 16 05 	lsr	r8,r12,0x5
80002122:	a9 68       	lsl	r8,0x8
80002124:	e0 28 f0 00 	sub	r8,61440
	
	/* Value to be driven on the I/O line: 0. */
	gpio_port->ovrc  = 1 << (pin & 0x1F);
80002128:	30 19       	mov	r9,1
8000212a:	f2 0c 09 4c 	lsl	r12,r9,r12
8000212e:	f1 4c 00 58 	st.w	r8[88],r12
	/* The GPIO output driver is enabled for that pin. */
	gpio_port->oders = 1 << (pin & 0x1F);
80002132:	f1 4c 00 44 	st.w	r8[68],r12
	/* The GPIO module controls that pin. */
	gpio_port->gpers = 1 << (pin & 0x1F);
80002136:	91 1c       	st.w	r8[0x4],r12
}
80002138:	5e fc       	retal	r12

8000213a <_unhandled_interrupt>:
__attribute__((__interrupt__))
#elif (defined __ICCAVR32__)
__interrupt
#endif
static void _unhandled_interrupt(void)
{
8000213a:	c0 08       	rjmp	8000213a <_unhandled_interrupt>

8000213c <INTC_register_interrupt>:
 */
void INTC_register_interrupt(__int_handler handler, uint32_t irq,
	uint32_t int_level)
{
	// Determine the group of the IRQ.
	uint32_t int_grp = irq / AVR32_INTC_MAX_NUM_IRQS_PER_GRP;
8000213c:	f6 08 16 05 	lsr	r8,r11,0x5

	/* Store in _int_line_handler_table_x the pointer to the interrupt
	handler, so that _get_interrupt_handler can retrieve it when the
	interrupt is vectored. */
	_int_handler_table[int_grp]
		._int_line_handler_table[irq % AVR32_INTC_MAX_NUM_IRQS_PER_GRP]
80002140:	49 99       	lddpc	r9,800021a4 <INTC_register_interrupt+0x68>
80002142:	f2 08 00 39 	add	r9,r9,r8<<0x3
80002146:	f7 db c0 05 	bfextu	r11,r11,0x0,0x5
8000214a:	72 19       	ld.w	r9,r9[0x4]
	uint32_t int_grp = irq / AVR32_INTC_MAX_NUM_IRQS_PER_GRP;

	/* Store in _int_line_handler_table_x the pointer to the interrupt
	handler, so that _get_interrupt_handler can retrieve it when the
	interrupt is vectored. */
	_int_handler_table[int_grp]
8000214c:	f2 0b 09 2c 	st.w	r9[r11<<0x2],r12
	/* Program the corresponding IPRX register to set the interrupt priority
	level and the interrupt vector offset that will be fetched by the core
	interrupt system.
	NOTE: The _intx functions are intermediate assembly functions between
	the core interrupt system and the user interrupt handler. */
	if (int_level == AVR32_INTC_INT0) {
80002150:	58 0a       	cp.w	r10,0
80002152:	c0 91       	brne	80002164 <INTC_register_interrupt+0x28>
		AVR32_INTC.ipr[int_grp] = IPR_INT0;
80002154:	49 59       	lddpc	r9,800021a8 <INTC_register_interrupt+0x6c>
80002156:	49 6a       	lddpc	r10,800021ac <INTC_register_interrupt+0x70>
80002158:	12 1a       	sub	r10,r9
8000215a:	fe 79 08 00 	mov	r9,-63488
8000215e:	f2 08 09 2a 	st.w	r9[r8<<0x2],r10
80002162:	5e fc       	retal	r12
	} else if (int_level == AVR32_INTC_INT1) {
80002164:	58 1a       	cp.w	r10,1
80002166:	c0 a1       	brne	8000217a <INTC_register_interrupt+0x3e>
		AVR32_INTC.ipr[int_grp] = IPR_INT1;
80002168:	49 09       	lddpc	r9,800021a8 <INTC_register_interrupt+0x6c>
8000216a:	49 2a       	lddpc	r10,800021b0 <INTC_register_interrupt+0x74>
8000216c:	12 1a       	sub	r10,r9
8000216e:	bf aa       	sbr	r10,0x1e
80002170:	fe 79 08 00 	mov	r9,-63488
80002174:	f2 08 09 2a 	st.w	r9[r8<<0x2],r10
80002178:	5e fc       	retal	r12
	} else if (int_level == AVR32_INTC_INT2) {
8000217a:	58 2a       	cp.w	r10,2
8000217c:	c0 a1       	brne	80002190 <INTC_register_interrupt+0x54>
		AVR32_INTC.ipr[int_grp] = IPR_INT2;
8000217e:	48 b9       	lddpc	r9,800021a8 <INTC_register_interrupt+0x6c>
80002180:	48 da       	lddpc	r10,800021b4 <INTC_register_interrupt+0x78>
80002182:	12 1a       	sub	r10,r9
80002184:	bf ba       	sbr	r10,0x1f
80002186:	fe 79 08 00 	mov	r9,-63488
8000218a:	f2 08 09 2a 	st.w	r9[r8<<0x2],r10
8000218e:	5e fc       	retal	r12
	} else {
		AVR32_INTC.ipr[int_grp] = IPR_INT3;
80002190:	48 69       	lddpc	r9,800021a8 <INTC_register_interrupt+0x6c>
80002192:	48 aa       	lddpc	r10,800021b8 <INTC_register_interrupt+0x7c>
80002194:	12 1a       	sub	r10,r9
80002196:	ea 1a c0 00 	orh	r10,0xc000
8000219a:	fe 79 08 00 	mov	r9,-63488
8000219e:	f2 08 09 2a 	st.w	r9[r8<<0x2],r10
800021a2:	5e fc       	retal	r12
800021a4:	80 00       	ld.sh	r0,r0[0x0]
800021a6:	40 00       	lddsp	r0,sp[0x0]
800021a8:	80 00       	ld.sh	r0,r0[0x0]
800021aa:	3e 00       	mov	r0,-32
800021ac:	80 00       	ld.sh	r0,r0[0x0]
800021ae:	3f 04       	mov	r4,-16
800021b0:	80 00       	ld.sh	r0,r0[0x0]
800021b2:	3f 12       	mov	r2,-15
800021b4:	80 00       	ld.sh	r0,r0[0x0]
800021b6:	3f 20       	mov	r0,-14
800021b8:	80 00       	ld.sh	r0,r0[0x0]
800021ba:	3f 2e       	mov	lr,-14

800021bc <INTC_init_interrupts>:
/**
 * \brief Initializes the hardware interrupt controller driver.
 *
 */
void INTC_init_interrupts(void)
{
800021bc:	d4 21       	pushm	r4-r7,lr
 * \brief Init EVBA address. This operation may or may not have been done by the
 * C startup process.
 */
static __inline__ void INTC_init_evba(void)
{
  Set_system_register(AVR32_EVBA, (int32_t)&_evba );
800021be:	49 18       	lddpc	r8,80002200 <INTC_init_interrupts+0x44>
800021c0:	e3 b8 00 01 	mtsr	0x4,r8
800021c4:	49 0e       	lddpc	lr,80002204 <INTC_init_interrupts+0x48>
800021c6:	30 07       	mov	r7,0
800021c8:	0e 94       	mov	r4,r7
			int_req < _int_handler_table[int_grp].num_irqs;
			int_req++)
		{
			/* Assign _unhandled_interrupt as the default interrupt
			handler. */
			_int_handler_table[int_grp]
800021ca:	49 0c       	lddpc	r12,80002208 <INTC_init_interrupts+0x4c>

		/* Set the interrupt group priority register to its default
		value.
		By default, all interrupt groups are linked to the interrupt
		priority level 0 and to the interrupt vector _int0. */
		AVR32_INTC.ipr[int_grp] = IPR_INT0;
800021cc:	49 05       	lddpc	r5,8000220c <INTC_init_interrupts+0x50>
800021ce:	10 15       	sub	r5,r8
800021d0:	fe 76 08 00 	mov	r6,-63488
800021d4:	c1 08       	rjmp	800021f4 <INTC_init_interrupts+0x38>
 * \brief Init EVBA address. This operation may or may not have been done by the
 * C startup process.
 */
static __inline__ void INTC_init_evba(void)
{
  Set_system_register(AVR32_EVBA, (int32_t)&_evba );
800021d6:	08 98       	mov	r8,r4
			int_req++)
		{
			/* Assign _unhandled_interrupt as the default interrupt
			handler. */
			_int_handler_table[int_grp]
				._int_line_handler_table[int_req]
800021d8:	7c 1b       	ld.w	r11,lr[0x4]

	// For all interrupt groups,
	for (int_grp = 0; int_grp < AVR32_INTC_NUM_INT_GRPS; int_grp++)
	{
		// For all interrupt request lines of each group,
		for (int_req = 0;
800021da:	7c 0a       	ld.w	r10,lr[0x0]
			int_req < _int_handler_table[int_grp].num_irqs;
			int_req++)
		{
			/* Assign _unhandled_interrupt as the default interrupt
			handler. */
			_int_handler_table[int_grp]
800021dc:	f6 08 09 2c 	st.w	r11[r8<<0x2],r12
	for (int_grp = 0; int_grp < AVR32_INTC_NUM_INT_GRPS; int_grp++)
	{
		// For all interrupt request lines of each group,
		for (int_req = 0;
			int_req < _int_handler_table[int_grp].num_irqs;
			int_req++)
800021e0:	2f f8       	sub	r8,-1

	// For all interrupt groups,
	for (int_grp = 0; int_grp < AVR32_INTC_NUM_INT_GRPS; int_grp++)
	{
		// For all interrupt request lines of each group,
		for (int_req = 0;
800021e2:	10 3a       	cp.w	r10,r8
800021e4:	fe 9b ff fc 	brhi	800021dc <INTC_init_interrupts+0x20>

		/* Set the interrupt group priority register to its default
		value.
		By default, all interrupt groups are linked to the interrupt
		priority level 0 and to the interrupt vector _int0. */
		AVR32_INTC.ipr[int_grp] = IPR_INT0;
800021e8:	ec 07 09 25 	st.w	r6[r7<<0x2],r5
	uint32_t int_grp, int_req;

	INTC_init_evba();

	// For all interrupt groups,
	for (int_grp = 0; int_grp < AVR32_INTC_NUM_INT_GRPS; int_grp++)
800021ec:	2f f7       	sub	r7,-1
800021ee:	2f 8e       	sub	lr,-8
800021f0:	59 47       	cp.w	r7,20
800021f2:	c0 50       	breq	800021fc <INTC_init_interrupts+0x40>
	{
		// For all interrupt request lines of each group,
		for (int_req = 0;
800021f4:	7c 08       	ld.w	r8,lr[0x0]
800021f6:	58 08       	cp.w	r8,0
800021f8:	ce f1       	brne	800021d6 <INTC_init_interrupts+0x1a>
800021fa:	cf 7b       	rjmp	800021e8 <INTC_init_interrupts+0x2c>
800021fc:	d8 22       	popm	r4-r7,pc
800021fe:	00 00       	add	r0,r0
80002200:	80 00       	ld.sh	r0,r0[0x0]
80002202:	3e 00       	mov	r0,-32
80002204:	80 00       	ld.sh	r0,r0[0x0]
80002206:	40 00       	lddsp	r0,sp[0x0]
80002208:	80 00       	ld.sh	r0,r0[0x0]
8000220a:	21 3a       	sub	r10,19
8000220c:	80 00       	ld.sh	r0,r0[0x0]
8000220e:	3f 04       	mov	r4,-16

80002210 <_get_interrupt_handler>:
__int_handler _get_interrupt_handler(uint32_t int_level)
{
	/* ICR3 is mapped first, ICR0 last.
	Code in exception.S puts int_level in R12 which is used by the compiler
	to pass a single argument to a function. */
	uint32_t int_grp = AVR32_INTC.icr[AVR32_INTC_INT3 - int_level];
80002210:	fe 78 08 00 	mov	r8,-63488
80002214:	e0 69 00 83 	mov	r9,131
80002218:	f2 0c 01 0c 	sub	r12,r9,r12
8000221c:	f0 0c 03 29 	ld.w	r9,r8[r12<<0x2]
	uint32_t int_req = AVR32_INTC.irr[int_grp];
80002220:	f2 ca ff c0 	sub	r10,r9,-64
80002224:	f0 0a 03 28 	ld.w	r8,r8[r10<<0x2]
	exception.S will provide the interrupt handler with a clean interrupt
	stack frame, with nothing more pushed onto the stack. The interrupt
	handler must manage the `rete' instruction, which can be done using
	pure assembly, inline assembly or the `__attribute__((__interrupt__))'
	C function attribute.*/
	return (int_req)
80002228:	58 08       	cp.w	r8,0
8000222a:	c0 21       	brne	8000222e <_get_interrupt_handler+0x1e>
8000222c:	5e fd       	retal	0
		? _int_handler_table[int_grp]._int_line_handler_table[32
			- clz(int_req) - 1]
8000222e:	f0 08 12 00 	clz	r8,r8
	stack frame, with nothing more pushed onto the stack. The interrupt
	handler must manage the `rete' instruction, which can be done using
	pure assembly, inline assembly or the `__attribute__((__interrupt__))'
	C function attribute.*/
	return (int_req)
		? _int_handler_table[int_grp]._int_line_handler_table[32
80002232:	48 5a       	lddpc	r10,80002244 <_get_interrupt_handler+0x34>
80002234:	f4 09 00 39 	add	r9,r10,r9<<0x3
80002238:	f0 08 11 1f 	rsub	r8,r8,31
8000223c:	72 19       	ld.w	r9,r9[0x4]
	exception.S will provide the interrupt handler with a clean interrupt
	stack frame, with nothing more pushed onto the stack. The interrupt
	handler must manage the `rete' instruction, which can be done using
	pure assembly, inline assembly or the `__attribute__((__interrupt__))'
	C function attribute.*/
	return (int_req)
8000223e:	f2 08 03 2c 	ld.w	r12,r9[r8<<0x2]
		? _int_handler_table[int_grp]._int_line_handler_table[32
			- clz(int_req) - 1]
		: NULL;
}
80002242:	5e fc       	retal	r12
80002244:	80 00       	ld.sh	r0,r0[0x0]
80002246:	40 00       	lddsp	r0,sp[0x0]

80002248 <pm_set_osc0_mode>:
 * \param mode Oscillator 0 mode (i.e. AVR32_PM_OSCCTRL0_MODE_x).
 */
static void pm_set_osc0_mode(volatile avr32_pm_t *pm, unsigned int mode)
{
  // Read
  u_avr32_pm_oscctrl0_t u_avr32_pm_oscctrl0 = {pm->oscctrl0};
80002248:	78 a8       	ld.w	r8,r12[0x28]
  // Modify
  u_avr32_pm_oscctrl0.OSCCTRL0.mode = mode;
8000224a:	f1 db d0 03 	bfins	r8,r11,0x0,0x3
  // Write
  pm->oscctrl0 = u_avr32_pm_oscctrl0.oscctrl0;
8000224e:	99 a8       	st.w	r12[0x28],r8
}
80002250:	5e fc       	retal	r12
80002252:	d7 03       	nop

80002254 <pm_enable_osc0_crystal>:
  pm_set_osc0_mode(pm, AVR32_PM_OSCCTRL0_MODE_EXT_CLOCK);
}


void pm_enable_osc0_crystal(volatile avr32_pm_t *pm, unsigned int fosc0)
{
80002254:	d4 01       	pushm	lr
  pm_set_osc0_mode(pm, (fosc0 <  900000) ? AVR32_PM_OSCCTRL0_MODE_CRYSTAL_G0 :
80002256:	ec 5b bb 9f 	cp.w	r11,899999
8000225a:	e0 8b 00 04 	brhi	80002262 <pm_enable_osc0_crystal+0xe>
8000225e:	30 4b       	mov	r11,4
80002260:	c1 38       	rjmp	80002286 <pm_enable_osc0_crystal+0x32>
80002262:	e0 68 c6 bf 	mov	r8,50879
80002266:	ea 18 00 2d 	orh	r8,0x2d
8000226a:	10 3b       	cp.w	r11,r8
8000226c:	e0 8b 00 04 	brhi	80002274 <pm_enable_osc0_crystal+0x20>
80002270:	30 5b       	mov	r11,5
80002272:	c0 a8       	rjmp	80002286 <pm_enable_osc0_crystal+0x32>
80002274:	e0 68 12 00 	mov	r8,4608
80002278:	ea 18 00 7a 	orh	r8,0x7a
8000227c:	10 3b       	cp.w	r11,r8
8000227e:	f9 bb 03 06 	movlo	r11,6
80002282:	f9 bb 02 07 	movhs	r11,7
80002286:	f0 1f 00 02 	mcall	8000228c <pm_enable_osc0_crystal+0x38>
                       (fosc0 < 3000000) ? AVR32_PM_OSCCTRL0_MODE_CRYSTAL_G1 :
                       (fosc0 < 8000000) ? AVR32_PM_OSCCTRL0_MODE_CRYSTAL_G2 :
                                           AVR32_PM_OSCCTRL0_MODE_CRYSTAL_G3);
}
8000228a:	d8 02       	popm	pc
8000228c:	80 00       	ld.sh	r0,r0[0x0]
8000228e:	22 48       	sub	r8,36

80002290 <pm_enable_clk0_no_wait>:


void pm_enable_clk0_no_wait(volatile avr32_pm_t *pm, unsigned int startup)
{
  // Read register
  u_avr32_pm_oscctrl0_t u_avr32_pm_oscctrl0 = {pm->oscctrl0};
80002290:	78 a8       	ld.w	r8,r12[0x28]
  // Modify
  u_avr32_pm_oscctrl0.OSCCTRL0.startup = startup;
80002292:	f1 db d1 03 	bfins	r8,r11,0x8,0x3
  // Write back
  pm->oscctrl0 = u_avr32_pm_oscctrl0.oscctrl0;
80002296:	99 a8       	st.w	r12[0x28],r8

  pm->mcctrl |= AVR32_PM_MCCTRL_OSC0EN_MASK;
80002298:	78 08       	ld.w	r8,r12[0x0]
8000229a:	a3 a8       	sbr	r8,0x2
8000229c:	99 08       	st.w	r12[0x0],r8
}
8000229e:	5e fc       	retal	r12

800022a0 <pm_wait_for_clk0_ready>:


void pm_wait_for_clk0_ready(volatile avr32_pm_t *pm)
{
  while (!(pm->poscsr & AVR32_PM_POSCSR_OSC0RDY_MASK));
800022a0:	79 58       	ld.w	r8,r12[0x54]
800022a2:	e2 18 00 80 	andl	r8,0x80,COH
800022a6:	cf d0       	breq	800022a0 <pm_wait_for_clk0_ready>
}
800022a8:	5e fc       	retal	r12
800022aa:	d7 03       	nop

800022ac <pm_enable_clk0>:
                                           AVR32_PM_OSCCTRL0_MODE_CRYSTAL_G3);
}


void pm_enable_clk0(volatile avr32_pm_t *pm, unsigned int startup)
{
800022ac:	eb cd 40 80 	pushm	r7,lr
800022b0:	18 97       	mov	r7,r12
  pm_enable_clk0_no_wait(pm, startup);
800022b2:	f0 1f 00 04 	mcall	800022c0 <pm_enable_clk0+0x14>
  pm_wait_for_clk0_ready(pm);
800022b6:	0e 9c       	mov	r12,r7
800022b8:	f0 1f 00 03 	mcall	800022c4 <pm_enable_clk0+0x18>
}
800022bc:	e3 cd 80 80 	ldm	sp++,r7,pc
800022c0:	80 00       	ld.sh	r0,r0[0x0]
800022c2:	22 90       	sub	r0,41
800022c4:	80 00       	ld.sh	r0,r0[0x0]
800022c6:	22 a0       	sub	r0,42

800022c8 <pm_cksel>:
              unsigned int pbasel,
              unsigned int pbbdiv,
              unsigned int pbbsel,
              unsigned int hsbdiv,
              unsigned int hsbsel)
{
800022c8:	eb cd 40 d0 	pushm	r4,r6-r7,lr
800022cc:	fa c4 ff f0 	sub	r4,sp,-16
  u_avr32_pm_cksel_t u_avr32_pm_cksel = {0};
800022d0:	30 0e       	mov	lr,0

  u_avr32_pm_cksel.CKSEL.cpusel = hsbsel;
800022d2:	09 f7       	ld.ub	r7,r4[0x7]
800022d4:	ef d7 c0 03 	bfextu	r7,r7,0x0,0x3
800022d8:	fd d7 d0 03 	bfins	lr,r7,0x0,0x3
  u_avr32_pm_cksel.CKSEL.cpudiv = hsbdiv;
800022dc:	09 b4       	ld.ub	r4,r4[0x3]
800022de:	08 96       	mov	r6,r4
800022e0:	e9 d4 c0 01 	bfextu	r4,r4,0x0,0x1
800022e4:	fd d4 d0 e1 	bfins	lr,r4,0x7,0x1
  u_avr32_pm_cksel.CKSEL.hsbsel = hsbsel;
800022e8:	fd d7 d1 03 	bfins	lr,r7,0x8,0x3
  u_avr32_pm_cksel.CKSEL.hsbdiv = hsbdiv;
800022ec:	fd d4 d1 e1 	bfins	lr,r4,0xf,0x1
  u_avr32_pm_cksel.CKSEL.pbasel = pbasel;
800022f0:	fd da d2 03 	bfins	lr,r10,0x10,0x3
  u_avr32_pm_cksel.CKSEL.pbadiv = pbadiv;
800022f4:	fd db d2 e1 	bfins	lr,r11,0x17,0x1
  u_avr32_pm_cksel.CKSEL.pbbsel = pbbsel;
800022f8:	fd d8 d3 03 	bfins	lr,r8,0x18,0x3
  u_avr32_pm_cksel.CKSEL.pbbdiv = pbbdiv;
800022fc:	fd d9 d3 e1 	bfins	lr,r9,0x1f,0x1

  pm->cksel = u_avr32_pm_cksel.cksel;
80002300:	99 1e       	st.w	r12[0x4],lr

  // Wait for ckrdy bit and then clear it
  while (!(pm->poscsr & AVR32_PM_POSCSR_CKRDY_MASK));
80002302:	79 58       	ld.w	r8,r12[0x54]
80002304:	e2 18 00 20 	andl	r8,0x20,COH
80002308:	cf d0       	breq	80002302 <pm_cksel+0x3a>
}
8000230a:	e3 cd 80 d0 	ldm	sp++,r4,r6-r7,pc

8000230e <pm_pll_setup>:
                  unsigned int pll,
                  unsigned int mul,
                  unsigned int div,
                  unsigned int osc,
                  unsigned int lockcount)
{
8000230e:	eb cd 40 80 	pushm	r7,lr
80002312:	40 27       	lddsp	r7,sp[0x8]
  u_avr32_pm_pll_t u_avr32_pm_pll = {0};
80002314:	30 0e       	mov	lr,0

  u_avr32_pm_pll.PLL.pllosc   = osc;
80002316:	fd d8 d0 21 	bfins	lr,r8,0x1,0x1
  u_avr32_pm_pll.PLL.plldiv   = div;
8000231a:	fd d9 d1 04 	bfins	lr,r9,0x8,0x4
  u_avr32_pm_pll.PLL.pllmul   = mul;
8000231e:	fd da d2 04 	bfins	lr,r10,0x10,0x4
  u_avr32_pm_pll.PLL.pllcount = lockcount;
80002322:	fd d7 d3 06 	bfins	lr,r7,0x18,0x6

  pm->pll[pll] = u_avr32_pm_pll.pll;
80002326:	2f 8b       	sub	r11,-8
80002328:	f8 0b 09 2e 	st.w	r12[r11<<0x2],lr
}
8000232c:	e3 cd 80 80 	ldm	sp++,r7,pc

80002330 <pm_pll_set_option>:
void pm_pll_set_option(volatile avr32_pm_t *pm,
                       unsigned int pll,
                       unsigned int pll_freq,
                       unsigned int pll_div2,
                       unsigned int pll_wbwdisable)
{
80002330:	d4 01       	pushm	lr
  u_avr32_pm_pll_t u_avr32_pm_pll = {pm->pll[pll]};
80002332:	2f 8b       	sub	r11,-8
80002334:	f8 0b 03 2e 	ld.w	lr,r12[r11<<0x2]
  u_avr32_pm_pll.PLL.pllopt = pll_freq | (pll_div2 << 1) | (pll_wbwdisable << 2);
80002338:	f5 e9 10 19 	or	r9,r10,r9<<0x1
8000233c:	f3 e8 10 28 	or	r8,r9,r8<<0x2
80002340:	fd d8 d0 43 	bfins	lr,r8,0x2,0x3
  pm->pll[pll] = u_avr32_pm_pll.pll;
80002344:	f8 0b 09 2e 	st.w	r12[r11<<0x2],lr
}
80002348:	d8 02       	popm	pc

8000234a <pm_pll_enable>:


void pm_pll_enable(volatile avr32_pm_t *pm,
                  unsigned int pll)
{
  pm->pll[pll] |= AVR32_PM_PLLEN_MASK;
8000234a:	2f 8b       	sub	r11,-8
8000234c:	f8 0b 03 28 	ld.w	r8,r12[r11<<0x2]
80002350:	a1 a8       	sbr	r8,0x0
80002352:	f8 0b 09 28 	st.w	r12[r11<<0x2],r8
}
80002356:	5e fc       	retal	r12

80002358 <pm_wait_for_pll0_locked>:
}


void pm_wait_for_pll0_locked(volatile avr32_pm_t *pm)
{
  while (!(pm->poscsr & AVR32_PM_POSCSR_LOCK0_MASK));
80002358:	79 58       	ld.w	r8,r12[0x54]
8000235a:	f1 d8 c0 01 	bfextu	r8,r8,0x0,0x1
8000235e:	cf d0       	breq	80002358 <pm_wait_for_pll0_locked>
}
80002360:	5e fc       	retal	r12

80002362 <pm_switch_to_clock>:


void pm_switch_to_clock(volatile avr32_pm_t *pm, unsigned long clock)
{
  // Read
  u_avr32_pm_mcctrl_t u_avr32_pm_mcctrl = {pm->mcctrl};
80002362:	78 08       	ld.w	r8,r12[0x0]
  // Modify
  u_avr32_pm_mcctrl.MCCTRL.mcsel = clock;
80002364:	f1 db d0 02 	bfins	r8,r11,0x0,0x2
  // Write back
  pm->mcctrl = u_avr32_pm_mcctrl.mcctrl;
80002368:	99 08       	st.w	r12[0x0],r8
}
8000236a:	5e fc       	retal	r12

8000236c <pm_switch_to_osc0>:


void pm_switch_to_osc0(volatile avr32_pm_t *pm, unsigned int fosc0, unsigned int startup)
{
8000236c:	eb cd 40 c0 	pushm	r6-r7,lr
80002370:	18 97       	mov	r7,r12
80002372:	14 96       	mov	r6,r10
  pm_enable_osc0_crystal(pm, fosc0);            // Enable the Osc0 in crystal mode
80002374:	f0 1f 00 06 	mcall	8000238c <pm_switch_to_osc0+0x20>
  pm_enable_clk0(pm, startup);                  // Crystal startup time - This parameter is critical and depends on the characteristics of the crystal
80002378:	0c 9b       	mov	r11,r6
8000237a:	0e 9c       	mov	r12,r7
8000237c:	f0 1f 00 05 	mcall	80002390 <pm_switch_to_osc0+0x24>
  pm_switch_to_clock(pm, AVR32_PM_MCSEL_OSC0);  // Then switch main clock to Osc0
80002380:	30 1b       	mov	r11,1
80002382:	0e 9c       	mov	r12,r7
80002384:	f0 1f 00 04 	mcall	80002394 <pm_switch_to_osc0+0x28>
}
80002388:	e3 cd 80 c0 	ldm	sp++,r6-r7,pc
8000238c:	80 00       	ld.sh	r0,r0[0x0]
8000238e:	22 54       	sub	r4,37
80002390:	80 00       	ld.sh	r0,r0[0x0]
80002392:	22 ac       	sub	r12,42
80002394:	80 00       	ld.sh	r0,r0[0x0]
80002396:	23 62       	sub	r2,54

80002398 <pwm_channel_init>:

int pwm_channel_init( unsigned int channel_id, const avr32_pwm_channel_t *pwm_channel)
{
  volatile avr32_pwm_t *pwm = &AVR32_PWM;

  if (pwm_channel == 0) // Null pointer.
80002398:	58 0b       	cp.w	r11,0
8000239a:	c1 90       	breq	800023cc <pwm_channel_init+0x34>
    return PWM_INVALID_ARGUMENT;
  if (channel_id > AVR32_PWM_LINES_MSB) // Control input values.
8000239c:	58 6c       	cp.w	r12,6
8000239e:	e0 8b 00 17 	brhi	800023cc <pwm_channel_init+0x34>
    return PWM_INVALID_INPUT;

  pwm->channel[channel_id].cmr= pwm_channel->cmr;   // Channel mode.
800023a2:	76 0a       	ld.w	r10,r11[0x0]
800023a4:	fe 78 30 00 	mov	r8,-53248
800023a8:	f8 c9 ff f0 	sub	r9,r12,-16
800023ac:	a5 79       	lsl	r9,0x5
800023ae:	f0 09 00 09 	add	r9,r8,r9
800023b2:	93 0a       	st.w	r9[0x0],r10
  pwm->channel[channel_id].cdty= pwm_channel->cdty; // Duty cycle, should be < CPRD.
800023b4:	76 19       	ld.w	r9,r11[0x4]
800023b6:	a5 7c       	lsl	r12,0x5
800023b8:	f0 0c 00 0c 	add	r12,r8,r12
800023bc:	f8 c8 fd fc 	sub	r8,r12,-516
800023c0:	91 09       	st.w	r8[0x0],r9
  pwm->channel[channel_id].cprd= pwm_channel->cprd; // Channel period.
800023c2:	76 28       	ld.w	r8,r11[0x8]
800023c4:	f8 cc fd f8 	sub	r12,r12,-520
800023c8:	99 08       	st.w	r12[0x0],r8
800023ca:	5e fd       	retal	0

  return PWM_SUCCESS;
800023cc:	5e ff       	retal	1

800023ce <pwm_start_channels>:
}


int pwm_start_channels(unsigned long channels_bitmask)
{
  if (channels_bitmask & ~((1 << (AVR32_PWM_LINES_MSB + 1)) - 1))
800023ce:	18 98       	mov	r8,r12
800023d0:	e0 18 ff 80 	andl	r8,0xff80
800023d4:	c0 20       	breq	800023d8 <pwm_start_channels+0xa>
800023d6:	5e ff       	retal	1
    return PWM_INVALID_INPUT;

  AVR32_PWM.ena = channels_bitmask; // Enable channels.
800023d8:	fe 78 30 00 	mov	r8,-53248
800023dc:	91 1c       	st.w	r8[0x4],r12
800023de:	5e fd       	retal	0

800023e0 <pwm_init>:


int pwm_init(const pwm_opt_t *opt)
{
  volatile avr32_pwm_t *pwm = &AVR32_PWM;
  bool global_interrupt_enabled = Is_global_interrupt_enabled();
800023e0:	e1 b8 00 00 	mfsr	r8,0x0

  if (opt == 0 ) // Null pointer.
800023e4:	58 0c       	cp.w	r12,0
800023e6:	c0 21       	brne	800023ea <pwm_init+0xa>
800023e8:	5e ff       	retal	1
    return PWM_INVALID_INPUT;

  // Disable interrupt.
  if (global_interrupt_enabled) Disable_global_interrupt();
800023ea:	e6 18 00 01 	andh	r8,0x1,COH
800023ee:	c0 91       	brne	80002400 <pwm_init+0x20>
800023f0:	d3 03       	ssrf	0x10
  pwm->idr = ((1 << (AVR32_PWM_LINES_MSB + 1)) - 1) << AVR32_PWM_IDR_CHID0_OFFSET;
800023f2:	fe 78 30 00 	mov	r8,-53248
800023f6:	37 f9       	mov	r9,127
800023f8:	91 59       	st.w	r8[0x14],r9
  pwm->isr;
800023fa:	70 78       	ld.w	r8,r8[0x1c]
  if (global_interrupt_enabled) Enable_global_interrupt();
800023fc:	d5 03       	csrf	0x10
800023fe:	c0 68       	rjmp	8000240a <pwm_init+0x2a>
  if (opt == 0 ) // Null pointer.
    return PWM_INVALID_INPUT;

  // Disable interrupt.
  if (global_interrupt_enabled) Disable_global_interrupt();
  pwm->idr = ((1 << (AVR32_PWM_LINES_MSB + 1)) - 1) << AVR32_PWM_IDR_CHID0_OFFSET;
80002400:	fe 78 30 00 	mov	r8,-53248
80002404:	37 f9       	mov	r9,127
80002406:	91 59       	st.w	r8[0x14],r9
  pwm->isr;
80002408:	70 78       	ld.w	r8,r8[0x1c]
  if (global_interrupt_enabled) Enable_global_interrupt();

  // Set PWM mode register.
  pwm->mr =
    ((opt->diva)<<AVR32_PWM_DIVA_OFFSET) |
8000240a:	78 08       	ld.w	r8,r12[0x0]
8000240c:	78 39       	ld.w	r9,r12[0xc]
8000240e:	a9 69       	lsl	r9,0x8
80002410:	f3 e8 11 09 	or	r9,r9,r8<<0x10
80002414:	78 18       	ld.w	r8,r12[0x4]
80002416:	10 49       	or	r9,r8
80002418:	78 28       	ld.w	r8,r12[0x8]
8000241a:	f3 e8 11 89 	or	r9,r9,r8<<0x18
  pwm->idr = ((1 << (AVR32_PWM_LINES_MSB + 1)) - 1) << AVR32_PWM_IDR_CHID0_OFFSET;
  pwm->isr;
  if (global_interrupt_enabled) Enable_global_interrupt();

  // Set PWM mode register.
  pwm->mr =
8000241e:	fe 78 30 00 	mov	r8,-53248
80002422:	91 09       	st.w	r8[0x0],r9
80002424:	5e fd       	retal	0

80002426 <getBaudDiv>:
xSemaphoreHandle xSPIMutex;
#endif

int16_t getBaudDiv(const uint32_t baudrate, uint32_t pb_hz)
{
	uint32_t baudDiv = div_ceil(pb_hz, baudrate);
80002426:	f8 c8 00 01 	sub	r8,r12,1
8000242a:	f0 0b 00 0b 	add	r11,r8,r11
8000242e:	f6 0c 0d 0a 	divu	r10,r11,r12
80002432:	14 9c       	mov	r12,r10

	if (baudDiv <= 0 || baudDiv > 255) {
80002434:	f4 c8 00 01 	sub	r8,r10,1
80002438:	e0 48 00 fe 	cp.w	r8,254
8000243c:	e0 88 00 03 	brls	80002442 <getBaudDiv+0x1c>
80002440:	5e fe       	retal	-1
		return -1;
	}

	return baudDiv;
80002442:	5c 8c       	casts.h	r12
}
80002444:	5e fc       	retal	r12

80002446 <spi_initMaster>:
spi_status_t spi_initMaster(volatile avr32_spi_t *spi,
		const spi_options_t *options)
{
	u_avr32_spi_mr_t u_avr32_spi_mr;

	if (options->modfdis > 1) {
80002446:	f7 39 00 0d 	ld.ub	r9,r11[13]
8000244a:	30 18       	mov	r8,1
8000244c:	f0 09 18 00 	cp.b	r9,r8
80002450:	e0 88 00 04 	brls	80002458 <spi_initMaster+0x12>
80002454:	30 2c       	mov	r12,2
80002456:	5e fc       	retal	r12
		return SPI_ERROR_ARGUMENT;
	}

	/* Reset. */
	spi->cr = AVR32_SPI_CR_SWRST_MASK;
80002458:	e0 68 00 80 	mov	r8,128
8000245c:	99 08       	st.w	r12[0x0],r8

	/* Master Mode. */
	u_avr32_spi_mr.mr = spi->mr;
8000245e:	78 18       	ld.w	r8,r12[0x4]
	u_avr32_spi_mr.MR.mstr = 1;
80002460:	30 19       	mov	r9,1
80002462:	f1 d9 d0 01 	bfins	r8,r9,0x0,0x1
	u_avr32_spi_mr.MR.modfdis = options->modfdis;
80002466:	f7 39 00 0d 	ld.ub	r9,r11[13]
8000246a:	f1 d9 d0 81 	bfins	r8,r9,0x4,0x1
	u_avr32_spi_mr.MR.llb = 0;
8000246e:	30 09       	mov	r9,0
80002470:	f1 d9 d0 e1 	bfins	r8,r9,0x7,0x1
	u_avr32_spi_mr.MR.pcs = (1 << AVR32_SPI_MR_PCS_SIZE) - 1;
80002474:	30 fa       	mov	r10,15
80002476:	f1 da d2 04 	bfins	r8,r10,0x10,0x4
	spi->mr = u_avr32_spi_mr.mr;
8000247a:	99 18       	st.w	r12[0x4],r8
8000247c:	5e f9       	retal	r9

8000247e <spi_selectChip>:
	while (pdFALSE == xSemaphoreTake(xSPIMutex, 20)) {
	}
#endif

	/* Assert all lines; no peripheral is selected. */
	spi->mr |= AVR32_SPI_MR_PCS_MASK;
8000247e:	78 18       	ld.w	r8,r12[0x4]
80002480:	ea 18 00 0f 	orh	r8,0xf
80002484:	99 18       	st.w	r12[0x4],r8

	if (spi->mr & AVR32_SPI_MR_PCSDEC_MASK) {
80002486:	78 18       	ld.w	r8,r12[0x4]
80002488:	e2 18 00 04 	andl	r8,0x4,COH
8000248c:	c0 f0       	breq	800024aa <spi_selectChip+0x2c>
		/* The signal is decoded; allow up to 15 chips. */
		if (chip > 14) {
8000248e:	30 e8       	mov	r8,14
80002490:	f0 0b 18 00 	cp.b	r11,r8
80002494:	e0 8b 00 19 	brhi	800024c6 <spi_selectChip+0x48>
			return SPI_ERROR_ARGUMENT;
		}

		spi->mr &= ~AVR32_SPI_MR_PCS_MASK |
80002498:	78 18       	ld.w	r8,r12[0x4]
8000249a:	b1 6b       	lsl	r11,0x10
8000249c:	ea 1b ff f0 	orh	r11,0xfff0
800024a0:	e8 1b ff ff 	orl	r11,0xffff
800024a4:	10 6b       	and	r11,r8
800024a6:	99 1b       	st.w	r12[0x4],r11
800024a8:	5e fd       	retal	0
				(chip << AVR32_SPI_MR_PCS_OFFSET);
	} else {
		if (chip > 3) {
800024aa:	30 38       	mov	r8,3
800024ac:	f0 0b 18 00 	cp.b	r11,r8
800024b0:	e0 8b 00 0b 	brhi	800024c6 <spi_selectChip+0x48>
			return SPI_ERROR_ARGUMENT;
		}

		spi->mr &= ~(1 << (AVR32_SPI_MR_PCS_OFFSET + chip));
800024b4:	78 18       	ld.w	r8,r12[0x4]
800024b6:	2f 0b       	sub	r11,-16
800024b8:	30 19       	mov	r9,1
800024ba:	f2 0b 09 4b 	lsl	r11,r9,r11
800024be:	5c db       	com	r11
800024c0:	10 6b       	and	r11,r8
800024c2:	99 1b       	st.w	r12[0x4],r11
800024c4:	5e fd       	retal	0
800024c6:	30 2c       	mov	r12,2
	}

	return SPI_OK;
}
800024c8:	5e fc       	retal	r12

800024ca <spi_unselectChip>:

spi_status_t spi_unselectChip(volatile avr32_spi_t *spi, uint8_t chip)
{
800024ca:	e0 68 3a 98 	mov	r8,15000
	uint32_t timeout = SPI_TIMEOUT;

	while (!(spi->sr & AVR32_SPI_SR_TXEMPTY_MASK)) {
800024ce:	c0 58       	rjmp	800024d8 <spi_unselectChip+0xe>
		if (!timeout--) {
800024d0:	58 08       	cp.w	r8,0
800024d2:	c0 21       	brne	800024d6 <spi_unselectChip+0xc>
800024d4:	5e ff       	retal	1
800024d6:	20 18       	sub	r8,1

spi_status_t spi_unselectChip(volatile avr32_spi_t *spi, uint8_t chip)
{
	uint32_t timeout = SPI_TIMEOUT;

	while (!(spi->sr & AVR32_SPI_SR_TXEMPTY_MASK)) {
800024d8:	78 49       	ld.w	r9,r12[0x10]
800024da:	e2 19 02 00 	andl	r9,0x200,COH
800024de:	cf 90       	breq	800024d0 <spi_unselectChip+0x6>
			return SPI_ERROR_TIMEOUT;
		}
	}

	/* Assert all lines; no peripheral is selected. */
	spi->mr |= AVR32_SPI_MR_PCS_MASK;
800024e0:	78 18       	ld.w	r8,r12[0x4]
800024e2:	ea 18 00 0f 	orh	r8,0xf
800024e6:	99 18       	st.w	r12[0x4],r8

	/* Last transfer, so de-assert the current NPCS if CSAAT is set. */
	spi->cr = AVR32_SPI_CR_LASTXFER_MASK;
800024e8:	fc 18 01 00 	movh	r8,0x100
800024ec:	99 08       	st.w	r12[0x0],r8
800024ee:	5e fd       	retal	0

800024f0 <spi_setupChipReg>:
}

spi_status_t spi_setupChipReg(volatile avr32_spi_t *spi,
		const spi_options_t *options,
		uint32_t pb_hz)
{
800024f0:	eb cd 40 f8 	pushm	r3-r7,lr
800024f4:	18 95       	mov	r5,r12
800024f6:	16 97       	mov	r7,r11
	u_avr32_spi_csr_t u_avr32_spi_csr;

	if (options->spi_mode > 3 ||
800024f8:	f7 36 00 0c 	ld.ub	r6,r11[12]
800024fc:	30 38       	mov	r8,3
800024fe:	f0 06 18 00 	cp.b	r6,r8
80002502:	e0 8b 00 4d 	brhi	8000259c <spi_setupChipReg+0xac>
			options->stay_act > 1 ||
80002506:	f7 34 00 0b 	ld.ub	r4,r11[11]
		const spi_options_t *options,
		uint32_t pb_hz)
{
	u_avr32_spi_csr_t u_avr32_spi_csr;

	if (options->spi_mode > 3 ||
8000250a:	30 18       	mov	r8,1
8000250c:	f0 04 18 00 	cp.b	r4,r8
80002510:	e0 8b 00 46 	brhi	8000259c <spi_setupChipReg+0xac>
			options->stay_act > 1 ||
			options->bits < 8 || options->bits > 16) {
80002514:	f7 33 00 08 	ld.ub	r3,r11[8]
		const spi_options_t *options,
		uint32_t pb_hz)
{
	u_avr32_spi_csr_t u_avr32_spi_csr;

	if (options->spi_mode > 3 ||
80002518:	30 78       	mov	r8,7
8000251a:	f0 03 18 00 	cp.b	r3,r8
8000251e:	e0 88 00 3f 	brls	8000259c <spi_setupChipReg+0xac>
80002522:	31 08       	mov	r8,16
80002524:	f0 03 18 00 	cp.b	r3,r8
80002528:	e0 8b 00 3a 	brhi	8000259c <spi_setupChipReg+0xac>
			options->stay_act > 1 ||
			options->bits < 8 || options->bits > 16) {
		return SPI_ERROR_ARGUMENT;
	}

	int baudDiv = getBaudDiv(options->baudrate, pb_hz);
8000252c:	14 9b       	mov	r11,r10
8000252e:	6e 1c       	ld.w	r12,r7[0x4]
80002530:	f0 1f 00 1d 	mcall	800025a4 <spi_setupChipReg+0xb4>

	if (baudDiv < 0) {
80002534:	c3 45       	brlt	8000259c <spi_setupChipReg+0xac>
		return SPI_ERROR_ARGUMENT;
	}

	/* Will use CSR0 offsets; these are the same for CSR0 to CSR3. */
	u_avr32_spi_csr.csr = 0;
80002536:	30 08       	mov	r8,0
	u_avr32_spi_csr.CSR.cpol   = options->spi_mode >> 1;
80002538:	ec 09 16 01 	lsr	r9,r6,0x1
8000253c:	f1 d9 d0 01 	bfins	r8,r9,0x0,0x1
	u_avr32_spi_csr.CSR.ncpha  = (options->spi_mode & 0x1) ^ 0x1;
80002540:	ec 16 00 01 	eorl	r6,0x1
80002544:	f1 d6 d0 21 	bfins	r8,r6,0x1,0x1
	u_avr32_spi_csr.CSR.csaat  = options->stay_act;
80002548:	f1 d4 d0 61 	bfins	r8,r4,0x3,0x1
	u_avr32_spi_csr.CSR.bits   = options->bits - 8;
8000254c:	20 83       	sub	r3,8
8000254e:	f1 d3 d0 84 	bfins	r8,r3,0x4,0x4
	u_avr32_spi_csr.CSR.scbr   = baudDiv;
80002552:	f1 dc d1 08 	bfins	r8,r12,0x8,0x8
	u_avr32_spi_csr.CSR.dlybs  = options->spck_delay;
80002556:	ef 39 00 09 	ld.ub	r9,r7[9]
8000255a:	f1 d9 d2 08 	bfins	r8,r9,0x10,0x8
	u_avr32_spi_csr.CSR.dlybct = options->trans_delay;
8000255e:	ef 39 00 0a 	ld.ub	r9,r7[10]
80002562:	f1 d9 d3 08 	bfins	r8,r9,0x18,0x8

	switch (options->reg) {
80002566:	0f 89       	ld.ub	r9,r7[0x0]
80002568:	30 1a       	mov	r10,1
8000256a:	f4 09 18 00 	cp.b	r9,r10
8000256e:	c0 e0       	breq	8000258a <spi_setupChipReg+0x9a>
80002570:	c0 a3       	brcs	80002584 <spi_setupChipReg+0x94>
80002572:	30 2a       	mov	r10,2
80002574:	f4 09 18 00 	cp.b	r9,r10
80002578:	c0 c0       	breq	80002590 <spi_setupChipReg+0xa0>
8000257a:	30 3a       	mov	r10,3
8000257c:	f4 09 18 00 	cp.b	r9,r10
80002580:	c0 e1       	brne	8000259c <spi_setupChipReg+0xac>
80002582:	c0 a8       	rjmp	80002596 <spi_setupChipReg+0xa6>
	case 0:
		spi->csr0 = u_avr32_spi_csr.csr;
80002584:	8b c8       	st.w	r5[0x30],r8
80002586:	e3 cf 80 f8 	ldm	sp++,r3-r7,pc,r12=0
		break;

	case 1:
		spi->csr1 = u_avr32_spi_csr.csr;
8000258a:	8b d8       	st.w	r5[0x34],r8
8000258c:	e3 cf 80 f8 	ldm	sp++,r3-r7,pc,r12=0
		break;

	case 2:
		spi->csr2 = u_avr32_spi_csr.csr;
80002590:	8b e8       	st.w	r5[0x38],r8
80002592:	e3 cf 80 f8 	ldm	sp++,r3-r7,pc,r12=0
		break;

	case 3:
		spi->csr3 = u_avr32_spi_csr.csr;
80002596:	8b f8       	st.w	r5[0x3c],r8
80002598:	e3 cf 80 f8 	ldm	sp++,r3-r7,pc,r12=0
		break;
8000259c:	30 2c       	mov	r12,2
		}
	}
#endif

	return SPI_OK;
}
8000259e:	e3 cd 80 f8 	ldm	sp++,r3-r7,pc
800025a2:	00 00       	add	r0,r0
800025a4:	80 00       	ld.sh	r0,r0[0x0]
800025a6:	24 26       	sub	r6,66

800025a8 <spi_enable>:

void spi_enable(volatile avr32_spi_t *spi)
{
	spi->cr = AVR32_SPI_CR_SPIEN_MASK;
800025a8:	30 18       	mov	r8,1
800025aa:	99 08       	st.w	r12[0x0],r8
}
800025ac:	5e fc       	retal	r12

800025ae <spi_write>:
{
	return ((spi->sr & AVR32_SPI_SR_TDRE_MASK) != 0);
}

spi_status_t spi_write(volatile avr32_spi_t *spi, uint16_t data)
{
800025ae:	e0 68 3a 98 	mov	r8,15000
	uint32_t timeout = SPI_TIMEOUT;

	while (!(spi->sr & AVR32_SPI_SR_TDRE_MASK)) {
800025b2:	c0 58       	rjmp	800025bc <spi_write+0xe>
		if (!timeout--) {
800025b4:	58 08       	cp.w	r8,0
800025b6:	c0 21       	brne	800025ba <spi_write+0xc>
800025b8:	5e ff       	retal	1
800025ba:	20 18       	sub	r8,1

spi_status_t spi_write(volatile avr32_spi_t *spi, uint16_t data)
{
	uint32_t timeout = SPI_TIMEOUT;

	while (!(spi->sr & AVR32_SPI_SR_TDRE_MASK)) {
800025bc:	78 49       	ld.w	r9,r12[0x10]
800025be:	e2 19 00 02 	andl	r9,0x2,COH
800025c2:	cf 90       	breq	800025b4 <spi_write+0x6>
		if (!timeout--) {
			return SPI_ERROR_TIMEOUT;
		}
	}

	spi->tdr = data << AVR32_SPI_TDR_TD_OFFSET;
800025c4:	5c 7b       	castu.h	r11
800025c6:	99 3b       	st.w	r12[0xc],r11
800025c8:	5e fd       	retal	0
800025ca:	d7 03       	nop

800025cc <twi_master_interrupt_handler>:
/*! \brief TWI interrupt handler.
 */
ISR(twi_master_interrupt_handler, CONF_TWI_IRQ_GROUP, CONF_TWI_IRQ_LEVEL)
{
	// get masked status register value
	int status = twi_inst->sr & twi_it_mask;
800025cc:	4a 78       	lddpc	r8,80002668 <twi_master_interrupt_handler+0x9c>
800025ce:	70 08       	ld.w	r8,r8[0x0]
800025d0:	70 89       	ld.w	r9,r8[0x20]
800025d2:	4a 7a       	lddpc	r10,8000266c <twi_master_interrupt_handler+0xa0>
800025d4:	74 0a       	ld.w	r10,r10[0x0]
800025d6:	f5 e9 00 09 	and	r9,r10,r9

	// this is a NACK
	if (status & AVR32_TWI_SR_NACK_MASK) {
800025da:	12 9a       	mov	r10,r9
800025dc:	e2 1a 01 00 	andl	r10,0x100,COH
800025e0:	c3 91       	brne	80002652 <twi_master_interrupt_handler+0x86>
		goto nack;
	}
	// this is a RXRDY
	else if (status & AVR32_TWI_SR_RXRDY_MASK) {
800025e2:	12 9a       	mov	r10,r9
800025e4:	e2 1a 00 02 	andl	r10,0x2,COH
800025e8:	c1 70       	breq	80002616 <twi_master_interrupt_handler+0x4a>
		// get data from Receive Holding Register
		*twi_rx_data = twi_inst->rhr;
800025ea:	4a 29       	lddpc	r9,80002670 <twi_master_interrupt_handler+0xa4>
800025ec:	72 0a       	ld.w	r10,r9[0x0]
800025ee:	70 cb       	ld.w	r11,r8[0x30]
800025f0:	b4 8b       	st.b	r10[0x0],r11
		twi_rx_data++;
800025f2:	72 0a       	ld.w	r10,r9[0x0]
800025f4:	2f fa       	sub	r10,-1
800025f6:	93 0a       	st.w	r9[0x0],r10
		// last byte to receive
		if (--twi_rx_nb_bytes == 1) {
800025f8:	49 f9       	lddpc	r9,80002674 <twi_master_interrupt_handler+0xa8>
800025fa:	72 0a       	ld.w	r10,r9[0x0]
800025fc:	20 1a       	sub	r10,1
800025fe:	93 0a       	st.w	r9[0x0],r10
80002600:	72 09       	ld.w	r9,r9[0x0]
			// set stop bit
			twi_inst->cr = AVR32_TWI_STOP_MASK;
80002602:	58 19       	cp.w	r9,1
80002604:	f9 b9 00 02 	moveq	r9,2
80002608:	f1 f9 0a 00 	st.weq	r8[0x0],r9
		}
		// receive complete
		if (twi_rx_nb_bytes == 0) {
8000260c:	49 a9       	lddpc	r9,80002674 <twi_master_interrupt_handler+0xa8>
8000260e:	72 09       	ld.w	r9,r9[0x0]
80002610:	58 09       	cp.w	r9,0
80002612:	c2 30       	breq	80002658 <twi_master_interrupt_handler+0x8c>
80002614:	d6 03       	rete
			// finish the receive operation
			goto complete;
		}
	}
	// this is a TXRDY
	else if (status & AVR32_TWI_SR_TXRDY_MASK) {
80002616:	12 9a       	mov	r10,r9
80002618:	e2 1a 00 04 	andl	r10,0x4,COH
8000261c:	c1 70       	breq	8000264a <twi_master_interrupt_handler+0x7e>
		// decrease transmitted bytes number
		twi_tx_nb_bytes--;
8000261e:	49 79       	lddpc	r9,80002678 <twi_master_interrupt_handler+0xac>
80002620:	72 0a       	ld.w	r10,r9[0x0]
80002622:	20 1a       	sub	r10,1
80002624:	93 0a       	st.w	r9[0x0],r10
		// no more bytes to transmit
		if (twi_tx_nb_bytes <= 0) {
80002626:	72 09       	ld.w	r9,r9[0x0]
80002628:	58 09       	cp.w	r9,0
8000262a:	e0 89 00 0a 	brgt	8000263e <twi_master_interrupt_handler+0x72>
			// enable TXCOMP IT and unmask all others IT
			twi_it_mask = AVR32_TWI_IER_TXCOMP_MASK;
8000262e:	49 09       	lddpc	r9,8000266c <twi_master_interrupt_handler+0xa0>
80002630:	30 1a       	mov	r10,1
80002632:	93 0a       	st.w	r9[0x0],r10
			twi_inst->idr = ~0UL;
80002634:	3f fa       	mov	r10,-1
80002636:	91 aa       	st.w	r8[0x28],r10
			twi_inst->ier = twi_it_mask;
80002638:	72 09       	ld.w	r9,r9[0x0]
8000263a:	91 99       	st.w	r8[0x24],r9
8000263c:	d6 03       	rete
		} else {
			// put the byte in the Transmit Holding Register
			twi_inst->thr = *twi_tx_data++;
8000263e:	49 0a       	lddpc	r10,8000267c <twi_master_interrupt_handler+0xb0>
80002640:	74 09       	ld.w	r9,r10[0x0]
80002642:	13 3b       	ld.ub	r11,r9++
80002644:	91 db       	st.w	r8[0x34],r11
80002646:	95 09       	st.w	r10[0x0],r9
80002648:	d6 03       	rete
		}
	}
	// this is a TXCOMP
	else if (status & AVR32_TWI_SR_TXCOMP_MASK) {
8000264a:	f3 d9 c0 01 	bfextu	r9,r9,0x0,0x1
8000264e:	c0 51       	brne	80002658 <twi_master_interrupt_handler+0x8c>
80002650:	d6 03       	rete
	}

	return;

nack:
	twi_nack = true;
80002652:	30 1a       	mov	r10,1
80002654:	48 b9       	lddpc	r9,80002680 <twi_master_interrupt_handler+0xb4>
80002656:	b2 8a       	st.b	r9[0x0],r10

complete:
	// disable all interrupts
	twi_inst->idr = ~0UL;
80002658:	3f f9       	mov	r9,-1
8000265a:	91 a9       	st.w	r8[0x28],r9
	twi_inst->sr;
8000265c:	70 88       	ld.w	r8,r8[0x20]
	twi_busy = false;
8000265e:	30 09       	mov	r9,0
80002660:	48 98       	lddpc	r8,80002684 <twi_master_interrupt_handler+0xb8>
80002662:	b0 89       	st.b	r8[0x0],r9
80002664:	d6 03       	rete
80002666:	00 00       	add	r0,r0
80002668:	00 00       	add	r0,r0
8000266a:	00 ec       	st.h	--r0,r12
8000266c:	00 00       	add	r0,r0
8000266e:	00 e8       	st.h	--r0,r8
80002670:	00 00       	add	r0,r0
80002672:	00 f8       	st.b	--r0,r8
80002674:	00 00       	add	r0,r0
80002676:	00 f4       	st.b	--r0,r4
80002678:	00 00       	add	r0,r0
8000267a:	00 e4       	st.h	--r0,r4
8000267c:	00 00       	add	r0,r0
8000267e:	00 f0       	st.b	--r0,r0
80002680:	00 00       	add	r0,r0
80002682:	00 e1       	st.h	--r0,r1
80002684:	00 00       	add	r0,r0
80002686:	00 e0       	st.h	--r0,r0

80002688 <twi_mk_addr>:
 * which byte is the MSB to start with.
 *
 * Please see the device datasheet for details on this.
 */
static uint32_t twi_mk_addr(const uint8_t *addr, int len)
{
80002688:	18 98       	mov	r8,r12
	uint32_t val;

	if (len == 0)
8000268a:	58 0b       	cp.w	r11,0
8000268c:	c0 21       	brne	80002690 <twi_mk_addr+0x8>
8000268e:	5e fd       	retal	0
		return 0;

	val = addr[0];
80002690:	19 8c       	ld.ub	r12,r12[0x0]
	if (len > 1) {
80002692:	58 1b       	cp.w	r11,1
80002694:	e0 8a 00 05 	brle	8000269e <twi_mk_addr+0x16>
		val <<= 8;
		val |= addr[1];
80002698:	11 99       	ld.ub	r9,r8[0x1]
8000269a:	f3 ec 10 8c 	or	r12,r9,r12<<0x8
	}
	if (len > 2) {
8000269e:	58 2b       	cp.w	r11,2
800026a0:	5e ac       	retle	r12
		val <<= 8;
		val |= addr[2];
800026a2:	11 a8       	ld.ub	r8,r8[0x2]
800026a4:	f1 ec 10 8c 	or	r12,r8,r12<<0x8
	}
	return val;
}
800026a8:	5e fc       	retal	r12
800026aa:	d7 03       	nop

800026ac <twi_is_busy>:
}


bool twi_is_busy(void)
{
	if (twi_busy) {
800026ac:	48 28       	lddpc	r8,800026b4 <twi_is_busy+0x8>
800026ae:	11 8c       	ld.ub	r12,r8[0x0]
		return true;          // Still receiving/transmitting...
	} else {
		return false;
	}
}
800026b0:	5e fc       	retal	r12
800026b2:	00 00       	add	r0,r0
800026b4:	00 00       	add	r0,r0
800026b6:	00 e0       	st.h	--r0,r0

800026b8 <twi_master_write>:
	return TWI_SUCCESS;
}


int twi_master_write(volatile avr32_twi_t *twi, const twi_package_t *package)
{
800026b8:	eb cd 40 c0 	pushm	r6-r7,lr
800026bc:	18 96       	mov	r6,r12
800026be:	16 97       	mov	r7,r11
	// No data to send
	if (package->length == 0) {
800026c0:	76 38       	ld.w	r8,r11[0xc]
800026c2:	58 08       	cp.w	r8,0
800026c4:	c0 51       	brne	800026ce <twi_master_write+0x16>
800026c6:	e3 cf c0 c0 	ldm	sp++,r6-r7,pc,r12=-1
		return TWI_INVALID_ARGUMENT;
	}

	while (twi_is_busy()) {
		cpu_relax();
800026ca:	fe cf ff fc 	sub	pc,pc,-4
	// No data to send
	if (package->length == 0) {
		return TWI_INVALID_ARGUMENT;
	}

	while (twi_is_busy()) {
800026ce:	f0 1f 00 1f 	mcall	80002748 <twi_master_write+0x90>
800026d2:	cf c1       	brne	800026ca <twi_master_write+0x12>
		cpu_relax();
	};

	twi_nack = false;
800026d4:	30 09       	mov	r9,0
800026d6:	49 e8       	lddpc	r8,8000274c <twi_master_write+0x94>
800026d8:	b0 89       	st.b	r8[0x0],r9
	twi_busy = true;
800026da:	30 19       	mov	r9,1
800026dc:	49 d8       	lddpc	r8,80002750 <twi_master_write+0x98>
800026de:	b0 89       	st.b	r8[0x0],r9

	// Enable master transfer, disable slave
	twi->cr =   AVR32_TWI_CR_MSEN_MASK
800026e0:	32 48       	mov	r8,36
800026e2:	8d 08       	st.w	r6[0x0],r8
			| AVR32_TWI_CR_SVDIS_MASK
#endif
			;

	// set write mode, slave address and 3 internal address byte length
	twi->mmr = (0 << AVR32_TWI_MMR_MREAD_OFFSET) |
800026e4:	6e 18       	ld.w	r8,r7[0x4]
800026e6:	a9 68       	lsl	r8,0x8
800026e8:	e2 18 03 00 	andl	r8,0x300,COH
800026ec:	0f 89       	ld.ub	r9,r7[0x0]
800026ee:	f1 e9 11 08 	or	r8,r8,r9<<0x10
800026f2:	8d 18       	st.w	r6[0x4],r8
			(package->chip << AVR32_TWI_MMR_DADR_OFFSET) |
			((package->addr_length << AVR32_TWI_MMR_IADRSZ_OFFSET) & AVR32_TWI_MMR_IADRSZ_MASK);

	// Set pointer to TWI instance for IT
	twi_inst = twi;
800026f4:	49 88       	lddpc	r8,80002754 <twi_master_write+0x9c>
800026f6:	91 06       	st.w	r8[0x0],r6

	// set internal address for remote chip
	twi->iadr = twi_mk_addr(package->addr, package->addr_length);
800026f8:	6e 1b       	ld.w	r11,r7[0x4]
800026fa:	ee cc ff ff 	sub	r12,r7,-1
800026fe:	f0 1f 00 17 	mcall	80002758 <twi_master_write+0xa0>
80002702:	8d 3c       	st.w	r6[0xc],r12

	// get a pointer to applicative data
	twi_tx_data = package->buffer;
80002704:	6e 29       	ld.w	r9,r7[0x8]
80002706:	49 68       	lddpc	r8,8000275c <twi_master_write+0xa4>
80002708:	91 09       	st.w	r8[0x0],r9

	// get a copy of nb bytes to write
	twi_tx_nb_bytes = package->length;
8000270a:	6e 3a       	ld.w	r10,r7[0xc]
8000270c:	49 59       	lddpc	r9,80002760 <twi_master_write+0xa8>
8000270e:	93 0a       	st.w	r9[0x0],r10

	// put the first byte in the Transmit Holding Register
	twi->thr = *twi_tx_data++;
80002710:	70 09       	ld.w	r9,r8[0x0]
80002712:	13 3a       	ld.ub	r10,r9++
80002714:	8d da       	st.w	r6[0x34],r10
80002716:	91 09       	st.w	r8[0x0],r9

	// mask NACK and TXRDY interrupts
	twi_it_mask = AVR32_TWI_IER_NACK_MASK | AVR32_TWI_IER_TXRDY_MASK;
80002718:	49 38       	lddpc	r8,80002764 <twi_master_write+0xac>
8000271a:	e0 69 01 04 	mov	r9,260
8000271e:	91 09       	st.w	r8[0x0],r9

	// update IMR through IER
	twi->ier = twi_it_mask;
80002720:	70 08       	ld.w	r8,r8[0x0]
80002722:	8d 98       	st.w	r6[0x24],r8

	// send data
	while (twi_is_busy()) {
80002724:	c0 38       	rjmp	8000272a <twi_master_write+0x72>
		cpu_relax();
80002726:	fe cf ff fc 	sub	pc,pc,-4

	// update IMR through IER
	twi->ier = twi_it_mask;

	// send data
	while (twi_is_busy()) {
8000272a:	f0 1f 00 08 	mcall	80002748 <twi_master_write+0x90>
8000272e:	cf c1       	brne	80002726 <twi_master_write+0x6e>
		cpu_relax();
	}

	// Disable master transfer
	twi->cr =  AVR32_TWI_CR_MSDIS_MASK;
80002730:	30 88       	mov	r8,8
80002732:	8d 08       	st.w	r6[0x0],r8

	if (twi_nack) {
80002734:	48 68       	lddpc	r8,8000274c <twi_master_write+0x94>
80002736:	11 8c       	ld.ub	r12,r8[0x0]
80002738:	58 0c       	cp.w	r12,0
8000273a:	f9 bc 01 fb 	movne	r12,-5
8000273e:	f9 bc 00 00 	moveq	r12,0
		return TWI_RECEIVE_NACK;
	}

	return TWI_SUCCESS;
}
80002742:	e3 cd 80 c0 	ldm	sp++,r6-r7,pc
80002746:	00 00       	add	r0,r0
80002748:	80 00       	ld.sh	r0,r0[0x0]
8000274a:	26 ac       	sub	r12,106
8000274c:	00 00       	add	r0,r0
8000274e:	00 e1       	st.h	--r0,r1
80002750:	00 00       	add	r0,r0
80002752:	00 e0       	st.h	--r0,r0
80002754:	00 00       	add	r0,r0
80002756:	00 ec       	st.h	--r0,r12
80002758:	80 00       	ld.sh	r0,r0[0x0]
8000275a:	26 88       	sub	r8,104
8000275c:	00 00       	add	r0,r0
8000275e:	00 f0       	st.b	--r0,r0
80002760:	00 00       	add	r0,r0
80002762:	00 e4       	st.h	--r0,r4
80002764:	00 00       	add	r0,r0
80002766:	00 e8       	st.h	--r0,r8

80002768 <twi_master_read>:
	}
	return val;
}

int twi_master_read(volatile avr32_twi_t *twi, const twi_package_t *package)
{
80002768:	eb cd 40 c0 	pushm	r6-r7,lr
8000276c:	18 96       	mov	r6,r12
8000276e:	16 97       	mov	r7,r11
	// check argument
	if (package->length == 0) {
80002770:	76 38       	ld.w	r8,r11[0xc]
80002772:	58 08       	cp.w	r8,0
80002774:	c0 51       	brne	8000277e <twi_master_read+0x16>
80002776:	e3 cf c0 c0 	ldm	sp++,r6-r7,pc,r12=-1
		return TWI_INVALID_ARGUMENT;
	}

	while (twi_is_busy()) {
		cpu_relax();
8000277a:	fe cf ff fc 	sub	pc,pc,-4
	// check argument
	if (package->length == 0) {
		return TWI_INVALID_ARGUMENT;
	}

	while (twi_is_busy()) {
8000277e:	f0 1f 00 21 	mcall	80002800 <twi_master_read+0x98>
80002782:	cf c1       	brne	8000277a <twi_master_read+0x12>
		cpu_relax();
	};

	twi_nack = false;
80002784:	30 09       	mov	r9,0
80002786:	4a 08       	lddpc	r8,80002804 <twi_master_read+0x9c>
80002788:	b0 89       	st.b	r8[0x0],r9
	twi_busy = true;
8000278a:	30 19       	mov	r9,1
8000278c:	49 f8       	lddpc	r8,80002808 <twi_master_read+0xa0>
8000278e:	b0 89       	st.b	r8[0x0],r9

	// set read mode, slave address and 3 internal address byte length
	twi->mmr = (package->chip << AVR32_TWI_MMR_DADR_OFFSET) |
80002790:	0f 89       	ld.ub	r9,r7[0x0]
80002792:	6e 18       	ld.w	r8,r7[0x4]
80002794:	a9 68       	lsl	r8,0x8
80002796:	e2 18 03 00 	andl	r8,0x300,COH
8000279a:	f1 e9 11 08 	or	r8,r8,r9<<0x10
8000279e:	ad a8       	sbr	r8,0xc
800027a0:	8d 18       	st.w	r6[0x4],r8
			((package->addr_length << AVR32_TWI_MMR_IADRSZ_OFFSET) & AVR32_TWI_MMR_IADRSZ_MASK) |
			(1 << AVR32_TWI_MMR_MREAD_OFFSET);

	// Set pointer to TWIM instance for IT
	twi_inst = twi;
800027a2:	49 b8       	lddpc	r8,8000280c <twi_master_read+0xa4>
800027a4:	91 06       	st.w	r8[0x0],r6

	// set internal address for remote chip
	twi->iadr = twi_mk_addr(package->addr, package->addr_length);
800027a6:	6e 1b       	ld.w	r11,r7[0x4]
800027a8:	ee cc ff ff 	sub	r12,r7,-1
800027ac:	f0 1f 00 19 	mcall	80002810 <twi_master_read+0xa8>
800027b0:	8d 3c       	st.w	r6[0xc],r12

	// get a pointer to applicative data
	twi_rx_data = package->buffer;
800027b2:	6e 29       	ld.w	r9,r7[0x8]
800027b4:	49 88       	lddpc	r8,80002814 <twi_master_read+0xac>
800027b6:	91 09       	st.w	r8[0x0],r9

	// get a copy of nb bytes to read
	twi_rx_nb_bytes = package->length;
800027b8:	6e 39       	ld.w	r9,r7[0xc]
800027ba:	49 88       	lddpc	r8,80002818 <twi_master_read+0xb0>
800027bc:	91 09       	st.w	r8[0x0],r9

	// Enable master transfer
	twi->cr =  AVR32_TWI_CR_MSEN_MASK;
800027be:	30 49       	mov	r9,4
800027c0:	8d 09       	st.w	r6[0x0],r9

	// Send start condition
	twi->cr = AVR32_TWI_START_MASK;
800027c2:	30 19       	mov	r9,1
800027c4:	8d 09       	st.w	r6[0x0],r9

	// only one byte to receive
	if (twi_rx_nb_bytes == 1) {
800027c6:	70 08       	ld.w	r8,r8[0x0]
		// set stop bit
		twi->cr = AVR32_TWI_STOP_MASK;
800027c8:	12 38       	cp.w	r8,r9
800027ca:	f9 b8 00 02 	moveq	r8,2
800027ce:	ed f8 0a 00 	st.weq	r6[0x0],r8
	}

	// mask NACK and RXRDY interrupts
	twi_it_mask = AVR32_TWI_IER_NACK_MASK | AVR32_TWI_IER_RXRDY_MASK;
800027d2:	49 38       	lddpc	r8,8000281c <twi_master_read+0xb4>
800027d4:	e0 69 01 02 	mov	r9,258
800027d8:	91 09       	st.w	r8[0x0],r9

	// update IMR through IER
	twi->ier = twi_it_mask;
800027da:	70 08       	ld.w	r8,r8[0x0]
800027dc:	8d 98       	st.w	r6[0x24],r8

	// get data
	while (twi_is_busy()) {
800027de:	c0 38       	rjmp	800027e4 <twi_master_read+0x7c>
		cpu_relax();
800027e0:	fe cf ff fc 	sub	pc,pc,-4

	// update IMR through IER
	twi->ier = twi_it_mask;

	// get data
	while (twi_is_busy()) {
800027e4:	f0 1f 00 07 	mcall	80002800 <twi_master_read+0x98>
800027e8:	cf c1       	brne	800027e0 <twi_master_read+0x78>
		cpu_relax();
	}

	// Disable master transfer
	twi->cr =  AVR32_TWI_CR_MSDIS_MASK;
800027ea:	30 88       	mov	r8,8
800027ec:	8d 08       	st.w	r6[0x0],r8

	if (twi_nack) {
800027ee:	48 68       	lddpc	r8,80002804 <twi_master_read+0x9c>
800027f0:	11 8c       	ld.ub	r12,r8[0x0]
800027f2:	58 0c       	cp.w	r12,0
800027f4:	f9 bc 01 fb 	movne	r12,-5
800027f8:	f9 bc 00 00 	moveq	r12,0
		return TWI_RECEIVE_NACK;
	}

	return TWI_SUCCESS;
}
800027fc:	e3 cd 80 c0 	ldm	sp++,r6-r7,pc
80002800:	80 00       	ld.sh	r0,r0[0x0]
80002802:	26 ac       	sub	r12,106
80002804:	00 00       	add	r0,r0
80002806:	00 e1       	st.h	--r0,r1
80002808:	00 00       	add	r0,r0
8000280a:	00 e0       	st.h	--r0,r0
8000280c:	00 00       	add	r0,r0
8000280e:	00 ec       	st.h	--r0,r12
80002810:	80 00       	ld.sh	r0,r0[0x0]
80002812:	26 88       	sub	r8,104
80002814:	00 00       	add	r0,r0
80002816:	00 f8       	st.b	--r0,r8
80002818:	00 00       	add	r0,r0
8000281a:	00 f4       	st.b	--r0,r4
8000281c:	00 00       	add	r0,r0
8000281e:	00 e8       	st.h	--r0,r8

80002820 <twi_master_init>:
	return TWI_SUCCESS;
}


int twi_master_init(volatile avr32_twi_t *twi, const twi_options_t *opt)
{
80002820:	eb cd 40 e0 	pushm	r5-r7,lr
80002824:	20 1d       	sub	sp,4
80002826:	18 97       	mov	r7,r12
80002828:	16 95       	mov	r5,r11
	irqflags_t flags = sysreg_read(AVR32_SR);
8000282a:	e1 b8 00 00 	mfsr	r8,0x0
	int status = TWI_SUCCESS;

	// Set pointer to TWIM instance for IT
	twi_inst = twi;
8000282e:	4a 19       	lddpc	r9,800028b0 <twi_master_init+0x90>
80002830:	93 0c       	st.w	r9[0x0],r12

	// Disable TWI interrupts
	cpu_irq_disable();
80002832:	d3 03       	ssrf	0x10
	twi->idr = ~0UL;
80002834:	3f f9       	mov	r9,-1
80002836:	99 a9       	st.w	r12[0x28],r9
	twi->sr;
80002838:	78 89       	ld.w	r9,r12[0x20]

	// Reset TWI
	twi->cr = AVR32_TWI_CR_SWRST_MASK;
8000283a:	e0 69 00 80 	mov	r9,128
8000283e:	99 09       	st.w	r12[0x0],r9
static inline void cpu_irq_restore(irqflags_t flags)
{
	barrier();

   /* Restore the global IRQ mask status flag if it was previously set */
   if ( cpu_irq_is_enabled_flags(flags) ) {
80002840:	e6 18 00 01 	andh	r8,0x1,COH
80002844:	c0 21       	brne	80002848 <twi_master_init+0x28>
      cpu_irq_enable();
80002846:	d5 03       	csrf	0x10
	cpu_irq_restore(flags);

	// Dummy read in SR
	twi->sr;
80002848:	6e 88       	ld.w	r8,r7[0x20]

static inline irqflags_t cpu_irq_save(void)
{
	volatile irqflags_t flags;

	flags = sysreg_read(AVR32_SR);
8000284a:	e1 b8 00 00 	mfsr	r8,0x0
8000284e:	50 08       	stdsp	sp[0x0],r8
	cpu_irq_disable();
80002850:	d3 03       	ssrf	0x10

	return flags;
80002852:	40 06       	lddsp	r6,sp[0x0]

	// register Register twim_master_interrupt_handler interrupt
	// on level CONF_TWI_IRQ_LEVEL
	flags = cpu_irq_save();
	irq_register_handler(&twi_master_interrupt_handler, CONF_TWI_IRQ_LINE,
80002854:	30 3a       	mov	r10,3
80002856:	e0 6b 01 60 	mov	r11,352
8000285a:	49 7c       	lddpc	r12,800028b4 <twi_master_init+0x94>
8000285c:	f0 1f 00 17 	mcall	800028b8 <twi_master_init+0x98>
static inline void cpu_irq_restore(irqflags_t flags)
{
	barrier();

   /* Restore the global IRQ mask status flag if it was previously set */
   if ( cpu_irq_is_enabled_flags(flags) ) {
80002860:	e6 16 00 01 	andh	r6,0x1,COH
80002864:	c0 21       	brne	80002868 <twi_master_init+0x48>
      cpu_irq_enable();
80002866:	d5 03       	csrf	0x10
		unsigned long pba_hz)
{
	unsigned int ckdiv = 0;
	unsigned int c_lh_div;

	c_lh_div = pba_hz / (speed * 2) - 4;
80002868:	6a 19       	ld.w	r9,r5[0x4]
8000286a:	a1 79       	lsl	r9,0x1
8000286c:	6a 08       	ld.w	r8,r5[0x0]
8000286e:	f0 09 0d 08 	divu	r8,r8,r9
80002872:	20 48       	sub	r8,4

	// cldiv must fit in 8 bits, ckdiv must fit in 3 bits
	while ((c_lh_div > 0xFF) && (ckdiv < 0x7)) {
80002874:	e0 48 00 ff 	cp.w	r8,255
80002878:	e0 8b 00 04 	brhi	80002880 <twi_master_init+0x60>
8000287c:	30 09       	mov	r9,0
8000287e:	c0 f8       	rjmp	8000289c <twi_master_init+0x7c>
80002880:	30 09       	mov	r9,0
80002882:	30 0c       	mov	r12,0
		// increase clock divider
		ckdiv++;
80002884:	2f f9       	sub	r9,-1

		// divide cldiv value
		c_lh_div /= 2;
80002886:	a1 98       	lsr	r8,0x1
	unsigned int c_lh_div;

	c_lh_div = pba_hz / (speed * 2) - 4;

	// cldiv must fit in 8 bits, ckdiv must fit in 3 bits
	while ((c_lh_div > 0xFF) && (ckdiv < 0x7)) {
80002888:	e0 48 00 ff 	cp.w	r8,255
8000288c:	5f bb       	srhi	r11
8000288e:	58 69       	cp.w	r9,6
80002890:	5f 8a       	srls	r10
80002892:	f7 ea 00 0a 	and	r10,r11,r10
80002896:	f8 0a 18 00 	cp.b	r10,r12
8000289a:	cf 51       	brne	80002884 <twi_master_init+0x64>
		// divide cldiv value
		c_lh_div /= 2;
	}

	// set clock waveform generator register
	twi->cwgr = ((c_lh_div << AVR32_TWI_CWGR_CLDIV_OFFSET) |
8000289c:	b1 69       	lsl	r9,0x10
8000289e:	f3 e8 10 89 	or	r9,r9,r8<<0x8
800028a2:	f3 e8 10 08 	or	r8,r9,r8
800028a6:	8f 48       	st.w	r7[0x10],r8

	// Probe the component
	//status = twi_probe(twi, opt->chip);

	return status;
}
800028a8:	2f fd       	sub	sp,-4
800028aa:	e3 cf 80 e0 	ldm	sp++,r5-r7,pc,r12=0
800028ae:	00 00       	add	r0,r0
800028b0:	00 00       	add	r0,r0
800028b2:	00 ec       	st.h	--r0,r12
800028b4:	80 00       	ld.sh	r0,r0[0x0]
800028b6:	25 cc       	sub	r12,92
800028b8:	80 00       	ld.sh	r0,r0[0x0]
800028ba:	21 3c       	sub	r12,19

800028bc <_stext>:

  .global _stext
  .type _stext, @function
_stext:
  // Set initial stack pointer.
  lda.w   sp, _estack
800028bc:	e0 7d 00 00 	mov	sp,65536

  // Set up EVBA so interrupts can be enabled.
  lda.w   r0, _evba
  mtsr    AVR32_EVBA, r0
800028c0:	fe c0 ea c0 	sub	r0,pc,-5440

  // Enable the exception processing.
  csrf    AVR32_SR_EM_OFFSET
800028c4:	e3 b0 00 01 	mtsr	0x4,r0

  // Load initialized data having a global lifetime from the data LMA.
  lda.w   r0, _data
  lda.w   r1, _edata
800028c8:	d5 53       	csrf	0x15
  cp      r0, r1
800028ca:	30 40       	mov	r0,4
  brhs    idata_load_loop_end
800028cc:	30 81       	mov	r1,8
  lda.w   r2, _data_lma
800028ce:	02 30       	cp.w	r0,r1
idata_load_loop:
  ld.d    r4, r2++
800028d0:	c0 72       	brcc	800028de <idata_load_loop_end>
  st.d    r0++, r4
800028d2:	fe c2 b4 1a 	sub	r2,pc,-19430

800028d6 <idata_load_loop>:
  cp      r0, r1
  brlo    idata_load_loop
800028d6:	a5 05       	ld.d	r4,r2++
idata_load_loop_end:

  // Clear uninitialized data having a global lifetime in the blank static storage section.
  lda.w   r0, __bss_start
800028d8:	a1 24       	st.d	r0++,r4
  lda.w   r1, _end
800028da:	02 30       	cp.w	r0,r1
  cp      r0, r1
800028dc:	cf d3       	brcs	800028d6 <idata_load_loop>

800028de <idata_load_loop_end>:
  brhs    udata_clear_loop_end
800028de:	30 80       	mov	r0,8
  mov     r2, 0
800028e0:	e0 61 01 78 	mov	r1,376
  mov     r3, 0
udata_clear_loop:
  st.d    r0++, r2
800028e4:	02 30       	cp.w	r0,r1
  cp      r0, r1
800028e6:	c0 62       	brcc	800028f2 <udata_clear_loop_end>
  brlo    udata_clear_loop
800028e8:	30 02       	mov	r2,0
  // Safety: Set the default "return" @ to the exit routine address.
  lda.w   lr, exit
#endif

  // Start the show.
  lda.w   pc, main
800028ea:	30 03       	mov	r3,0

800028ec <udata_clear_loop>:
800028ec:	a1 22       	st.d	r0++,r2
800028ee:	02 30       	cp.w	r0,r1
800028f0:	cf e3       	brcs	800028ec <udata_clear_loop>

800028f2 <udata_clear_loop_end>:
800028f2:	fe cf ec aa 	sub	pc,pc,-4950
800028f6:	d7 03       	nop

800028f8 <gfx_BeginNewTerminal>:
			}
		}
	}
}

void gfx_BeginNewTerminal(Vector2 topLeft){
800028f8:	eb cd 00 10 	pushm	r4
800028fc:	fa c4 ff fc 	sub	r4,sp,-4
80002900:	88 09       	ld.sh	r9,r4[0x0]
	newLinePosition = topLeft;
80002902:	48 48       	lddpc	r8,80002910 <gfx_BeginNewTerminal+0x18>
80002904:	09 aa       	ld.ub	r10,r4[0x2]
80002906:	b0 aa       	st.b	r8[0x2],r10
80002908:	b0 09       	st.h	r8[0x0],r9
}
8000290a:	e3 cd 00 10 	ldm	sp++,r4
8000290e:	5e fc       	retal	r12
80002910:	00 00       	add	r0,r0
80002912:	00 fc       	st.b	--r0,r12

80002914 <gfx_DrawCircle>:

void gfx_DrawPixel(Vector2 position, Color color){
	screen_SetPixel(position,color);
}

void gfx_DrawCircle(Vector2 center, uint16_t radius, uint8_t width, Color color){
80002914:	d4 31       	pushm	r0-r7,lr
80002916:	fa cd 00 80 	sub	sp,sp,128
8000291a:	fa c4 ff 5c 	sub	r4,sp,-164
8000291e:	50 7c       	stdsp	sp[0x1c],r12
80002920:	50 3b       	stdsp	sp[0xc],r11
80002922:	88 0a       	ld.sh	r10,r4[0x0]
80002924:	50 4a       	stdsp	sp[0x10],r10
80002926:	09 a5       	ld.ub	r5,r4[0x2]
	int16_t x, y, e;
	x = 0;
	y = radius;
80002928:	18 97       	mov	r7,r12
8000292a:	5c 87       	casts.h	r7
	e = 1 - radius;
8000292c:	f8 00 11 01 	rsub	r0,r12,1
80002930:	5c 80       	casts.h	r0
80002932:	14 91       	mov	r1,r10
80002934:	5c 81       	casts.h	r1
80002936:	50 21       	stdsp	sp[0x8],r1
80002938:	30 06       	mov	r6,0
	
	do
	{
		if(width == radius)
8000293a:	50 6b       	stdsp	sp[0x18],r11
8000293c:	40 38       	lddsp	r8,sp[0xc]
8000293e:	40 7a       	lddsp	r10,sp[0x1c]
80002940:	f4 08 19 00 	cp.h	r8,r10
80002944:	c5 d1       	brne	800029fe <gfx_DrawCircle+0xea>
		{
			screen_SetPixels(Rect(center.x -x, center.y +y, center.x+x, center.y +y),color);
80002946:	40 22       	lddsp	r2,sp[0x8]
80002948:	5c 72       	castu.h	r2
8000294a:	0e 93       	mov	r3,r7
8000294c:	e6 05 00 0a 	add	r10,r3,r5
80002950:	5c 5a       	castu.b	r10
80002952:	f3 d1 c0 10 	bfextu	r9,r1,0x0,0x10
80002956:	50 09       	stdsp	sp[0x0],r9
80002958:	14 98       	mov	r8,r10
8000295a:	04 99       	mov	r9,r2
8000295c:	40 0b       	lddsp	r11,sp[0x0]
8000295e:	fa cc ff e0 	sub	r12,sp,-32
80002962:	f0 1f 00 93 	mcall	80002bac <gfx_DrawCircle+0x298>
80002966:	68 18       	ld.w	r8,r4[0x4]
80002968:	1a d8       	st.w	--sp,r8
8000296a:	fa e8 00 24 	ld.d	r8,sp[36]
8000296e:	bb 29       	st.d	--sp,r8
80002970:	f0 1f 00 90 	mcall	80002bb0 <gfx_DrawCircle+0x29c>
			screen_SetPixels(Rect(center.x -x, center.y -y, center.x+x, center.y -y),color);
80002974:	ea 03 01 03 	sub	r3,r5,r3
80002978:	f5 d3 c0 08 	bfextu	r10,r3,0x0,0x8
8000297c:	14 98       	mov	r8,r10
8000297e:	04 99       	mov	r9,r2
80002980:	40 3b       	lddsp	r11,sp[0xc]
80002982:	fa cc ff cc 	sub	r12,sp,-52
80002986:	f0 1f 00 8a 	mcall	80002bac <gfx_DrawCircle+0x298>
8000298a:	68 18       	ld.w	r8,r4[0x4]
8000298c:	1a d8       	st.w	--sp,r8
8000298e:	fa e8 00 38 	ld.d	r8,sp[56]
80002992:	bb 29       	st.d	--sp,r8
80002994:	f0 1f 00 87 	mcall	80002bb0 <gfx_DrawCircle+0x29c>
			screen_SetPixels(Rect(center.x -y, center.y +x, center.x+y, center.y +x),color);
80002998:	0e 92       	mov	r2,r7
8000299a:	fb 08 00 2a 	ld.sh	r8,sp[42]
8000299e:	10 02       	add	r2,r8
800029a0:	5c 72       	castu.h	r2

void gfx_DrawPixel(Vector2 position, Color color){
	screen_SetPixel(position,color);
}

void gfx_DrawCircle(Vector2 center, uint16_t radius, uint8_t width, Color color){
800029a2:	e7 d6 c0 08 	bfextu	r3,r6,0x0,0x8
	{
		if(width == radius)
		{
			screen_SetPixels(Rect(center.x -x, center.y +y, center.x+x, center.y +y),color);
			screen_SetPixels(Rect(center.x -x, center.y -y, center.x+x, center.y -y),color);
			screen_SetPixels(Rect(center.x -y, center.y +x, center.x+y, center.y +x),color);
800029a6:	e6 05 00 0a 	add	r10,r3,r5
800029aa:	5c 5a       	castu.b	r10
800029ac:	fb 08 00 2a 	ld.sh	r8,sp[42]
800029b0:	0e 99       	mov	r9,r7
800029b2:	12 18       	sub	r8,r9
800029b4:	5c 78       	castu.h	r8
800029b6:	50 68       	stdsp	sp[0x18],r8
800029b8:	14 98       	mov	r8,r10
800029ba:	04 99       	mov	r9,r2
800029bc:	40 6b       	lddsp	r11,sp[0x18]
800029be:	fa cc ff b8 	sub	r12,sp,-72
800029c2:	f0 1f 00 7b 	mcall	80002bac <gfx_DrawCircle+0x298>
800029c6:	68 18       	ld.w	r8,r4[0x4]
800029c8:	1a d8       	st.w	--sp,r8
800029ca:	fa e8 00 4c 	ld.d	r8,sp[76]
800029ce:	bb 29       	st.d	--sp,r8
800029d0:	f0 1f 00 78 	mcall	80002bb0 <gfx_DrawCircle+0x29c>
			screen_SetPixels(Rect(center.x -y, center.y -x, center.x+y, center.y -x),color);
800029d4:	ea 03 01 03 	sub	r3,r5,r3
800029d8:	f5 d3 c0 08 	bfextu	r10,r3,0x0,0x8
800029dc:	2f 7d       	sub	sp,-36
800029de:	14 98       	mov	r8,r10
800029e0:	04 99       	mov	r9,r2
800029e2:	40 0b       	lddsp	r11,sp[0x0]
800029e4:	fa cc ff c8 	sub	r12,sp,-56
800029e8:	f0 1f 00 71 	mcall	80002bac <gfx_DrawCircle+0x298>
800029ec:	68 18       	ld.w	r8,r4[0x4]
800029ee:	1a d8       	st.w	--sp,r8
800029f0:	fa e8 00 3c 	ld.d	r8,sp[60]
800029f4:	bb 29       	st.d	--sp,r8
800029f6:	f0 1f 00 6f 	mcall	80002bb0 <gfx_DrawCircle+0x29c>
800029fa:	2f dd       	sub	sp,-12
800029fc:	cb 78       	rjmp	80002b6a <gfx_DrawCircle+0x256>
			Screen_SetPixel(Vector2_Add((Vector2){ y, x },center),color);
			Screen_SetPixel(Vector2_Add((Vector2){-y, x },center),color);
			Screen_SetPixel(Vector2_Add((Vector2){ y, -x},center),color);
			Screen_SetPixel(Vector2_Add((Vector2){-y, -x},center),color);*/
				
			screen_SetPixels(Rect(center.x + x, center.y + y - width, center.x + x, center.y + y),color);
800029fe:	0e 98       	mov	r8,r7
80002a00:	5c 58       	castu.b	r8
80002a02:	50 08       	stdsp	sp[0x0],r8
80002a04:	10 92       	mov	r2,r8
80002a06:	0a 02       	add	r2,r5
80002a08:	5c 52       	castu.b	r2
80002a0a:	40 3a       	lddsp	r10,sp[0xc]
80002a0c:	e4 0a 01 08 	sub	r8,r2,r10
80002a10:	5c 58       	castu.b	r8
80002a12:	50 58       	stdsp	sp[0x14],r8
80002a14:	40 23       	lddsp	r3,sp[0x8]
80002a16:	5c 73       	castu.h	r3
80002a18:	04 98       	mov	r8,r2
80002a1a:	06 99       	mov	r9,r3
80002a1c:	40 5a       	lddsp	r10,sp[0x14]
80002a1e:	06 9b       	mov	r11,r3
80002a20:	fa cc ff c0 	sub	r12,sp,-64
80002a24:	f0 1f 00 62 	mcall	80002bac <gfx_DrawCircle+0x298>
80002a28:	68 18       	ld.w	r8,r4[0x4]
80002a2a:	1a d8       	st.w	--sp,r8
80002a2c:	fa e8 00 44 	ld.d	r8,sp[68]
80002a30:	bb 29       	st.d	--sp,r8
80002a32:	f0 1f 00 60 	mcall	80002bb0 <gfx_DrawCircle+0x29c>
			screen_SetPixels(Rect(center.x + x, center.y - y, center.x + x, center.y - y + width),color);
80002a36:	fb 39 00 0f 	ld.ub	r9,sp[15]
80002a3a:	ea 09 01 08 	sub	r8,r5,r9
80002a3e:	5c 58       	castu.b	r8
80002a40:	50 38       	stdsp	sp[0xc],r8
80002a42:	fb 38 00 0f 	ld.ub	r8,sp[15]
80002a46:	fb 3a 00 1b 	ld.ub	r10,sp[27]
80002a4a:	14 08       	add	r8,r10
80002a4c:	5c 58       	castu.b	r8
80002a4e:	50 48       	stdsp	sp[0x10],r8
80002a50:	06 99       	mov	r9,r3
80002a52:	40 3a       	lddsp	r10,sp[0xc]
80002a54:	06 9b       	mov	r11,r3
80002a56:	fa cc ff ac 	sub	r12,sp,-84
80002a5a:	f0 1f 00 55 	mcall	80002bac <gfx_DrawCircle+0x298>
80002a5e:	68 18       	ld.w	r8,r4[0x4]
80002a60:	1a d8       	st.w	--sp,r8
80002a62:	fa e8 00 58 	ld.d	r8,sp[88]
80002a66:	bb 29       	st.d	--sp,r8
80002a68:	f0 1f 00 52 	mcall	80002bb0 <gfx_DrawCircle+0x29c>
			screen_SetPixels(Rect(center.x - x, center.y + y - width, center.x - x, center.y + y),color);
80002a6c:	e7 d1 c0 10 	bfextu	r3,r1,0x0,0x10
80002a70:	04 98       	mov	r8,r2
80002a72:	06 99       	mov	r9,r3
80002a74:	40 ba       	lddsp	r10,sp[0x2c]
80002a76:	06 9b       	mov	r11,r3
80002a78:	fa cc ff 98 	sub	r12,sp,-104
80002a7c:	f0 1f 00 4c 	mcall	80002bac <gfx_DrawCircle+0x298>
80002a80:	68 18       	ld.w	r8,r4[0x4]
80002a82:	1a d8       	st.w	--sp,r8
80002a84:	fa e8 00 6c 	ld.d	r8,sp[108]
80002a88:	bb 29       	st.d	--sp,r8
80002a8a:	f0 1f 00 4a 	mcall	80002bb0 <gfx_DrawCircle+0x29c>
			screen_SetPixels(Rect(center.x - x, center.y - y, center.x - x, center.y - y + width),color);
80002a8e:	2f 7d       	sub	sp,-36
80002a90:	40 18       	lddsp	r8,sp[0x4]
80002a92:	06 99       	mov	r9,r3
80002a94:	40 0a       	lddsp	r10,sp[0x0]
80002a96:	06 9b       	mov	r11,r3
80002a98:	fa cc ff a8 	sub	r12,sp,-88
80002a9c:	f0 1f 00 44 	mcall	80002bac <gfx_DrawCircle+0x298>
80002aa0:	68 18       	ld.w	r8,r4[0x4]
80002aa2:	1a d8       	st.w	--sp,r8
80002aa4:	fa e8 00 5c 	ld.d	r8,sp[92]
80002aa8:	bb 29       	st.d	--sp,r8
80002aaa:	f0 1f 00 42 	mcall	80002bb0 <gfx_DrawCircle+0x29c>
			
			screen_SetPixels(Rect(center.x + y - width, center.y + x, center.x + y, center.y + x),color);
80002aae:	0e 98       	mov	r8,r7
80002ab0:	fb 09 00 1e 	ld.sh	r9,sp[30]
80002ab4:	12 08       	add	r8,r9
80002ab6:	f5 d8 c0 10 	bfextu	r10,r8,0x0,0x10
80002aba:	50 3a       	stdsp	sp[0xc],r10

void gfx_DrawPixel(Vector2 position, Color color){
	screen_SetPixel(position,color);
}

void gfx_DrawCircle(Vector2 center, uint16_t radius, uint8_t width, Color color){
80002abc:	e5 d6 c0 08 	bfextu	r2,r6,0x0,0x8
			screen_SetPixels(Rect(center.x + x, center.y + y - width, center.x + x, center.y + y),color);
			screen_SetPixels(Rect(center.x + x, center.y - y, center.x + x, center.y - y + width),color);
			screen_SetPixels(Rect(center.x - x, center.y + y - width, center.x - x, center.y + y),color);
			screen_SetPixels(Rect(center.x - x, center.y - y, center.x - x, center.y - y + width),color);
			
			screen_SetPixels(Rect(center.x + y - width, center.y + x, center.x + y, center.y + x),color);
80002ac0:	e4 05 00 03 	add	r3,r2,r5
80002ac4:	5c 53       	castu.b	r3
80002ac6:	fb 09 00 26 	ld.sh	r9,sp[38]
80002aca:	12 18       	sub	r8,r9
80002acc:	5c 78       	castu.h	r8
80002ace:	50 48       	stdsp	sp[0x10],r8
80002ad0:	06 98       	mov	r8,r3
80002ad2:	14 99       	mov	r9,r10
80002ad4:	06 9a       	mov	r10,r3
80002ad6:	40 4b       	lddsp	r11,sp[0x10]
80002ad8:	fa cc ff 94 	sub	r12,sp,-108
80002adc:	f0 1f 00 34 	mcall	80002bac <gfx_DrawCircle+0x298>
80002ae0:	68 18       	ld.w	r8,r4[0x4]
80002ae2:	1a d8       	st.w	--sp,r8
80002ae4:	fa e8 00 70 	ld.d	r8,sp[112]
80002ae8:	bb 29       	st.d	--sp,r8
80002aea:	f0 1f 00 32 	mcall	80002bb0 <gfx_DrawCircle+0x29c>
			screen_SetPixels(Rect(center.x + y - width, center.y - x, center.x + y, center.y - x),color);
80002aee:	ea 02 01 02 	sub	r2,r5,r2
80002af2:	5c 52       	castu.b	r2
80002af4:	04 98       	mov	r8,r2
80002af6:	40 69       	lddsp	r9,sp[0x18]
80002af8:	04 9a       	mov	r10,r2
80002afa:	40 7b       	lddsp	r11,sp[0x1c]
80002afc:	fa cc ff 80 	sub	r12,sp,-128
80002b00:	f0 1f 00 2b 	mcall	80002bac <gfx_DrawCircle+0x298>
80002b04:	68 18       	ld.w	r8,r4[0x4]
80002b06:	1a d8       	st.w	--sp,r8
80002b08:	fa e8 00 84 	ld.d	r8,sp[132]
80002b0c:	bb 29       	st.d	--sp,r8
80002b0e:	f0 1f 00 29 	mcall	80002bb0 <gfx_DrawCircle+0x29c>
			screen_SetPixels(Rect(center.x - y, center.y + x, center.x - y + width, center.y + x),color);
80002b12:	fb 08 00 36 	ld.sh	r8,sp[54]
80002b16:	0e 9a       	mov	r10,r7
80002b18:	14 18       	sub	r8,r10
80002b1a:	fb 0a 00 3e 	ld.sh	r10,sp[62]
80002b1e:	f0 0a 00 09 	add	r9,r8,r10
80002b22:	5c 79       	castu.h	r9
80002b24:	50 a9       	stdsp	sp[0x28],r9
80002b26:	5c 78       	castu.h	r8
80002b28:	50 98       	stdsp	sp[0x24],r8
80002b2a:	2f 7d       	sub	sp,-36
80002b2c:	06 98       	mov	r8,r3
80002b2e:	40 19       	lddsp	r9,sp[0x4]
80002b30:	06 9a       	mov	r10,r3
80002b32:	40 0b       	lddsp	r11,sp[0x0]
80002b34:	fa cc ff 90 	sub	r12,sp,-112
80002b38:	f0 1f 00 1d 	mcall	80002bac <gfx_DrawCircle+0x298>
80002b3c:	68 18       	ld.w	r8,r4[0x4]
80002b3e:	1a d8       	st.w	--sp,r8
80002b40:	fa e8 00 74 	ld.d	r8,sp[116]
80002b44:	bb 29       	st.d	--sp,r8
80002b46:	f0 1f 00 1b 	mcall	80002bb0 <gfx_DrawCircle+0x29c>
			screen_SetPixels(Rect(center.x - y, center.y - x, center.x - y + width, center.y - x),color);
80002b4a:	04 98       	mov	r8,r2
80002b4c:	40 49       	lddsp	r9,sp[0x10]
80002b4e:	04 9a       	mov	r10,r2
80002b50:	40 3b       	lddsp	r11,sp[0xc]
80002b52:	fa cc ff 7c 	sub	r12,sp,-132
80002b56:	f0 1f 00 16 	mcall	80002bac <gfx_DrawCircle+0x298>
80002b5a:	68 18       	ld.w	r8,r4[0x4]
80002b5c:	1a d8       	st.w	--sp,r8
80002b5e:	fa e8 00 88 	ld.d	r8,sp[136]
80002b62:	bb 29       	st.d	--sp,r8
80002b64:	f0 1f 00 13 	mcall	80002bb0 <gfx_DrawCircle+0x29c>
80002b68:	2f ad       	sub	sp,-24
		}

		if(e < 0)
80002b6a:	30 08       	mov	r8,0
80002b6c:	f0 00 19 00 	cp.h	r0,r8
80002b70:	c0 74       	brge	80002b7e <gfx_DrawCircle+0x26a>
			e += 3 + 2 * x;
80002b72:	ec 08 15 01 	lsl	r8,r6,0x1
80002b76:	2f d0       	sub	r0,-3
80002b78:	10 00       	add	r0,r8
80002b7a:	5c 80       	casts.h	r0
80002b7c:	c0 98       	rjmp	80002b8e <gfx_DrawCircle+0x27a>
		else
			e += 5 + 2 * (x - y--);
80002b7e:	2f b0       	sub	r0,-5
80002b80:	ec 07 01 08 	sub	r8,r6,r7
80002b84:	a1 78       	lsl	r8,0x1
80002b86:	10 00       	add	r0,r8
80002b88:	5c 80       	casts.h	r0
80002b8a:	20 17       	sub	r7,1
80002b8c:	5c 87       	casts.h	r7
		x++;
80002b8e:	2f f6       	sub	r6,-1
80002b90:	5c 86       	casts.h	r6
80002b92:	40 28       	lddsp	r8,sp[0x8]
80002b94:	2f f8       	sub	r8,-1
80002b96:	5c 88       	casts.h	r8
80002b98:	50 28       	stdsp	sp[0x8],r8
80002b9a:	20 11       	sub	r1,1
80002b9c:	5c 81       	casts.h	r1
	} while(x  <= y);
80002b9e:	ec 07 19 00 	cp.h	r7,r6
80002ba2:	fe 94 fe cd 	brge	8000293c <gfx_DrawCircle+0x28>
}
80002ba6:	2e 0d       	sub	sp,-128
80002ba8:	d8 32       	popm	r0-r7,pc
80002baa:	00 00       	add	r0,r0
80002bac:	80 00       	ld.sh	r0,r0[0x0]
80002bae:	31 70       	mov	r0,23
80002bb0:	80 00       	ld.sh	r0,r0[0x0]
80002bb2:	32 e4       	mov	r4,46

80002bb4 <gfx_Label>:
void gfx_FillScreen(Color color){


}

void gfx_Label(Vector2 position, char *content, uint8_t contentSize,TextSize textSize, Color color){
80002bb4:	d4 31       	pushm	r0-r7,lr
80002bb6:	20 cd       	sub	sp,48
80002bb8:	fa c1 ff ac 	sub	r1,sp,-84
80002bbc:	18 90       	mov	r0,r12
80002bbe:	50 7b       	stdsp	sp[0x1c],r11
80002bc0:	50 0a       	stdsp	sp[0x0],r10
	if(*content == '\0' || contentSize == 0)
80002bc2:	19 89       	ld.ub	r9,r12[0x0]
80002bc4:	30 08       	mov	r8,0
80002bc6:	f0 09 18 00 	cp.b	r9,r8
80002bca:	5f 09       	sreq	r9
80002bcc:	f0 0b 18 00 	cp.b	r11,r8
80002bd0:	5f 0a       	sreq	r10
80002bd2:	f3 ea 10 0a 	or	r10,r9,r10
80002bd6:	f0 0a 18 00 	cp.b	r10,r8
80002bda:	e0 81 00 a3 	brne	80002d20 <gfx_Label+0x16c>
		return;
	Vector2 fontSize = {8,8};
	if(textSize == Medium){
80002bde:	40 0a       	lddsp	r10,sp[0x0]
80002be0:	58 1a       	cp.w	r10,1
80002be2:	f9 b8 00 14 	moveq	r8,20
80002be6:	fb f8 0a 02 	st.weq	sp[0x8],r8
80002bea:	f9 b2 00 10 	moveq	r2,16
80002bee:	f9 b2 01 08 	movne	r2,8
80002bf2:	58 12       	cp.w	r2,1
80002bf4:	fb f2 1a 02 	st.wne	sp[0x8],r2
		fontSize.x = 20;
		fontSize.y = 16;
	}
		
	for(uint8_t n = 0; n < contentSize; n++, content++){
80002bf8:	40 78       	lddsp	r8,sp[0x1c]
80002bfa:	58 08       	cp.w	r8,0
80002bfc:	e0 80 00 92 	breq	80002d20 <gfx_Label+0x16c>
		if(*content == '\0')
80002c00:	58 09       	cp.w	r9,0
80002c02:	e0 81 00 8f 	brne	80002d20 <gfx_Label+0x16c>
80002c06:	30 8a       	mov	r10,8
80002c08:	50 5a       	stdsp	sp[0x14],r10
80002c0a:	31 09       	mov	r9,16
80002c0c:	50 39       	stdsp	sp[0xc],r9
80002c0e:	30 08       	mov	r8,0
80002c10:	50 68       	stdsp	sp[0x18],r8
80002c12:	c0 f8       	rjmp	80002c30 <gfx_Label+0x7c>
	if(textSize == Medium){
		fontSize.x = 20;
		fontSize.y = 16;
	}
		
	for(uint8_t n = 0; n < contentSize; n++, content++){
80002c14:	2f f0       	sub	r0,-1
80002c16:	40 38       	lddsp	r8,sp[0xc]
80002c18:	2f 28       	sub	r8,-14
80002c1a:	5c 88       	casts.h	r8
80002c1c:	50 38       	stdsp	sp[0xc],r8
80002c1e:	40 58       	lddsp	r8,sp[0x14]
80002c20:	2f 68       	sub	r8,-10
80002c22:	5c 88       	casts.h	r8
80002c24:	50 58       	stdsp	sp[0x14],r8
		if(*content == '\0')
80002c26:	01 89       	ld.ub	r9,r0[0x0]
80002c28:	30 08       	mov	r8,0
80002c2a:	f0 09 18 00 	cp.b	r9,r8
80002c2e:	c7 90       	breq	80002d20 <gfx_Label+0x16c>
			break;
		
		for(uint8_t x = 0; x < fontSize.x; x++){
80002c30:	40 2a       	lddsp	r10,sp[0x8]
80002c32:	58 0a       	cp.w	r10,0
80002c34:	c6 d0       	breq	80002d0e <gfx_Label+0x15a>
80002c36:	30 03       	mov	r3,0
			uint16_t mask = 1;
			for(uint8_t y = 0; y < fontSize.y; y++){
80002c38:	40 59       	lddsp	r9,sp[0x14]
80002c3a:	5c 89       	casts.h	r9
80002c3c:	50 49       	stdsp	sp[0x10],r9
80002c3e:	c5 a8       	rjmp	80002cf2 <gfx_Label+0x13e>
						screen_SetPixel(vector2_Add(position,(Vector2){n * 14 + 16 - y, 12 - x}), color);
				}else{
					if(FONT8x8[*content - 31][x] & (1<<y))
						screen_SetPixel(vector2_Add(position,(Vector2){n * 10 + 8 - y, 8 - x}), color);
				}
				mask <<= 1;
80002c40:	a1 74       	lsl	r4,0x1
80002c42:	5c 84       	casts.h	r4
			break;
		
		for(uint8_t x = 0; x < fontSize.x; x++){
			uint16_t mask = 1;
			for(uint8_t y = 0; y < fontSize.y; y++){
				if(textSize == Medium){
80002c44:	40 08       	lddsp	r8,sp[0x0]
80002c46:	58 18       	cp.w	r8,1
80002c48:	c2 61       	brne	80002c94 <gfx_Label+0xe0>
					if(FONT16x12[*content - 31][x] & mask)
80002c4a:	01 88       	ld.ub	r8,r0[0x0]
80002c4c:	f0 08 00 28 	add	r8,r8,r8<<0x2
80002c50:	e6 08 00 28 	add	r8,r3,r8<<0x2
80002c54:	f0 c8 02 6c 	sub	r8,r8,620
80002c58:	4b 3a       	lddpc	r10,80002d24 <gfx_Label+0x170>
80002c5a:	f4 08 04 18 	ld.sh	r8,r10[r8<<0x1]
80002c5e:	e9 e8 00 08 	and	r8,r4,r8
80002c62:	30 09       	mov	r9,0
80002c64:	f2 08 19 00 	cp.h	r8,r9
80002c68:	c3 60       	breq	80002cd4 <gfx_Label+0x120>
						screen_SetPixel(vector2_Add(position,(Vector2){n * 14 + 16 - y, 12 - x}), color);
80002c6a:	fb 55 00 20 	st.h	sp[32],r5
80002c6e:	1b f8       	ld.ub	r8,sp[0x7]
80002c70:	fb 68 00 22 	st.b	sp[34],r8
80002c74:	40 88       	lddsp	r8,sp[0x20]
80002c76:	1a d8       	st.w	--sp,r8
80002c78:	62 08       	ld.w	r8,r1[0x0]
80002c7a:	1a d8       	st.w	--sp,r8
80002c7c:	fa cc ff d4 	sub	r12,sp,-44
80002c80:	f0 1f 00 2a 	mcall	80002d28 <gfx_Label+0x174>
80002c84:	62 18       	ld.w	r8,r1[0x4]
80002c86:	1a d8       	st.w	--sp,r8
80002c88:	40 c8       	lddsp	r8,sp[0x30]
80002c8a:	1a d8       	st.w	--sp,r8
80002c8c:	f0 1f 00 28 	mcall	80002d2c <gfx_Label+0x178>
80002c90:	2f cd       	sub	sp,-16
80002c92:	c2 18       	rjmp	80002cd4 <gfx_Label+0x120>
				}else{
					if(FONT8x8[*content - 31][x] & (1<<y))
80002c94:	01 88       	ld.ub	r8,r0[0x0]
80002c96:	21 f8       	sub	r8,31
80002c98:	e6 08 00 38 	add	r8,r3,r8<<0x3
80002c9c:	4a 5a       	lddpc	r10,80002d30 <gfx_Label+0x17c>
80002c9e:	f4 08 07 08 	ld.ub	r8,r10[r8]
80002ca2:	f0 07 08 48 	asr	r8,r8,r7
80002ca6:	f1 d8 c0 01 	bfextu	r8,r8,0x0,0x1
80002caa:	c1 50       	breq	80002cd4 <gfx_Label+0x120>
						screen_SetPixel(vector2_Add(position,(Vector2){n * 10 + 8 - y, 8 - x}), color);
80002cac:	fb 56 00 28 	st.h	sp[40],r6
80002cb0:	1b e9       	ld.ub	r9,sp[0x6]
80002cb2:	fb 69 00 2a 	st.b	sp[42],r9
80002cb6:	40 a8       	lddsp	r8,sp[0x28]
80002cb8:	1a d8       	st.w	--sp,r8
80002cba:	62 08       	ld.w	r8,r1[0x0]
80002cbc:	1a d8       	st.w	--sp,r8
80002cbe:	fa cc ff cc 	sub	r12,sp,-52
80002cc2:	f0 1f 00 1a 	mcall	80002d28 <gfx_Label+0x174>
80002cc6:	62 18       	ld.w	r8,r1[0x4]
80002cc8:	1a d8       	st.w	--sp,r8
80002cca:	40 e8       	lddsp	r8,sp[0x38]
80002ccc:	1a d8       	st.w	--sp,r8
80002cce:	f0 1f 00 18 	mcall	80002d2c <gfx_Label+0x178>
80002cd2:	2f cd       	sub	sp,-16
80002cd4:	2f f7       	sub	r7,-1
80002cd6:	20 15       	sub	r5,1
80002cd8:	5c 85       	casts.h	r5
80002cda:	20 16       	sub	r6,1
80002cdc:	5c 86       	casts.h	r6
		if(*content == '\0')
			break;
		
		for(uint8_t x = 0; x < fontSize.x; x++){
			uint16_t mask = 1;
			for(uint8_t y = 0; y < fontSize.y; y++){
80002cde:	ee 02 18 00 	cp.b	r2,r7
80002ce2:	fe 9b ff af 	brhi	80002c40 <gfx_Label+0x8c>
		
	for(uint8_t n = 0; n < contentSize; n++, content++){
		if(*content == '\0')
			break;
		
		for(uint8_t x = 0; x < fontSize.x; x++){
80002ce6:	2f f3       	sub	r3,-1
80002ce8:	5c 53       	castu.b	r3
80002cea:	40 2a       	lddsp	r10,sp[0x8]
80002cec:	f4 03 19 00 	cp.h	r3,r10
80002cf0:	c0 f2       	brcc	80002d0e <gfx_Label+0x15a>
			uint16_t mask = 1;
			for(uint8_t y = 0; y < fontSize.y; y++){
80002cf2:	58 02       	cp.w	r2,0
80002cf4:	cf 90       	breq	80002ce6 <gfx_Label+0x132>
80002cf6:	40 46       	lddsp	r6,sp[0x10]
80002cf8:	40 35       	lddsp	r5,sp[0xc]
80002cfa:	5c 85       	casts.h	r5
80002cfc:	30 07       	mov	r7,0
80002cfe:	30 14       	mov	r4,1
				if(textSize == Medium){
					if(FONT16x12[*content - 31][x] & mask)
						screen_SetPixel(vector2_Add(position,(Vector2){n * 14 + 16 - y, 12 - x}), color);
				}else{
					if(FONT8x8[*content - 31][x] & (1<<y))
						screen_SetPixel(vector2_Add(position,(Vector2){n * 10 + 8 - y, 8 - x}), color);
80002d00:	e6 09 11 08 	rsub	r9,r3,8
80002d04:	ba e9       	st.b	sp[0x6],r9
		for(uint8_t x = 0; x < fontSize.x; x++){
			uint16_t mask = 1;
			for(uint8_t y = 0; y < fontSize.y; y++){
				if(textSize == Medium){
					if(FONT16x12[*content - 31][x] & mask)
						screen_SetPixel(vector2_Add(position,(Vector2){n * 14 + 16 - y, 12 - x}), color);
80002d06:	e6 08 11 0c 	rsub	r8,r3,12
80002d0a:	ba f8       	st.b	sp[0x7],r8
80002d0c:	c9 cb       	rjmp	80002c44 <gfx_Label+0x90>
	if(textSize == Medium){
		fontSize.x = 20;
		fontSize.y = 16;
	}
		
	for(uint8_t n = 0; n < contentSize; n++, content++){
80002d0e:	40 68       	lddsp	r8,sp[0x18]
80002d10:	2f f8       	sub	r8,-1
80002d12:	5c 58       	castu.b	r8
80002d14:	50 68       	stdsp	sp[0x18],r8
80002d16:	40 7a       	lddsp	r10,sp[0x1c]
80002d18:	f0 0a 18 00 	cp.b	r10,r8
80002d1c:	fe 9b ff 7c 	brhi	80002c14 <gfx_Label+0x60>
				}
				mask <<= 1;
			}
		}
	}
}
80002d20:	2f 4d       	sub	sp,-48
80002d22:	d8 32       	popm	r0-r7,pc
80002d24:	80 00       	ld.sh	r0,r0[0x0]
80002d26:	43 a8       	lddsp	r8,sp[0xe8]
80002d28:	80 00       	ld.sh	r0,r0[0x0]
80002d2a:	37 9c       	mov	r12,121
80002d2c:	80 00       	ld.sh	r0,r0[0x0]
80002d2e:	33 84       	mov	r4,56
80002d30:	80 00       	ld.sh	r0,r0[0x0]
80002d32:	40 a0       	lddsp	r0,sp[0x28]

80002d34 <gfx_AddLineToTerminal>:

void gfx_BeginNewTerminal(Vector2 topLeft){
	newLinePosition = topLeft;
}

void gfx_AddLineToTerminal(char *content, uint8_t contentSize, Color color, bool isDelayed){
80002d34:	d4 21       	pushm	r4-r7,lr
80002d36:	18 95       	mov	r5,r12
80002d38:	16 96       	mov	r6,r11
80002d3a:	14 94       	mov	r4,r10
	gfx_Label(newLinePosition, content, contentSize, Small, color);
80002d3c:	40 58       	lddsp	r8,sp[0x14]
80002d3e:	1a d8       	st.w	--sp,r8
80002d40:	49 67       	lddpc	r7,80002d98 <gfx_AddLineToTerminal+0x64>
80002d42:	20 1d       	sub	sp,4
80002d44:	30 4a       	mov	r10,4
80002d46:	0e 9b       	mov	r11,r7
80002d48:	1a 9c       	mov	r12,sp
80002d4a:	f0 1f 00 15 	mcall	80002d9c <gfx_AddLineToTerminal+0x68>
80002d4e:	30 0a       	mov	r10,0
80002d50:	0c 9b       	mov	r11,r6
80002d52:	0a 9c       	mov	r12,r5
80002d54:	f0 1f 00 13 	mcall	80002da0 <gfx_AddLineToTerminal+0x6c>
	newLinePosition.y -= 20;
80002d58:	0f a8       	ld.ub	r8,r7[0x2]
80002d5a:	21 48       	sub	r8,20
80002d5c:	ae a8       	st.b	r7[0x2],r8
	if(isDelayed){
80002d5e:	2f ed       	sub	sp,-8
80002d60:	58 04       	cp.w	r4,0
80002d62:	c1 90       	breq	80002d94 <gfx_AddLineToTerminal+0x60>
 * \param  delay:   (input) delay in CPU cycles before timeout.
 * \param  cpu_time: (output) internal information used by the timer API.
 */
__always_inline static void cpu_set_timeout(unsigned long delay, t_cpu_time *cpu_time)
{
  cpu_time->delay_start_cycle = Get_system_register(AVR32_COUNT);
80002d64:	e1 b8 00 42 	mfsr	r8,0x108
  cpu_time->delay_end_cycle   = cpu_time->delay_start_cycle + delay;
80002d68:	e0 6a a8 00 	mov	r10,43008
80002d6c:	ea 1a 00 61 	orh	r10,0x61
80002d70:	f0 0a 00 0a 	add	r10,r8,r10
 *
 * \return true if timeout occurred, otherwise false.
 */
__always_inline static unsigned long cpu_is_timeout(t_cpu_time *cpu_time)
{
  unsigned long current_cycle_count = Get_system_register(AVR32_COUNT);
80002d74:	e1 b9 00 42 	mfsr	r9,0x108
  // Test if the timeout as already occurred.
  else if (cpu_time->timer_state == CPU_TIMER_STATE_REACHED)
    return true;

  // If the ending cycle count of this timeout is wrapped, ...
  else if (cpu_time->delay_start_cycle > cpu_time->delay_end_cycle)
80002d78:	14 38       	cp.w	r8,r10
80002d7a:	e0 88 00 08 	brls	80002d8a <gfx_AddLineToTerminal+0x56>
  {
    if (current_cycle_count < cpu_time->delay_start_cycle && current_cycle_count > cpu_time->delay_end_cycle)
80002d7e:	12 38       	cp.w	r8,r9
80002d80:	fe 98 ff fa 	brls	80002d74 <gfx_AddLineToTerminal+0x40>
80002d84:	12 3a       	cp.w	r10,r9
80002d86:	c0 73       	brcs	80002d94 <gfx_AddLineToTerminal+0x60>
80002d88:	cf 6b       	rjmp	80002d74 <gfx_AddLineToTerminal+0x40>
    }
    return false;
  }
  else
  {
    if (current_cycle_count < cpu_time->delay_start_cycle || current_cycle_count > cpu_time->delay_end_cycle)
80002d8a:	12 38       	cp.w	r8,r9
80002d8c:	e0 8b 00 04 	brhi	80002d94 <gfx_AddLineToTerminal+0x60>
80002d90:	12 3a       	cp.w	r10,r9
80002d92:	cf 12       	brcc	80002d74 <gfx_AddLineToTerminal+0x40>
80002d94:	d8 22       	popm	r4-r7,pc
80002d96:	00 00       	add	r0,r0
80002d98:	00 00       	add	r0,r0
80002d9a:	00 fc       	st.b	--r0,r12
80002d9c:	80 00       	ld.sh	r0,r0[0x0]
80002d9e:	3c 54       	mov	r4,-59
80002da0:	80 00       	ld.sh	r0,r0[0x0]
80002da2:	2b b4       	sub	r4,-69

80002da4 <gfx_DrawLine>:
#include "fonts.h"
#include <string.h>

static Vector2 newLinePosition = {0,0};

void gfx_DrawLine(Vector2 start, Vector2 end, Color color, uint8_t width){
80002da4:	d4 31       	pushm	r0-r7,lr
80002da6:	20 bd       	sub	sp,44
80002da8:	fa c4 ff b0 	sub	r4,sp,-80
80002dac:	50 0c       	stdsp	sp[0x0],r12
80002dae:	88 05       	ld.sh	r5,r4[0x0]
80002db0:	09 a8       	ld.ub	r8,r4[0x2]
80002db2:	09 e9       	ld.ub	r9,r4[0x6]
	// Compute deltas, ie. "width" and "height" of line, then
	// compute x and y direction, and make deltas positive for later use.
	S16 xinc = 1; // Start off assuming direction is positive, ie. right.
	S16 dx = end.x - start.x;
80002db4:	88 20       	ld.sh	r0,r4[0x4]
80002db6:	0a 10       	sub	r0,r5
80002db8:	5c 80       	casts.h	r0
	if (dx < 0){xinc = -1; dx = -dx; }
80002dba:	30 0a       	mov	r10,0
80002dbc:	f4 00 19 00 	cp.h	r0,r10
80002dc0:	c0 45       	brlt	80002dc8 <gfx_DrawLine+0x24>
80002dc2:	30 1a       	mov	r10,1
80002dc4:	50 5a       	stdsp	sp[0x14],r10
80002dc6:	c0 58       	rjmp	80002dd0 <gfx_DrawLine+0x2c>
80002dc8:	5c 30       	neg	r0
80002dca:	5c 80       	casts.h	r0
80002dcc:	3f fa       	mov	r10,-1
80002dce:	50 5a       	stdsp	sp[0x14],r10

	S16 yinc = 1; // Start off assuming direction is positive, ie. down.
	S16 dy = end.y - start.y;
80002dd0:	10 96       	mov	r6,r8
80002dd2:	f2 08 01 08 	sub	r8,r9,r8
80002dd6:	50 38       	stdsp	sp[0xc],r8
	if (dy < 0){yinc = -1; dy = -dy; }
80002dd8:	30 08       	mov	r8,0
80002dda:	40 39       	lddsp	r9,sp[0xc]
80002ddc:	f0 09 19 00 	cp.h	r9,r8
80002de0:	c0 45       	brlt	80002de8 <gfx_DrawLine+0x44>
80002de2:	30 18       	mov	r8,1
80002de4:	50 48       	stdsp	sp[0x10],r8
80002de6:	c0 78       	rjmp	80002df4 <gfx_DrawLine+0x50>
80002de8:	40 38       	lddsp	r8,sp[0xc]
80002dea:	5c 38       	neg	r8
80002dec:	5c 88       	casts.h	r8
80002dee:	50 38       	stdsp	sp[0xc],r8
80002df0:	3f fa       	mov	r10,-1
80002df2:	50 4a       	stdsp	sp[0x10],r10
	uint16_t x = start.x;
	uint16_t y = start.y;
	uint16_t i, j, k;

	// A "flat" line (dx>dy) is handled differently from a "steep" line (dx<dy).
	if (dx > dy) {
80002df4:	40 39       	lddsp	r9,sp[0xc]
80002df6:	f2 00 19 00 	cp.h	r0,r9
80002dfa:	e0 8a 00 53 	brle	80002ea0 <gfx_DrawLine+0xfc>
		// Walk along X, draw pixel, and step Y when required.
		S16 e = dx >> 1;
		for ( i = 0; i <= dx; ++i) {
80002dfe:	50 10       	stdsp	sp[0x4],r0
80002e00:	58 00       	cp.w	r0,0
80002e02:	e0 85 00 9b 	brlt	80002f38 <gfx_DrawLine+0x194>
	uint16_t i, j, k;

	// A "flat" line (dx>dy) is handled differently from a "steep" line (dx<dy).
	if (dx > dy) {
		// Walk along X, draw pixel, and step Y when required.
		S16 e = dx >> 1;
80002e06:	e0 02 14 01 	asr	r2,r0,0x1
80002e0a:	5c 85       	casts.h	r5
80002e0c:	30 01       	mov	r1,0
		for ( i = 0; i <= dx; ++i) {
			for (j=width ; j>0 ; j--)
80002e0e:	40 08       	lddsp	r8,sp[0x0]
80002e10:	50 28       	stdsp	sp[0x8],r8
				k = (U16) (j / 2);
				if ((j & 0x0001)) { screen_SetPixel((Vector2){x,y+k},color); }
				else { screen_SetPixel((Vector2){x,y-k},color); }
			}
			// Sub-pixel "error" overflowed, so we step Y and reset the "error".
			if (e <= 0){
80002e12:	0c 93       	mov	r3,r6
80002e14:	50 60       	stdsp	sp[0x18],r0
80002e16:	40 50       	lddsp	r0,sp[0x14]
	// A "flat" line (dx>dy) is handled differently from a "steep" line (dx<dy).
	if (dx > dy) {
		// Walk along X, draw pixel, and step Y when required.
		S16 e = dx >> 1;
		for ( i = 0; i <= dx; ++i) {
			for (j=width ; j>0 ; j--)
80002e18:	40 27       	lddsp	r7,sp[0x8]
80002e1a:	40 0a       	lddsp	r10,sp[0x0]
80002e1c:	58 0a       	cp.w	r10,0
80002e1e:	c2 70       	breq	80002e6c <gfx_DrawLine+0xc8>
			{
				k = (U16) (j / 2);
				if ((j & 0x0001)) { screen_SetPixel((Vector2){x,y+k},color); }
80002e20:	06 96       	mov	r6,r3
		// Walk along X, draw pixel, and step Y when required.
		S16 e = dx >> 1;
		for ( i = 0; i <= dx; ++i) {
			for (j=width ; j>0 ; j--)
			{
				k = (U16) (j / 2);
80002e22:	0e 98       	mov	r8,r7
80002e24:	5c 78       	castu.h	r8
80002e26:	f0 09 16 01 	lsr	r9,r8,0x1
				if ((j & 0x0001)) { screen_SetPixel((Vector2){x,y+k},color); }
80002e2a:	f1 d8 c0 01 	bfextu	r8,r8,0x0,0x1
80002e2e:	c0 f0       	breq	80002e4c <gfx_DrawLine+0xa8>
80002e30:	fb 55 00 1c 	st.h	sp[28],r5
80002e34:	ec 09 00 09 	add	r9,r6,r9
80002e38:	fb 69 00 1e 	st.b	sp[30],r9
80002e3c:	68 28       	ld.w	r8,r4[0x8]
80002e3e:	1a d8       	st.w	--sp,r8
80002e40:	40 88       	lddsp	r8,sp[0x20]
80002e42:	1a d8       	st.w	--sp,r8
80002e44:	f0 1f 00 3e 	mcall	80002f3c <gfx_DrawLine+0x198>
80002e48:	2f ed       	sub	sp,-8
80002e4a:	c0 e8       	rjmp	80002e66 <gfx_DrawLine+0xc2>
				else { screen_SetPixel((Vector2){x,y-k},color); }
80002e4c:	fb 55 00 20 	st.h	sp[32],r5
80002e50:	ec 09 01 09 	sub	r9,r6,r9
80002e54:	fb 69 00 22 	st.b	sp[34],r9
80002e58:	68 28       	ld.w	r8,r4[0x8]
80002e5a:	1a d8       	st.w	--sp,r8
80002e5c:	40 98       	lddsp	r8,sp[0x24]
80002e5e:	1a d8       	st.w	--sp,r8
80002e60:	f0 1f 00 37 	mcall	80002f3c <gfx_DrawLine+0x198>
80002e64:	2f ed       	sub	sp,-8
	// A "flat" line (dx>dy) is handled differently from a "steep" line (dx<dy).
	if (dx > dy) {
		// Walk along X, draw pixel, and step Y when required.
		S16 e = dx >> 1;
		for ( i = 0; i <= dx; ++i) {
			for (j=width ; j>0 ; j--)
80002e66:	20 17       	sub	r7,1
80002e68:	5c 87       	casts.h	r7
80002e6a:	cd c1       	brne	80002e22 <gfx_DrawLine+0x7e>
				k = (U16) (j / 2);
				if ((j & 0x0001)) { screen_SetPixel((Vector2){x,y+k},color); }
				else { screen_SetPixel((Vector2){x,y-k},color); }
			}
			// Sub-pixel "error" overflowed, so we step Y and reset the "error".
			if (e <= 0){
80002e6c:	30 09       	mov	r9,0
80002e6e:	f2 02 19 00 	cp.h	r2,r9
80002e72:	e0 89 00 08 	brgt	80002e82 <gfx_DrawLine+0xde>
				e += dx;
80002e76:	40 68       	lddsp	r8,sp[0x18]
80002e78:	10 02       	add	r2,r8
80002e7a:	5c 82       	casts.h	r2
				y += yinc;
80002e7c:	40 4a       	lddsp	r10,sp[0x10]
80002e7e:	14 03       	add	r3,r10
80002e80:	5c 83       	casts.h	r3

	// A "flat" line (dx>dy) is handled differently from a "steep" line (dx<dy).
	if (dx > dy) {
		// Walk along X, draw pixel, and step Y when required.
		S16 e = dx >> 1;
		for ( i = 0; i <= dx; ++i) {
80002e82:	2f f1       	sub	r1,-1
80002e84:	5c 81       	casts.h	r1
80002e86:	f1 d1 c0 10 	bfextu	r8,r1,0x0,0x10
80002e8a:	40 19       	lddsp	r9,sp[0x4]
80002e8c:	12 38       	cp.w	r8,r9
80002e8e:	e0 89 00 55 	brgt	80002f38 <gfx_DrawLine+0x194>
			if (e <= 0){
				e += dx;
				y += yinc;
			}
			// Walk one step along X.
			e -= dy;
80002e92:	40 38       	lddsp	r8,sp[0xc]
80002e94:	10 12       	sub	r2,r8
80002e96:	5c 82       	casts.h	r2
80002e98:	e0 05 00 05 	add	r5,r0,r5
80002e9c:	5c 85       	casts.h	r5
80002e9e:	cb db       	rjmp	80002e18 <gfx_DrawLine+0x74>
			x += xinc;
		}
		} else {
		// Walk along Y, draw pixel, and step X when required.
		S16 e = dy >> 1;
		for (i = 0; i <= dy; ++i) {
80002ea0:	40 3a       	lddsp	r10,sp[0xc]
80002ea2:	50 1a       	stdsp	sp[0x4],r10
80002ea4:	58 0a       	cp.w	r10,0
80002ea6:	c4 95       	brlt	80002f38 <gfx_DrawLine+0x194>
			e -= dy;
			x += xinc;
		}
		} else {
		// Walk along Y, draw pixel, and step X when required.
		S16 e = dy >> 1;
80002ea8:	14 93       	mov	r3,r10
80002eaa:	a1 53       	asr	r3,0x1
80002eac:	5c 85       	casts.h	r5
80002eae:	30 02       	mov	r2,0
		for (i = 0; i <= dy; ++i) {
			for (j=width ; j>0 ; j--)
80002eb0:	40 09       	lddsp	r9,sp[0x0]
80002eb2:	50 29       	stdsp	sp[0x8],r9
				k = (U16) (j / 2);
				if ((j & 0x0001)){ screen_SetPixel((Vector2){x+k,y},color); }
				else { screen_SetPixel((Vector2){x-k,y},color); }
			}
			// Sub-pixel "error" overflowed, so we step X and reset the "error".
			if (e <= 0){
80002eb4:	30 01       	mov	r1,0
		}
		} else {
		// Walk along Y, draw pixel, and step X when required.
		S16 e = dy >> 1;
		for (i = 0; i <= dy; ++i) {
			for (j=width ; j>0 ; j--)
80002eb6:	40 27       	lddsp	r7,sp[0x8]
80002eb8:	40 08       	lddsp	r8,sp[0x0]
80002eba:	58 08       	cp.w	r8,0
80002ebc:	c2 50       	breq	80002f06 <gfx_DrawLine+0x162>
			{
				k = (U16) (j / 2);
80002ebe:	0e 98       	mov	r8,r7
80002ec0:	5c 78       	castu.h	r8
80002ec2:	f0 09 16 01 	lsr	r9,r8,0x1
				if ((j & 0x0001)){ screen_SetPixel((Vector2){x+k,y},color); }
80002ec6:	f1 d8 c0 01 	bfextu	r8,r8,0x0,0x1
80002eca:	c0 e0       	breq	80002ee6 <gfx_DrawLine+0x142>
80002ecc:	0a 09       	add	r9,r5
80002ece:	fb 59 00 24 	st.h	sp[36],r9
80002ed2:	fb 66 00 26 	st.b	sp[38],r6
80002ed6:	68 28       	ld.w	r8,r4[0x8]
80002ed8:	1a d8       	st.w	--sp,r8
80002eda:	40 a8       	lddsp	r8,sp[0x28]
80002edc:	1a d8       	st.w	--sp,r8
80002ede:	f0 1f 00 18 	mcall	80002f3c <gfx_DrawLine+0x198>
80002ee2:	2f ed       	sub	sp,-8
80002ee4:	c0 e8       	rjmp	80002f00 <gfx_DrawLine+0x15c>
				else { screen_SetPixel((Vector2){x-k,y},color); }
80002ee6:	ea 09 01 09 	sub	r9,r5,r9
80002eea:	fb 59 00 28 	st.h	sp[40],r9
80002eee:	fb 66 00 2a 	st.b	sp[42],r6
80002ef2:	68 28       	ld.w	r8,r4[0x8]
80002ef4:	1a d8       	st.w	--sp,r8
80002ef6:	40 b8       	lddsp	r8,sp[0x2c]
80002ef8:	1a d8       	st.w	--sp,r8
80002efa:	f0 1f 00 11 	mcall	80002f3c <gfx_DrawLine+0x198>
80002efe:	2f ed       	sub	sp,-8
		}
		} else {
		// Walk along Y, draw pixel, and step X when required.
		S16 e = dy >> 1;
		for (i = 0; i <= dy; ++i) {
			for (j=width ; j>0 ; j--)
80002f00:	20 17       	sub	r7,1
80002f02:	5c 87       	casts.h	r7
80002f04:	cd d1       	brne	80002ebe <gfx_DrawLine+0x11a>
				k = (U16) (j / 2);
				if ((j & 0x0001)){ screen_SetPixel((Vector2){x+k,y},color); }
				else { screen_SetPixel((Vector2){x-k,y},color); }
			}
			// Sub-pixel "error" overflowed, so we step X and reset the "error".
			if (e <= 0){
80002f06:	e2 03 19 00 	cp.h	r3,r1
80002f0a:	e0 89 00 08 	brgt	80002f1a <gfx_DrawLine+0x176>
				e += dy;
80002f0e:	40 3a       	lddsp	r10,sp[0xc]
80002f10:	14 03       	add	r3,r10
80002f12:	5c 83       	casts.h	r3
				x += xinc;
80002f14:	40 59       	lddsp	r9,sp[0x14]
80002f16:	12 05       	add	r5,r9
80002f18:	5c 85       	casts.h	r5
			x += xinc;
		}
		} else {
		// Walk along Y, draw pixel, and step X when required.
		S16 e = dy >> 1;
		for (i = 0; i <= dy; ++i) {
80002f1a:	2f f2       	sub	r2,-1
80002f1c:	5c 82       	casts.h	r2
80002f1e:	f1 d2 c0 10 	bfextu	r8,r2,0x0,0x10
80002f22:	40 1a       	lddsp	r10,sp[0x4]
80002f24:	14 38       	cp.w	r8,r10
80002f26:	e0 89 00 09 	brgt	80002f38 <gfx_DrawLine+0x194>
			if (e <= 0){
				e += dy;
				x += xinc;
			}
			// Walk one step along Y.
			e -= dx;
80002f2a:	00 13       	sub	r3,r0
80002f2c:	5c 83       	casts.h	r3
80002f2e:	40 49       	lddsp	r9,sp[0x10]
80002f30:	f2 06 00 06 	add	r6,r9,r6
80002f34:	5c 86       	casts.h	r6
80002f36:	cc 0b       	rjmp	80002eb6 <gfx_DrawLine+0x112>
			y += yinc;
		}
	}
}
80002f38:	2f 5d       	sub	sp,-44
80002f3a:	d8 32       	popm	r0-r7,pc
80002f3c:	80 00       	ld.sh	r0,r0[0x0]
80002f3e:	33 84       	mov	r4,56

80002f40 <gui_loadingScreen>:
	gpio_enable_pin_interrupt(PIN_SWITCH3, GPIO_RISING_EDGE);
	
	INTC_register_interrupt(&switchISR, AVR32_GPIO_IRQ7, AVR32_INTC_INT0);
}

void gui_loadingScreen(void){
80002f40:	d4 21       	pushm	r4-r7,lr
80002f42:	21 8d       	sub	sp,96
	screen_SetPixels(Rect(0,0,320,240), textColor);
80002f44:	e0 68 00 f0 	mov	r8,240
80002f48:	e0 69 01 40 	mov	r9,320
80002f4c:	30 0a       	mov	r10,0
80002f4e:	14 9b       	mov	r11,r10
80002f50:	fa cc ff f0 	sub	r12,sp,-16
80002f54:	f0 1f 00 5f 	mcall	800030d0 <gui_loadingScreen+0x190>
80002f58:	4d f4       	lddpc	r4,800030d4 <gui_loadingScreen+0x194>
80002f5a:	20 1d       	sub	sp,4
80002f5c:	30 47       	mov	r7,4
80002f5e:	0e 9a       	mov	r10,r7
80002f60:	08 9b       	mov	r11,r4
80002f62:	1a 9c       	mov	r12,sp
80002f64:	f0 1f 00 5d 	mcall	800030d8 <gui_loadingScreen+0x198>
80002f68:	fa e8 00 14 	ld.d	r8,sp[20]
80002f6c:	bb 29       	st.d	--sp,r8
80002f6e:	f0 1f 00 5c 	mcall	800030dc <gui_loadingScreen+0x19c>
	screen_SetPixels((Rectangle){.bottomLeft={10,10},.topRight={310,230}}, (Color){BLACK});
80002f72:	30 06       	mov	r6,0
80002f74:	50 96       	stdsp	sp[0x24],r6
80002f76:	30 8a       	mov	r10,8
80002f78:	4d ab       	lddpc	r11,800030e0 <gui_loadingScreen+0x1a0>
80002f7a:	fa cc ff d8 	sub	r12,sp,-40
80002f7e:	f0 1f 00 57 	mcall	800030d8 <gui_loadingScreen+0x198>
80002f82:	40 98       	lddsp	r8,sp[0x24]
80002f84:	1a d8       	st.w	--sp,r8
80002f86:	fa e8 00 2c 	ld.d	r8,sp[44]
80002f8a:	bb 29       	st.d	--sp,r8
80002f8c:	f0 1f 00 54 	mcall	800030dc <gui_loadingScreen+0x19c>

	gfx_DrawCircle((Vector2){150,129},58,1,(Color){WHITE});
80002f90:	50 f6       	stdsp	sp[0x3c],r6
80002f92:	3f f5       	mov	r5,-1
80002f94:	fb 55 00 3c 	st.h	sp[60],r5
80002f98:	0e 9a       	mov	r10,r7
80002f9a:	4d 3b       	lddpc	r11,800030e4 <gui_loadingScreen+0x1a4>
80002f9c:	fa cc ff c0 	sub	r12,sp,-64
80002fa0:	f0 1f 00 4e 	mcall	800030d8 <gui_loadingScreen+0x198>
80002fa4:	40 f8       	lddsp	r8,sp[0x3c]
80002fa6:	1a d8       	st.w	--sp,r8
80002fa8:	41 18       	lddsp	r8,sp[0x44]
80002faa:	1a d8       	st.w	--sp,r8
80002fac:	30 1b       	mov	r11,1
80002fae:	33 ac       	mov	r12,58
80002fb0:	f0 1f 00 4e 	mcall	800030e8 <gui_loadingScreen+0x1a8>
	gfx_DrawCircle((Vector2){200,100},50,50,textColor);
80002fb4:	2f 8d       	sub	sp,-32
80002fb6:	0e 9a       	mov	r10,r7
80002fb8:	4c db       	lddpc	r11,800030ec <gui_loadingScreen+0x1ac>
80002fba:	fa cc ff d4 	sub	r12,sp,-44
80002fbe:	f0 1f 00 47 	mcall	800030d8 <gui_loadingScreen+0x198>
80002fc2:	20 1d       	sub	sp,4
80002fc4:	0e 9a       	mov	r10,r7
80002fc6:	08 9b       	mov	r11,r4
80002fc8:	1a 9c       	mov	r12,sp
80002fca:	f0 1f 00 44 	mcall	800030d8 <gui_loadingScreen+0x198>
80002fce:	40 c8       	lddsp	r8,sp[0x30]
80002fd0:	1a d8       	st.w	--sp,r8
80002fd2:	33 2b       	mov	r11,50
80002fd4:	16 9c       	mov	r12,r11
80002fd6:	f0 1f 00 45 	mcall	800030e8 <gui_loadingScreen+0x1a8>
	gfx_DrawLine((Vector2){100,100}, (Vector2){200,100}, (Color){WHITE}, 3);
80002fda:	50 e6       	stdsp	sp[0x38],r6
80002fdc:	fb 55 00 38 	st.h	sp[56],r5
80002fe0:	0e 9a       	mov	r10,r7
80002fe2:	4c 4b       	lddpc	r11,800030f0 <gui_loadingScreen+0x1b0>
80002fe4:	fa cc ff c4 	sub	r12,sp,-60
80002fe8:	f0 1f 00 3c 	mcall	800030d8 <gui_loadingScreen+0x198>
80002fec:	0e 9a       	mov	r10,r7
80002fee:	4c 2b       	lddpc	r11,800030f4 <gui_loadingScreen+0x1b4>
80002ff0:	fa cc ff c0 	sub	r12,sp,-64
80002ff4:	f0 1f 00 39 	mcall	800030d8 <gui_loadingScreen+0x198>
80002ff8:	40 e8       	lddsp	r8,sp[0x38]
80002ffa:	1a d8       	st.w	--sp,r8
80002ffc:	41 08       	lddsp	r8,sp[0x40]
80002ffe:	1a d8       	st.w	--sp,r8
80003000:	41 28       	lddsp	r8,sp[0x48]
80003002:	1a d8       	st.w	--sp,r8
80003004:	30 3c       	mov	r12,3
80003006:	f0 1f 00 3d 	mcall	800030f8 <gui_loadingScreen+0x1b8>
	gfx_DrawLine((Vector2){150, 186}, (Vector2){200,100}, (Color){WHITE}, 1);
8000300a:	51 46       	stdsp	sp[0x50],r6
8000300c:	fb 55 00 50 	st.h	sp[80],r5
80003010:	0e 9a       	mov	r10,r7
80003012:	4b bb       	lddpc	r11,800030fc <gui_loadingScreen+0x1bc>
80003014:	fa cc ff ac 	sub	r12,sp,-84
80003018:	f0 1f 00 30 	mcall	800030d8 <gui_loadingScreen+0x198>
8000301c:	0e 9a       	mov	r10,r7
8000301e:	4b 9b       	lddpc	r11,80003100 <gui_loadingScreen+0x1c0>
80003020:	fa cc ff a8 	sub	r12,sp,-88
80003024:	f0 1f 00 2d 	mcall	800030d8 <gui_loadingScreen+0x198>
80003028:	41 48       	lddsp	r8,sp[0x50]
8000302a:	1a d8       	st.w	--sp,r8
8000302c:	41 68       	lddsp	r8,sp[0x58]
8000302e:	1a d8       	st.w	--sp,r8
80003030:	41 88       	lddsp	r8,sp[0x60]
80003032:	1a d8       	st.w	--sp,r8
80003034:	30 1c       	mov	r12,1
80003036:	f0 1f 00 31 	mcall	800030f8 <gui_loadingScreen+0x1b8>
	gfx_DrawCircle((Vector2){100,100},40,5,textColor);
8000303a:	2f 8d       	sub	sp,-32
8000303c:	0e 9a       	mov	r10,r7
8000303e:	4b 2b       	lddpc	r11,80003104 <gui_loadingScreen+0x1c4>
80003040:	fa cc ff b8 	sub	r12,sp,-72
80003044:	f0 1f 00 25 	mcall	800030d8 <gui_loadingScreen+0x198>
80003048:	20 1d       	sub	sp,4
8000304a:	0e 9a       	mov	r10,r7
8000304c:	08 9b       	mov	r11,r4
8000304e:	1a 9c       	mov	r12,sp
80003050:	f0 1f 00 22 	mcall	800030d8 <gui_loadingScreen+0x198>
80003054:	41 38       	lddsp	r8,sp[0x4c]
80003056:	1a d8       	st.w	--sp,r8
80003058:	30 5b       	mov	r11,5
8000305a:	32 8c       	mov	r12,40
8000305c:	f0 1f 00 23 	mcall	800030e8 <gui_loadingScreen+0x1a8>
	gfx_DrawLine((Vector2){99,99}, (Vector2){150, 186}, (Color){WHITE}, 15);
80003060:	51 56       	stdsp	sp[0x54],r6
80003062:	fb 55 00 54 	st.h	sp[84],r5
80003066:	0e 9a       	mov	r10,r7
80003068:	4a 8b       	lddpc	r11,80003108 <gui_loadingScreen+0x1c8>
8000306a:	fa cc ff a8 	sub	r12,sp,-88
8000306e:	f0 1f 00 1b 	mcall	800030d8 <gui_loadingScreen+0x198>
80003072:	0e 9a       	mov	r10,r7
80003074:	4a 6b       	lddpc	r11,8000310c <gui_loadingScreen+0x1cc>
80003076:	fa cc ff a4 	sub	r12,sp,-92
8000307a:	f0 1f 00 18 	mcall	800030d8 <gui_loadingScreen+0x198>
8000307e:	41 58       	lddsp	r8,sp[0x54]
80003080:	1a d8       	st.w	--sp,r8
80003082:	41 78       	lddsp	r8,sp[0x5c]
80003084:	1a d8       	st.w	--sp,r8
80003086:	41 98       	lddsp	r8,sp[0x64]
80003088:	1a d8       	st.w	--sp,r8
8000308a:	30 fc       	mov	r12,15
8000308c:	f0 1f 00 1b 	mcall	800030f8 <gui_loadingScreen+0x1b8>
	char text[] = "LogoRetro.pixel";
80003090:	4a 08       	lddpc	r8,80003110 <gui_loadingScreen+0x1d0>
80003092:	fa c4 ff ec 	sub	r4,sp,-20
80003096:	f0 ea 00 00 	ld.d	r10,r8[0]
8000309a:	e8 eb 00 00 	st.d	r4[0],r10
8000309e:	f0 e8 00 08 	ld.d	r8,r8[8]
800030a2:	e8 e9 00 08 	st.d	r4[8],r8
	gfx_Label((Vector2){40,40}, text, sizeof(text)/sizeof(*text), Small, (Color){WHITE});
800030a6:	51 b6       	stdsp	sp[0x6c],r6
800030a8:	fb 55 00 6c 	st.h	sp[108],r5
800030ac:	0e 9a       	mov	r10,r7
800030ae:	49 ab       	lddpc	r11,80003114 <gui_loadingScreen+0x1d4>
800030b0:	fa cc ff 90 	sub	r12,sp,-112
800030b4:	f0 1f 00 09 	mcall	800030d8 <gui_loadingScreen+0x198>
800030b8:	41 b8       	lddsp	r8,sp[0x6c]
800030ba:	1a d8       	st.w	--sp,r8
800030bc:	41 d8       	lddsp	r8,sp[0x74]
800030be:	1a d8       	st.w	--sp,r8
800030c0:	0c 9a       	mov	r10,r6
800030c2:	31 0b       	mov	r11,16
800030c4:	08 9c       	mov	r12,r4
800030c6:	f0 1f 00 15 	mcall	80003118 <gui_loadingScreen+0x1d8>
800030ca:	2f 9d       	sub	sp,-28
}
800030cc:	2e 8d       	sub	sp,-96
800030ce:	d8 22       	popm	r4-r7,pc
800030d0:	80 00       	ld.sh	r0,r0[0x0]
800030d2:	31 70       	mov	r0,23
800030d4:	00 00       	add	r0,r0
800030d6:	00 04       	add	r4,r0
800030d8:	80 00       	ld.sh	r0,r0[0x0]
800030da:	3c 54       	mov	r4,-59
800030dc:	80 00       	ld.sh	r0,r0[0x0]
800030de:	32 e4       	mov	r4,46
800030e0:	80 00       	ld.sh	r0,r0[0x0]
800030e2:	74 20       	ld.w	r0,r10[0x8]
800030e4:	80 00       	ld.sh	r0,r0[0x0]
800030e6:	72 88       	ld.w	r8,r9[0x20]
800030e8:	80 00       	ld.sh	r0,r0[0x0]
800030ea:	29 14       	sub	r4,-111
800030ec:	80 00       	ld.sh	r0,r0[0x0]
800030ee:	72 90       	ld.w	r0,r9[0x24]
800030f0:	80 00       	ld.sh	r0,r0[0x0]
800030f2:	74 1c       	ld.w	r12,r10[0x4]
800030f4:	80 00       	ld.sh	r0,r0[0x0]
800030f6:	72 8c       	ld.w	r12,r9[0x20]
800030f8:	80 00       	ld.sh	r0,r0[0x0]
800030fa:	2d a4       	sub	r4,-38
800030fc:	80 00       	ld.sh	r0,r0[0x0]
800030fe:	72 98       	ld.w	r8,r9[0x24]
80003100:	80 00       	ld.sh	r0,r0[0x0]
80003102:	72 94       	ld.w	r4,r9[0x24]
80003104:	80 00       	ld.sh	r0,r0[0x0]
80003106:	74 14       	ld.w	r4,r10[0x4]
80003108:	80 00       	ld.sh	r0,r0[0x0]
8000310a:	74 18       	ld.w	r8,r10[0x4]
8000310c:	80 00       	ld.sh	r0,r0[0x0]
8000310e:	72 9c       	ld.w	r12,r9[0x24]
80003110:	80 00       	ld.sh	r0,r0[0x0]
80003112:	74 00       	ld.w	r0,r10[0x0]
80003114:	80 00       	ld.sh	r0,r0[0x0]
80003116:	74 10       	ld.w	r0,r10[0x4]
80003118:	80 00       	ld.sh	r0,r0[0x0]
8000311a:	2b b4       	sub	r4,-69

8000311c <rectangle_GetArea>:

uint8_t  rectangle_GetHeight(Rectangle rect){
	return rect.topRight.y - rect.bottomLeft.y;
}

uint32_t rectangle_GetArea(Rectangle rect){
8000311c:	eb cd 00 10 	pushm	r4
80003120:	20 1d       	sub	sp,4
80003122:	fa c4 ff f8 	sub	r4,sp,-8
	volatile uint32_t value = (uint32_t)(rect.topRight.x - rect.bottomLeft.x +1)*(uint32_t)(rect.topRight.y - rect.bottomLeft.y +1);
80003126:	09 e9       	ld.ub	r9,r4[0x6]
80003128:	2f f9       	sub	r9,-1
8000312a:	09 aa       	ld.ub	r10,r4[0x2]
8000312c:	14 19       	sub	r9,r10
8000312e:	88 a8       	ld.uh	r8,r4[0x4]
80003130:	2f f8       	sub	r8,-1
80003132:	88 8a       	ld.uh	r10,r4[0x0]
80003134:	14 18       	sub	r8,r10
80003136:	f2 08 02 48 	mul	r8,r9,r8
8000313a:	50 08       	stdsp	sp[0x0],r8
	return value;
8000313c:	40 0c       	lddsp	r12,sp[0x0]
}
8000313e:	2f fd       	sub	sp,-4
80003140:	e3 cd 00 10 	ldm	sp++,r4
80003144:	5e fc       	retal	r12

80003146 <rectangle_VerifySize>:

void rectangle_VerifySize(Rectangle *rect, uint16_t maxWidth, uint8_t maxHeight){
	if(rect->bottomLeft.x > maxWidth)
80003146:	98 08       	ld.sh	r8,r12[0x0]
		rect->bottomLeft.x = maxWidth;
80003148:	f6 08 19 00 	cp.h	r8,r11
8000314c:	f9 fb bc 00 	st.hhi	r12[0x0],r11

	if(rect->topRight.x > maxWidth)
80003150:	98 28       	ld.sh	r8,r12[0x4]
		rect->topRight.x = maxWidth;
80003152:	f6 08 19 00 	cp.h	r8,r11
80003156:	f9 fb bc 02 	st.hhi	r12[0x4],r11

	if(rect->bottomLeft.y > maxHeight)
8000315a:	19 a8       	ld.ub	r8,r12[0x2]
		rect->bottomLeft.y = maxHeight;
8000315c:	f4 08 18 00 	cp.b	r8,r10
80003160:	f9 fa be 02 	st.bhi	r12[0x2],r10

	if(rect->topRight.y > maxHeight)
80003164:	19 e8       	ld.ub	r8,r12[0x6]
		rect->topRight.y = maxHeight;
80003166:	f4 08 18 00 	cp.b	r8,r10
8000316a:	f9 fa be 06 	st.bhi	r12[0x6],r10
8000316e:	5e fc       	retal	r12

80003170 <Rect>:
	//if(rect->topRight.y == rect->bottomLeft.y)
		//rect->topRight.y++;
}


Rectangle Rect(uint16_t x1, uint8_t y1, uint16_t x2, uint8_t y2){
80003170:	d4 01       	pushm	lr
80003172:	18 9e       	mov	lr,r12
	//Vector2 tl = {x1,y1};
	//Vector2 br = {x2, y2};
	//Rectangle r = {tl, br};
	return (Rectangle){{x1,y1},{x2,y2}};
80003174:	b8 0b       	st.h	r12[0x0],r11
80003176:	b8 aa       	st.b	r12[0x2],r10
80003178:	b8 29       	st.h	r12[0x4],r9
8000317a:	b8 e8       	st.b	r12[0x6],r8
8000317c:	d8 02       	popm	pc
8000317e:	d7 03       	nop

80003180 <_writeRegister>:
	spi_unselectChip(SCREEN_SPI, SCREEN_SPI_NPCS);
	
	_setLimits(Rect(0,0,SCREEN_WIDTH,SCREEN_HEIGHT));
}

static void _writeRegister(uint8_t reg, uint16_t data){
80003180:	eb cd 40 c0 	pushm	r6-r7,lr
80003184:	18 96       	mov	r6,r12
80003186:	16 97       	mov	r7,r11
	spi_selectChip(SCREEN_SPI, SCREEN_SPI_NPCS);		//Chip Select adresse du TFT.
80003188:	30 0b       	mov	r11,0
8000318a:	fe 7c 24 00 	mov	r12,-56320
8000318e:	f0 1f 00 1a 	mcall	800031f4 <_writeRegister+0x74>
	spi_write(SCREEN_SPI, LCD_ID_WRITE_INDEX);
80003192:	37 0b       	mov	r11,112
80003194:	fe 7c 24 00 	mov	r12,-56320
80003198:	f0 1f 00 18 	mcall	800031f8 <_writeRegister+0x78>
	spi_write(SCREEN_SPI, 0x00);					// Adresse LSB
8000319c:	30 0b       	mov	r11,0
8000319e:	fe 7c 24 00 	mov	r12,-56320
800031a2:	f0 1f 00 16 	mcall	800031f8 <_writeRegister+0x78>
	spi_write(SCREEN_SPI, reg);					// Adresse MSB
800031a6:	0c 9b       	mov	r11,r6
800031a8:	fe 7c 24 00 	mov	r12,-56320
800031ac:	f0 1f 00 13 	mcall	800031f8 <_writeRegister+0x78>
	spi_unselectChip(SCREEN_SPI, SCREEN_SPI_NPCS);
800031b0:	30 0b       	mov	r11,0
800031b2:	fe 7c 24 00 	mov	r12,-56320
800031b6:	f0 1f 00 12 	mcall	800031fc <_writeRegister+0x7c>

	spi_selectChip(SCREEN_SPI, SCREEN_SPI_NPCS);		//Chip Select adresse du TFT.
800031ba:	30 0b       	mov	r11,0
800031bc:	fe 7c 24 00 	mov	r12,-56320
800031c0:	f0 1f 00 0d 	mcall	800031f4 <_writeRegister+0x74>
	spi_write(SCREEN_SPI, LCD_ID_WRITE_GRAM);
800031c4:	37 2b       	mov	r11,114
800031c6:	fe 7c 24 00 	mov	r12,-56320
800031ca:	f0 1f 00 0c 	mcall	800031f8 <_writeRegister+0x78>
	spi_write(SCREEN_SPI, (uint8_t) (data >> 8));
800031ce:	f7 d7 c1 08 	bfextu	r11,r7,0x8,0x8
800031d2:	fe 7c 24 00 	mov	r12,-56320
800031d6:	f0 1f 00 09 	mcall	800031f8 <_writeRegister+0x78>
	spi_write(SCREEN_SPI, (uint8_t) (data & 0x00ff));
800031da:	0e 9b       	mov	r11,r7
800031dc:	5c 5b       	castu.b	r11
800031de:	fe 7c 24 00 	mov	r12,-56320
800031e2:	f0 1f 00 06 	mcall	800031f8 <_writeRegister+0x78>
	spi_unselectChip(SCREEN_SPI, SCREEN_SPI_NPCS);
800031e6:	30 0b       	mov	r11,0
800031e8:	fe 7c 24 00 	mov	r12,-56320
800031ec:	f0 1f 00 04 	mcall	800031fc <_writeRegister+0x7c>
}
800031f0:	e3 cd 80 c0 	ldm	sp++,r6-r7,pc
800031f4:	80 00       	ld.sh	r0,r0[0x0]
800031f6:	24 7e       	sub	lr,71
800031f8:	80 00       	ld.sh	r0,r0[0x0]
800031fa:	25 ae       	sub	lr,90
800031fc:	80 00       	ld.sh	r0,r0[0x0]
800031fe:	24 ca       	sub	r10,76

80003200 <_setStart>:
	spi_write( SCREEN_SPI, (uint8_t)(data >> 8));
	spi_write( SCREEN_SPI, (uint8_t)(data & 0x00ff));
	spi_unselectChip(SCREEN_SPI, SCREEN_SPI_NPCS);
}

static void _setStart(Vector2 position){
80003200:	eb cd 40 10 	pushm	r4,lr
80003204:	fa c4 ff f8 	sub	r4,sp,-8
	_writeRegister(R61580_ADDRESS_HORIZONTAL, position.y);
80003208:	09 ab       	ld.ub	r11,r4[0x2]
8000320a:	32 0c       	mov	r12,32
8000320c:	f0 1f 00 04 	mcall	8000321c <_setStart+0x1c>
	_writeRegister(R61580_ADDRESS_VERTICAL	, position.x);
80003210:	88 8b       	ld.uh	r11,r4[0x0]
80003212:	32 1c       	mov	r12,33
80003214:	f0 1f 00 02 	mcall	8000321c <_setStart+0x1c>
}
80003218:	e3 cd 80 10 	ldm	sp++,r4,pc
8000321c:	80 00       	ld.sh	r0,r0[0x0]
8000321e:	31 80       	mov	r0,24

80003220 <_setLimits>:

static void _setLimits(Rectangle rect){
80003220:	eb cd 40 10 	pushm	r4,lr
80003224:	fa c4 ff f8 	sub	r4,sp,-8
	_writeRegister(R61580_ADD_HSA, rect.bottomLeft.y);
80003228:	09 ab       	ld.ub	r11,r4[0x2]
8000322a:	35 0c       	mov	r12,80
8000322c:	f0 1f 00 08 	mcall	8000324c <_setLimits+0x2c>
	_writeRegister(R61580_ADD_HEA, rect.topRight.y);
80003230:	09 eb       	ld.ub	r11,r4[0x6]
80003232:	35 1c       	mov	r12,81
80003234:	f0 1f 00 06 	mcall	8000324c <_setLimits+0x2c>
	_writeRegister(R61580_ADD_VSA, rect.bottomLeft.x);
80003238:	88 8b       	ld.uh	r11,r4[0x0]
8000323a:	35 2c       	mov	r12,82
8000323c:	f0 1f 00 04 	mcall	8000324c <_setLimits+0x2c>
	_writeRegister(R61580_ADD_VEA, rect.topRight.x);
80003240:	88 ab       	ld.uh	r11,r4[0x4]
80003242:	35 2c       	mov	r12,82
80003244:	f0 1f 00 02 	mcall	8000324c <_setLimits+0x2c>
}
80003248:	e3 cd 80 10 	ldm	sp++,r4,pc
8000324c:	80 00       	ld.sh	r0,r0[0x0]
8000324e:	31 80       	mov	r0,24

80003250 <_selectRegister>:

	data = data_low + (data_high << 8);
	return data;
}

static void _selectRegister(uint8_t address){
80003250:	eb cd 40 80 	pushm	r7,lr
80003254:	18 97       	mov	r7,r12
	spi_selectChip(SCREEN_SPI, SCREEN_SPI_NPCS);
80003256:	30 0b       	mov	r11,0
80003258:	fe 7c 24 00 	mov	r12,-56320
8000325c:	f0 1f 00 0c 	mcall	8000328c <_selectRegister+0x3c>
	spi_write(SCREEN_SPI, LCD_ID_WRITE_INDEX);
80003260:	37 0b       	mov	r11,112
80003262:	fe 7c 24 00 	mov	r12,-56320
80003266:	f0 1f 00 0b 	mcall	80003290 <_selectRegister+0x40>
	spi_write(SCREEN_SPI, 0x00);
8000326a:	30 0b       	mov	r11,0
8000326c:	fe 7c 24 00 	mov	r12,-56320
80003270:	f0 1f 00 08 	mcall	80003290 <_selectRegister+0x40>
	spi_write(SCREEN_SPI, address);
80003274:	0e 9b       	mov	r11,r7
80003276:	fe 7c 24 00 	mov	r12,-56320
8000327a:	f0 1f 00 06 	mcall	80003290 <_selectRegister+0x40>
	spi_unselectChip(SCREEN_SPI, SCREEN_SPI_NPCS);
8000327e:	30 0b       	mov	r11,0
80003280:	fe 7c 24 00 	mov	r12,-56320
80003284:	f0 1f 00 04 	mcall	80003294 <_selectRegister+0x44>
}
80003288:	e3 cd 80 80 	ldm	sp++,r7,pc
8000328c:	80 00       	ld.sh	r0,r0[0x0]
8000328e:	24 7e       	sub	lr,71
80003290:	80 00       	ld.sh	r0,r0[0x0]
80003292:	25 ae       	sub	lr,90
80003294:	80 00       	ld.sh	r0,r0[0x0]
80003296:	24 ca       	sub	r10,76

80003298 <_writeRAM>:
	_writeRegister(R61580_PANEL_CONTROL3, 0x0701);		// Sets VCOM equalize period
	
	_writeRegister(R61580_DISPLAY_CONTROL1, 0x0100);		//Display Control 1
}

static void _writeRAM(uint16_t data){
80003298:	eb cd 40 80 	pushm	r7,lr
8000329c:	18 97       	mov	r7,r12
	spi_selectChip(SCREEN_SPI, SCREEN_SPI_NPCS);
8000329e:	30 0b       	mov	r11,0
800032a0:	fe 7c 24 00 	mov	r12,-56320
800032a4:	f0 1f 00 0d 	mcall	800032d8 <_writeRAM+0x40>
	spi_write( SCREEN_SPI, LCD_ID_WRITE_GRAM);
800032a8:	37 2b       	mov	r11,114
800032aa:	fe 7c 24 00 	mov	r12,-56320
800032ae:	f0 1f 00 0c 	mcall	800032dc <_writeRAM+0x44>

	spi_write( SCREEN_SPI, (uint8_t)(data >> 8));
800032b2:	f7 d7 c1 08 	bfextu	r11,r7,0x8,0x8
800032b6:	fe 7c 24 00 	mov	r12,-56320
800032ba:	f0 1f 00 09 	mcall	800032dc <_writeRAM+0x44>
	spi_write( SCREEN_SPI, (uint8_t)(data & 0x00ff));
800032be:	0e 9b       	mov	r11,r7
800032c0:	5c 5b       	castu.b	r11
800032c2:	fe 7c 24 00 	mov	r12,-56320
800032c6:	f0 1f 00 06 	mcall	800032dc <_writeRAM+0x44>
	spi_unselectChip(SCREEN_SPI, SCREEN_SPI_NPCS);
800032ca:	30 0b       	mov	r11,0
800032cc:	fe 7c 24 00 	mov	r12,-56320
800032d0:	f0 1f 00 04 	mcall	800032e0 <_writeRAM+0x48>
}
800032d4:	e3 cd 80 80 	ldm	sp++,r7,pc
800032d8:	80 00       	ld.sh	r0,r0[0x0]
800032da:	24 7e       	sub	lr,71
800032dc:	80 00       	ld.sh	r0,r0[0x0]
800032de:	25 ae       	sub	lr,90
800032e0:	80 00       	ld.sh	r0,r0[0x0]
800032e2:	24 ca       	sub	r10,76

800032e4 <screen_SetPixels>:
	_selectRegister(R61580_DATA_WRITE);
	_writeRAM(color.value);
	spi_unselectChip(SCREEN_SPI,SCREEN_SPI_NPCS);
}

void screen_SetPixels(Rectangle rect, Color color){
800032e4:	eb cd 40 d0 	pushm	r4,r6-r7,lr
800032e8:	20 3d       	sub	sp,12
800032ea:	fa c4 ff e4 	sub	r4,sp,-28
	rectangle_VerifySize(&rect, SCREEN_WIDTH, SCREEN_HEIGHT);
800032ee:	e0 6a 00 f0 	mov	r10,240
800032f2:	e0 6b 01 40 	mov	r11,320
800032f6:	08 9c       	mov	r12,r4
800032f8:	f0 1f 00 1b 	mcall	80003364 <screen_SetPixels+0x80>

	_setLimits(rect);
800032fc:	e8 e8 00 00 	ld.d	r8,r4[0]
80003300:	bb 29       	st.d	--sp,r8
80003302:	f0 1f 00 1a 	mcall	80003368 <screen_SetPixels+0x84>
	_setStart(rect.bottomLeft);
80003306:	68 08       	ld.w	r8,r4[0x0]
80003308:	1a d8       	st.w	--sp,r8
8000330a:	f0 1f 00 19 	mcall	8000336c <screen_SetPixels+0x88>

	_selectRegister(R61580_DATA_WRITE);
8000330e:	32 2c       	mov	r12,34
80003310:	f0 1f 00 18 	mcall	80003370 <screen_SetPixels+0x8c>
	volatile c = rectangle_GetArea(rect);
80003314:	e8 e8 00 00 	ld.d	r8,r4[0]
80003318:	bb 29       	st.d	--sp,r8
8000331a:	f0 1f 00 17 	mcall	80003374 <screen_SetPixels+0x90>
8000331e:	50 5c       	stdsp	sp[0x14],r12
	for(uint32_t count = c; count > 0; count--){
80003320:	40 57       	lddsp	r7,sp[0x14]
80003322:	2f bd       	sub	sp,-20
80003324:	58 07       	cp.w	r7,0
80003326:	c0 70       	breq	80003334 <screen_SetPixels+0x50>
		_writeRAM(color.value);
80003328:	88 c6       	ld.uh	r6,r4[0x8]
8000332a:	0c 9c       	mov	r12,r6
8000332c:	f0 1f 00 13 	mcall	80003378 <screen_SetPixels+0x94>
	_setLimits(rect);
	_setStart(rect.bottomLeft);

	_selectRegister(R61580_DATA_WRITE);
	volatile c = rectangle_GetArea(rect);
	for(uint32_t count = c; count > 0; count--){
80003330:	20 17       	sub	r7,1
80003332:	cf c1       	brne	8000332a <screen_SetPixels+0x46>
		_writeRAM(color.value);
	}

	spi_unselectChip(SCREEN_SPI, SCREEN_SPI_NPCS);
80003334:	30 0b       	mov	r11,0
80003336:	fe 7c 24 00 	mov	r12,-56320
8000333a:	f0 1f 00 11 	mcall	8000337c <screen_SetPixels+0x98>
	
	_setLimits(Rect(0,0,SCREEN_WIDTH,SCREEN_HEIGHT));
8000333e:	e0 68 00 f0 	mov	r8,240
80003342:	e0 69 01 40 	mov	r9,320
80003346:	30 0a       	mov	r10,0
80003348:	14 9b       	mov	r11,r10
8000334a:	fa cc ff fc 	sub	r12,sp,-4
8000334e:	f0 1f 00 0d 	mcall	80003380 <screen_SetPixels+0x9c>
80003352:	fa e8 00 04 	ld.d	r8,sp[4]
80003356:	bb 29       	st.d	--sp,r8
80003358:	f0 1f 00 04 	mcall	80003368 <screen_SetPixels+0x84>
8000335c:	2f ed       	sub	sp,-8
}
8000335e:	2f dd       	sub	sp,-12
80003360:	e3 cd 80 d0 	ldm	sp++,r4,r6-r7,pc
80003364:	80 00       	ld.sh	r0,r0[0x0]
80003366:	31 46       	mov	r6,20
80003368:	80 00       	ld.sh	r0,r0[0x0]
8000336a:	32 20       	mov	r0,34
8000336c:	80 00       	ld.sh	r0,r0[0x0]
8000336e:	32 00       	mov	r0,32
80003370:	80 00       	ld.sh	r0,r0[0x0]
80003372:	32 50       	mov	r0,37
80003374:	80 00       	ld.sh	r0,r0[0x0]
80003376:	31 1c       	mov	r12,17
80003378:	80 00       	ld.sh	r0,r0[0x0]
8000337a:	32 98       	mov	r8,41
8000337c:	80 00       	ld.sh	r0,r0[0x0]
8000337e:	24 ca       	sub	r10,76
80003380:	80 00       	ld.sh	r0,r0[0x0]
80003382:	31 70       	mov	r0,23

80003384 <screen_SetPixel>:
void screen_TouchZone(Rectangle rect, void *callback(void)){


}

void screen_SetPixel(Vector2 position, Color color){
80003384:	eb cd 40 10 	pushm	r4,lr
80003388:	fa c4 ff f8 	sub	r4,sp,-8
	_setStart(position);
8000338c:	68 08       	ld.w	r8,r4[0x0]
8000338e:	1a d8       	st.w	--sp,r8
80003390:	f0 1f 00 08 	mcall	800033b0 <screen_SetPixel+0x2c>
	_selectRegister(R61580_DATA_WRITE);
80003394:	32 2c       	mov	r12,34
80003396:	f0 1f 00 08 	mcall	800033b4 <screen_SetPixel+0x30>
	_writeRAM(color.value);
8000339a:	88 ac       	ld.uh	r12,r4[0x4]
8000339c:	f0 1f 00 07 	mcall	800033b8 <screen_SetPixel+0x34>
	spi_unselectChip(SCREEN_SPI,SCREEN_SPI_NPCS);
800033a0:	30 0b       	mov	r11,0
800033a2:	fe 7c 24 00 	mov	r12,-56320
800033a6:	f0 1f 00 06 	mcall	800033bc <screen_SetPixel+0x38>
800033aa:	2f fd       	sub	sp,-4
}
800033ac:	e3 cd 80 10 	ldm	sp++,r4,pc
800033b0:	80 00       	ld.sh	r0,r0[0x0]
800033b2:	32 00       	mov	r0,32
800033b4:	80 00       	ld.sh	r0,r0[0x0]
800033b6:	32 50       	mov	r0,37
800033b8:	80 00       	ld.sh	r0,r0[0x0]
800033ba:	32 98       	mov	r8,41
800033bc:	80 00       	ld.sh	r0,r0[0x0]
800033be:	24 ca       	sub	r10,76

800033c0 <screen_Init>:

static void _powerUp();
static void _reset();
static void _setPWM();

void screen_Init(){
800033c0:	eb cd 40 80 	pushm	r7,lr
800033c4:	21 8d       	sub	sp,96
	{
		{PIN_SCK_SPI0,  FCT_SCK_SPI0 },			// SPI Clock.
		{PIN_MISO_SPI0, FCT_MISO_SPI0},			// MISO.
		{PIN_MOSI_SPI0, FCT_MOSI_SPI0},			// MOSI.
		{PIN_NPCS_TFT,  FCT_NPCS_TFT}			// Chip Select NPCS0 pour l'cran TFT.
	};
800033c6:	fe f8 03 a2 	ld.w	r8,pc[930]
800033ca:	fa cc ff c0 	sub	r12,sp,-64
800033ce:	f0 ea 00 00 	ld.d	r10,r8[0]
800033d2:	f8 eb 00 00 	st.d	r12[0],r10
800033d6:	f0 ea 00 08 	ld.d	r10,r8[8]
800033da:	f8 eb 00 08 	st.d	r12[8],r10
800033de:	f0 ea 00 10 	ld.d	r10,r8[16]
800033e2:	f8 eb 00 10 	st.d	r12[16],r10
800033e6:	f0 e8 00 18 	ld.d	r8,r8[24]
800033ea:	f8 e9 00 18 	st.d	r12[24],r8
		.spck_delay		= 	1,					// Delay entre CS et SPCK.
		.trans_delay	= 	0,					// Delay entre deux transfert.
		.stay_act		=	1,					// ?
		.spi_mode		= 	3,					// ?
		.modfdis		=	1					// ?
	};
800033ee:	fe f8 03 7e 	ld.w	r8,pc[894]
800033f2:	fa c7 ff d0 	sub	r7,sp,-48
800033f6:	f0 ea 00 00 	ld.d	r10,r8[0]
800033fa:	ee eb 00 00 	st.d	r7[0],r10
800033fe:	f0 e8 00 08 	ld.d	r8,r8[8]
80003402:	ee e9 00 08 	st.d	r7[8],r8

	// Assign I/Os to SPI.
	gpio_enable_module(screenGPIO, sizeof(screenGPIO) / sizeof(screenGPIO[0]));
80003406:	30 4b       	mov	r11,4
80003408:	f0 1f 00 da 	mcall	80003770 <screen_Init+0x3b0>
	// Initialize as master.
	spi_initMaster(AVR32_SPI0_ADDRESS, &screenOptions);
8000340c:	0e 9b       	mov	r11,r7
8000340e:	fe 7c 24 00 	mov	r12,-56320
80003412:	f0 1f 00 d9 	mcall	80003774 <screen_Init+0x3b4>
	// Enable SPI module.
	spi_enable(AVR32_SPI0_ADDRESS);
80003416:	fe 7c 24 00 	mov	r12,-56320
8000341a:	f0 1f 00 d8 	mcall	80003778 <screen_Init+0x3b8>
	// Initialize SD/MMC driver with SPI clock (PBA).
	spi_setupChipReg(AVR32_SPI0_ADDRESS, &screenOptions, BOARD_OSC0_HZ);
8000341e:	e0 6a 90 00 	mov	r10,36864
80003422:	ea 1a 03 d0 	orh	r10,0x3d0
80003426:	0e 9b       	mov	r11,r7
80003428:	fe 7c 24 00 	mov	r12,-56320
8000342c:	f0 1f 00 d4 	mcall	8000377c <screen_Init+0x3bc>
	_writeRegister(R61580_ADD_VSA, rect.bottomLeft.x);
	_writeRegister(R61580_ADD_VEA, rect.topRight.x);
}

static void _reset(){
	gpio_clr_gpio_pin(PIN_RESET_TFT);
80003430:	30 ec       	mov	r12,14
80003432:	f0 1f 00 d4 	mcall	80003780 <screen_Init+0x3c0>
 * \param  delay:   (input) delay in CPU cycles before timeout.
 * \param  cpu_time: (output) internal information used by the timer API.
 */
__always_inline static void cpu_set_timeout(unsigned long delay, t_cpu_time *cpu_time)
{
  cpu_time->delay_start_cycle = Get_system_register(AVR32_COUNT);
80003436:	e1 b8 00 42 	mfsr	r8,0x108
  cpu_time->delay_end_cycle   = cpu_time->delay_start_cycle + delay;
8000343a:	e0 6a a8 00 	mov	r10,43008
8000343e:	ea 1a 00 61 	orh	r10,0x61
80003442:	f0 0a 00 0a 	add	r10,r8,r10
 *
 * \return true if timeout occurred, otherwise false.
 */
__always_inline static unsigned long cpu_is_timeout(t_cpu_time *cpu_time)
{
  unsigned long current_cycle_count = Get_system_register(AVR32_COUNT);
80003446:	e1 b9 00 42 	mfsr	r9,0x108
  // Test if the timeout as already occurred.
  else if (cpu_time->timer_state == CPU_TIMER_STATE_REACHED)
    return true;

  // If the ending cycle count of this timeout is wrapped, ...
  else if (cpu_time->delay_start_cycle > cpu_time->delay_end_cycle)
8000344a:	14 38       	cp.w	r8,r10
8000344c:	e0 88 00 08 	brls	8000345c <screen_Init+0x9c>
  {
    if (current_cycle_count < cpu_time->delay_start_cycle && current_cycle_count > cpu_time->delay_end_cycle)
80003450:	12 38       	cp.w	r8,r9
80003452:	fe 98 ff fa 	brls	80003446 <screen_Init+0x86>
80003456:	12 3a       	cp.w	r10,r9
80003458:	c4 e3       	brcs	800034f4 <screen_Init+0x134>
8000345a:	cf 6b       	rjmp	80003446 <screen_Init+0x86>
    }
    return false;
  }
  else
  {
    if (current_cycle_count < cpu_time->delay_start_cycle || current_cycle_count > cpu_time->delay_end_cycle)
8000345c:	12 38       	cp.w	r8,r9
8000345e:	e0 8b 00 4b 	brhi	800034f4 <screen_Init+0x134>
80003462:	12 3a       	cp.w	r10,r9
80003464:	c4 83       	brcs	800034f4 <screen_Init+0x134>
80003466:	cf 0b       	rjmp	80003446 <screen_Init+0x86>
 *
 * \return true if timeout occurred, otherwise false.
 */
__always_inline static unsigned long cpu_is_timeout(t_cpu_time *cpu_time)
{
  unsigned long current_cycle_count = Get_system_register(AVR32_COUNT);
80003468:	e1 b9 00 42 	mfsr	r9,0x108
  // Test if the timeout as already occurred.
  else if (cpu_time->timer_state == CPU_TIMER_STATE_REACHED)
    return true;

  // If the ending cycle count of this timeout is wrapped, ...
  else if (cpu_time->delay_start_cycle > cpu_time->delay_end_cycle)
8000346c:	14 38       	cp.w	r8,r10
8000346e:	e0 88 00 08 	brls	8000347e <screen_Init+0xbe>
  {
    if (current_cycle_count < cpu_time->delay_start_cycle && current_cycle_count > cpu_time->delay_end_cycle)
80003472:	12 38       	cp.w	r8,r9
80003474:	fe 98 ff fa 	brls	80003468 <screen_Init+0xa8>
80003478:	12 3a       	cp.w	r10,r9
8000347a:	c4 73       	brcs	80003508 <screen_Init+0x148>
8000347c:	cf 6b       	rjmp	80003468 <screen_Init+0xa8>
    }
    return false;
  }
  else
  {
    if (current_cycle_count < cpu_time->delay_start_cycle || current_cycle_count > cpu_time->delay_end_cycle)
8000347e:	12 38       	cp.w	r8,r9
80003480:	e0 8b 00 44 	brhi	80003508 <screen_Init+0x148>
80003484:	12 3a       	cp.w	r10,r9
80003486:	c4 13       	brcs	80003508 <screen_Init+0x148>
80003488:	cf 0b       	rjmp	80003468 <screen_Init+0xa8>
 *
 * \return true if timeout occurred, otherwise false.
 */
__always_inline static unsigned long cpu_is_timeout(t_cpu_time *cpu_time)
{
  unsigned long current_cycle_count = Get_system_register(AVR32_COUNT);
8000348a:	e1 b9 00 42 	mfsr	r9,0x108
  // Test if the timeout as already occurred.
  else if (cpu_time->timer_state == CPU_TIMER_STATE_REACHED)
    return true;

  // If the ending cycle count of this timeout is wrapped, ...
  else if (cpu_time->delay_start_cycle > cpu_time->delay_end_cycle)
8000348e:	14 38       	cp.w	r8,r10
80003490:	e0 88 00 08 	brls	800034a0 <screen_Init+0xe0>
  {
    if (current_cycle_count < cpu_time->delay_start_cycle && current_cycle_count > cpu_time->delay_end_cycle)
80003494:	12 38       	cp.w	r8,r9
80003496:	fe 98 ff fa 	brls	8000348a <screen_Init+0xca>
8000349a:	12 3a       	cp.w	r10,r9
8000349c:	c4 73       	brcs	8000352a <screen_Init+0x16a>
8000349e:	cf 6b       	rjmp	8000348a <screen_Init+0xca>
    }
    return false;
  }
  else
  {
    if (current_cycle_count < cpu_time->delay_start_cycle || current_cycle_count > cpu_time->delay_end_cycle)
800034a0:	12 38       	cp.w	r8,r9
800034a2:	e0 8b 00 44 	brhi	8000352a <screen_Init+0x16a>
800034a6:	12 3a       	cp.w	r10,r9
800034a8:	c4 13       	brcs	8000352a <screen_Init+0x16a>
800034aa:	cf 0b       	rjmp	8000348a <screen_Init+0xca>
 *
 * \return true if timeout occurred, otherwise false.
 */
__always_inline static unsigned long cpu_is_timeout(t_cpu_time *cpu_time)
{
  unsigned long current_cycle_count = Get_system_register(AVR32_COUNT);
800034ac:	e1 b9 00 42 	mfsr	r9,0x108
  // Test if the timeout as already occurred.
  else if (cpu_time->timer_state == CPU_TIMER_STATE_REACHED)
    return true;

  // If the ending cycle count of this timeout is wrapped, ...
  else if (cpu_time->delay_start_cycle > cpu_time->delay_end_cycle)
800034b0:	14 38       	cp.w	r8,r10
800034b2:	e0 88 00 08 	brls	800034c2 <screen_Init+0x102>
  {
    if (current_cycle_count < cpu_time->delay_start_cycle && current_cycle_count > cpu_time->delay_end_cycle)
800034b6:	12 38       	cp.w	r8,r9
800034b8:	fe 98 ff fa 	brls	800034ac <screen_Init+0xec>
800034bc:	12 3a       	cp.w	r10,r9
800034be:	c5 43       	brcs	80003566 <screen_Init+0x1a6>
800034c0:	cf 6b       	rjmp	800034ac <screen_Init+0xec>
    }
    return false;
  }
  else
  {
    if (current_cycle_count < cpu_time->delay_start_cycle || current_cycle_count > cpu_time->delay_end_cycle)
800034c2:	12 38       	cp.w	r8,r9
800034c4:	e0 8b 00 51 	brhi	80003566 <screen_Init+0x1a6>
800034c8:	12 3a       	cp.w	r10,r9
800034ca:	c4 e3       	brcs	80003566 <screen_Init+0x1a6>
800034cc:	cf 0b       	rjmp	800034ac <screen_Init+0xec>
 *
 * \return true if timeout occurred, otherwise false.
 */
__always_inline static unsigned long cpu_is_timeout(t_cpu_time *cpu_time)
{
  unsigned long current_cycle_count = Get_system_register(AVR32_COUNT);
800034ce:	e1 b9 00 42 	mfsr	r9,0x108
  // Test if the timeout as already occurred.
  else if (cpu_time->timer_state == CPU_TIMER_STATE_REACHED)
    return true;

  // If the ending cycle count of this timeout is wrapped, ...
  else if (cpu_time->delay_start_cycle > cpu_time->delay_end_cycle)
800034d2:	14 38       	cp.w	r8,r10
800034d4:	e0 88 00 09 	brls	800034e6 <screen_Init+0x126>
  {
    if (current_cycle_count < cpu_time->delay_start_cycle && current_cycle_count > cpu_time->delay_end_cycle)
800034d8:	12 38       	cp.w	r8,r9
800034da:	fe 98 ff fa 	brls	800034ce <screen_Init+0x10e>
800034de:	12 3a       	cp.w	r10,r9
800034e0:	e0 83 00 a0 	brlo	80003620 <screen_Init+0x260>
800034e4:	cf 5b       	rjmp	800034ce <screen_Init+0x10e>
    }
    return false;
  }
  else
  {
    if (current_cycle_count < cpu_time->delay_start_cycle || current_cycle_count > cpu_time->delay_end_cycle)
800034e6:	12 38       	cp.w	r8,r9
800034e8:	e0 8b 00 9c 	brhi	80003620 <screen_Init+0x260>
800034ec:	12 3a       	cp.w	r10,r9
800034ee:	e0 83 00 99 	brlo	80003620 <screen_Init+0x260>
800034f2:	ce eb       	rjmp	800034ce <screen_Init+0x10e>
	// 50us delay
	cpu_delay_ms( 100, BOARD_OSC0_HZ);

	gpio_set_gpio_pin(PIN_RESET_TFT);
800034f4:	30 ec       	mov	r12,14
800034f6:	f0 1f 00 a4 	mcall	80003784 <screen_Init+0x3c4>
 * \param  delay:   (input) delay in CPU cycles before timeout.
 * \param  cpu_time: (output) internal information used by the timer API.
 */
__always_inline static void cpu_set_timeout(unsigned long delay, t_cpu_time *cpu_time)
{
  cpu_time->delay_start_cycle = Get_system_register(AVR32_COUNT);
800034fa:	e1 b8 00 42 	mfsr	r8,0x108
  cpu_time->delay_end_cycle   = cpu_time->delay_start_cycle + delay;
800034fe:	e4 69 e2 00 	mov	r9,320000
80003502:	f0 09 00 0a 	add	r10,r8,r9
80003506:	cb 1b       	rjmp	80003468 <screen_Init+0xa8>
	{
		ID = _readRegister(0x00);
	}
	
	// Synchronization after reset
	_writeRegister(R61580_DEVICE_CODE, 0x0000);
80003508:	30 0b       	mov	r11,0
8000350a:	16 9c       	mov	r12,r11
8000350c:	f0 1f 00 9f 	mcall	80003788 <screen_Init+0x3c8>
	_writeRegister(R61580_DEVICE_CODE, 0x0000);
80003510:	30 0b       	mov	r11,0
80003512:	16 9c       	mov	r12,r11
80003514:	f0 1f 00 9d 	mcall	80003788 <screen_Init+0x3c8>
 * \param  delay:   (input) delay in CPU cycles before timeout.
 * \param  cpu_time: (output) internal information used by the timer API.
 */
__always_inline static void cpu_set_timeout(unsigned long delay, t_cpu_time *cpu_time)
{
  cpu_time->delay_start_cycle = Get_system_register(AVR32_COUNT);
80003518:	e1 b8 00 42 	mfsr	r8,0x108
  cpu_time->delay_end_cycle   = cpu_time->delay_start_cycle + delay;
8000351c:	e0 6a a8 00 	mov	r10,43008
80003520:	ea 1a 00 61 	orh	r10,0x61
80003524:	f0 0a 00 0a 	add	r10,r8,r10
80003528:	cb 1b       	rjmp	8000348a <screen_Init+0xca>
	cpu_delay_ms(100, BOARD_OSC0_HZ);
	
	_writeRegister(R61580_DEVICE_CODE, 0x0000);
8000352a:	30 0b       	mov	r11,0
8000352c:	16 9c       	mov	r12,r11
8000352e:	f0 1f 00 97 	mcall	80003788 <screen_Init+0x3c8>
	_writeRegister(R61580_DEVICE_CODE, 0x0000);
80003532:	30 0b       	mov	r11,0
80003534:	16 9c       	mov	r12,r11
80003536:	f0 1f 00 95 	mcall	80003788 <screen_Init+0x3c8>
	_writeRegister(R61580_DEVICE_CODE, 0x0000);
8000353a:	30 0b       	mov	r11,0
8000353c:	16 9c       	mov	r12,r11
8000353e:	f0 1f 00 93 	mcall	80003788 <screen_Init+0x3c8>
	_writeRegister(R61580_DEVICE_CODE, 0x0000);
80003542:	30 0b       	mov	r11,0
80003544:	16 9c       	mov	r12,r11
80003546:	f0 1f 00 91 	mcall	80003788 <screen_Init+0x3c8>
	// Setup display
	_writeRegister(R61580_NVM_CONTROL, (uint16_t) (1 << CALB));	// CALB=1
8000354a:	30 1b       	mov	r11,1
8000354c:	e0 6c 00 a4 	mov	r12,164
80003550:	f0 1f 00 8e 	mcall	80003788 <screen_Init+0x3c8>
 * \param  delay:   (input) delay in CPU cycles before timeout.
 * \param  cpu_time: (output) internal information used by the timer API.
 */
__always_inline static void cpu_set_timeout(unsigned long delay, t_cpu_time *cpu_time)
{
  cpu_time->delay_start_cycle = Get_system_register(AVR32_COUNT);
80003554:	e1 b8 00 42 	mfsr	r8,0x108
  cpu_time->delay_end_cycle   = cpu_time->delay_start_cycle + delay;
80003558:	e0 6a a8 00 	mov	r10,43008
8000355c:	ea 1a 00 61 	orh	r10,0x61
80003560:	f0 0a 00 0a 	add	r10,r8,r10
80003564:	ca 4b       	rjmp	800034ac <screen_Init+0xec>
	
	cpu_delay_ms(100, BOARD_OSC0_HZ);
	_writeRegister(R61580_DRIVER_OUTPUT, 0xA700);		// Driver Output Control
80003566:	e0 6b a7 00 	mov	r11,42752
8000356a:	36 0c       	mov	r12,96
8000356c:	f0 1f 00 87 	mcall	80003788 <screen_Init+0x3c8>
	_writeRegister(R61580_DISPLAY_CONTROL2, 0x0808);		// Display Control BP=8, FP=8
80003570:	e0 6b 08 08 	mov	r11,2056
80003574:	30 8c       	mov	r12,8
80003576:	f0 1f 00 85 	mcall	80003788 <screen_Init+0x3c8>
	
	//Gamma Setting:
	_writeRegister(R61580_Y_CONTROL0, 0x0203);		// y control
8000357a:	e0 6b 02 03 	mov	r11,515
8000357e:	33 0c       	mov	r12,48
80003580:	f0 1f 00 82 	mcall	80003788 <screen_Init+0x3c8>
	_writeRegister(R61580_Y_CONTROL1, 0x080F);		// y control
80003584:	e0 6b 08 0f 	mov	r11,2063
80003588:	33 1c       	mov	r12,49
8000358a:	f0 1f 00 80 	mcall	80003788 <screen_Init+0x3c8>
	_writeRegister(R61580_Y_CONTROL2, 0x0401);		// y control
8000358e:	e0 6b 04 01 	mov	r11,1025
80003592:	33 2c       	mov	r12,50
80003594:	f0 1f 00 7d 	mcall	80003788 <screen_Init+0x3c8>
	_writeRegister(R61580_Y_CONTROL3, 0x050B);		// y control
80003598:	e0 6b 05 0b 	mov	r11,1291
8000359c:	33 3c       	mov	r12,51
8000359e:	f0 1f 00 7b 	mcall	80003788 <screen_Init+0x3c8>
	_writeRegister(R61580_Y_CONTROL4, 0x3330);		// y control
800035a2:	e0 6b 33 30 	mov	r11,13104
800035a6:	33 4c       	mov	r12,52
800035a8:	f0 1f 00 78 	mcall	80003788 <screen_Init+0x3c8>
	_writeRegister(R61580_Y_CONTROL5, 0x0B05);		// y control
800035ac:	e0 6b 0b 05 	mov	r11,2821
800035b0:	33 5c       	mov	r12,53
800035b2:	f0 1f 00 76 	mcall	80003788 <screen_Init+0x3c8>
	_writeRegister(R61580_Y_CONTROL6, 0x0005);		// y control
800035b6:	30 5b       	mov	r11,5
800035b8:	33 6c       	mov	r12,54
800035ba:	f0 1f 00 74 	mcall	80003788 <screen_Init+0x3c8>
	_writeRegister(R61580_Y_CONTROL7, 0x0F08);		// y control
800035be:	e0 6b 0f 08 	mov	r11,3848
800035c2:	33 7c       	mov	r12,55
800035c4:	f0 1f 00 71 	mcall	80003788 <screen_Init+0x3c8>
	_writeRegister(R61580_Y_CONTROL8, 0x0302);		// y control
800035c8:	e0 6b 03 02 	mov	r11,770
800035cc:	33 8c       	mov	r12,56
800035ce:	f0 1f 00 6f 	mcall	80003788 <screen_Init+0x3c8>
	_writeRegister(R61580_Y_CONTROL9, 0x3033);		// y control
800035d2:	e0 6b 30 33 	mov	r11,12339
800035d6:	33 9c       	mov	r12,57
800035d8:	f0 1f 00 6c 	mcall	80003788 <screen_Init+0x3c8>
	
	//Power Setting:
	
	_writeRegister(R61580_PANEL_CONTROL1, 0x0018);	// 80Hz
800035dc:	31 8b       	mov	r11,24
800035de:	e0 6c 00 90 	mov	r12,144
800035e2:	f0 1f 00 6a 	mcall	80003788 <screen_Init+0x3c8>
	_writeRegister(R61580_POWER_CONTROL1, 0x0530);	// Power Control
800035e6:	e0 6b 05 30 	mov	r11,1328
800035ea:	31 0c       	mov	r12,16
800035ec:	f0 1f 00 67 	mcall	80003788 <screen_Init+0x3c8>
	_writeRegister(R61580_POWER_CONTROL2, 0x0237);
800035f0:	e0 6b 02 37 	mov	r11,567
800035f4:	31 1c       	mov	r12,17
800035f6:	f0 1f 00 65 	mcall	80003788 <screen_Init+0x3c8>
	_writeRegister(R61580_POWER_CONTROL3, 0x01BF);
800035fa:	e0 6b 01 bf 	mov	r11,447
800035fe:	31 2c       	mov	r12,18
80003600:	f0 1f 00 62 	mcall	80003788 <screen_Init+0x3c8>
	_writeRegister(R61580_POWER_CONTROL4, 0x1000);
80003604:	e0 6b 10 00 	mov	r11,4096
80003608:	31 3c       	mov	r12,19
8000360a:	f0 1f 00 60 	mcall	80003788 <screen_Init+0x3c8>
 * \param  delay:   (input) delay in CPU cycles before timeout.
 * \param  cpu_time: (output) internal information used by the timer API.
 */
__always_inline static void cpu_set_timeout(unsigned long delay, t_cpu_time *cpu_time)
{
  cpu_time->delay_start_cycle = Get_system_register(AVR32_COUNT);
8000360e:	e1 b8 00 42 	mfsr	r8,0x108
  cpu_time->delay_end_cycle   = cpu_time->delay_start_cycle + delay;
80003612:	e0 6a 50 00 	mov	r10,20480
80003616:	ea 1a 00 c3 	orh	r10,0xc3
8000361a:	f0 0a 00 0a 	add	r10,r8,r10
8000361e:	c5 8b       	rjmp	800034ce <screen_Init+0x10e>
	
	cpu_delay_ms(200, BOARD_OSC0_HZ);

	_writeRegister(R61580_DRIVER_CONTROL, 0x0000  | (1 << SS));
80003620:	e0 6b 01 00 	mov	r11,256
80003624:	30 1c       	mov	r12,1
80003626:	f0 1f 00 59 	mcall	80003788 <screen_Init+0x3c8>
	_writeRegister(R61580_WAVE_CONTROL, 0x0200);
8000362a:	e0 6b 02 00 	mov	r11,512
8000362e:	30 2c       	mov	r12,2
80003630:	f0 1f 00 56 	mcall	80003788 <screen_Init+0x3c8>
	//_write(R61580_ENTRY_MODE, 0x0000 | (1 << ORG) | (1 << ID0) | (1 << AM));
	_writeRegister(R61580_ENTRY_MODE, 0x0000 | (1 << ID1) | (1 << ID0));
80003634:	33 0b       	mov	r11,48
80003636:	30 3c       	mov	r12,3
80003638:	f0 1f 00 54 	mcall	80003788 <screen_Init+0x3c8>
	_write(R61580_ENTRY_MODE, 0x0000 | (1 << ID0) | (1 << AM));
	#else
	_write(R61580_ENTRY_MODE, 0x0000 | (1 << ID1) | (1 << ID0));
	#endif*/
	
	_writeRegister(R61580_DISPLAY_CONTROL3, 0x0001);		//Scan Cycle
8000363c:	30 1b       	mov	r11,1
8000363e:	30 9c       	mov	r12,9
80003640:	f0 1f 00 52 	mcall	80003788 <screen_Init+0x3c8>
	_writeRegister(R61580_DISPLAY_CONTROL4, 0x0008);		//Sets output interval FMARK
80003644:	30 8b       	mov	r11,8
80003646:	30 ac       	mov	r12,10
80003648:	f0 1f 00 50 	mcall	80003788 <screen_Init+0x3c8>
	_writeRegister(R61580_INTERFACE_CONTROL1, 0x0000);	//Sets the interface format
8000364c:	30 0b       	mov	r11,0
8000364e:	30 cc       	mov	r12,12
80003650:	f0 1f 00 4e 	mcall	80003788 <screen_Init+0x3c8>
	_writeRegister(R61580_MARKER_POSITION, 0xD000);		//Sets the output position
80003654:	e0 6b d0 00 	mov	r11,53248
80003658:	30 dc       	mov	r12,13
8000365a:	f0 1f 00 4c 	mcall	80003788 <screen_Init+0x3c8>
	
	_writeRegister(R61580_VCOM, 0x0030);					//Sets equalize function control bit
8000365e:	33 0b       	mov	r11,48
80003660:	30 ec       	mov	r12,14
80003662:	f0 1f 00 4a 	mcall	80003788 <screen_Init+0x3c8>
	_writeRegister(R61580_INTEFACE_CONTROL2, 0x0000);	//Sets the signal polarity
80003666:	30 0b       	mov	r11,0
80003668:	30 fc       	mov	r12,15
8000366a:	f0 1f 00 48 	mcall	80003788 <screen_Init+0x3c8>
	_writeRegister(R61580_ADDRESS_HORIZONTAL, 0);
8000366e:	30 0b       	mov	r11,0
80003670:	32 0c       	mov	r12,32
80003672:	f0 1f 00 46 	mcall	80003788 <screen_Init+0x3c8>
	_writeRegister(R61580_ADDRESS_VERTICAL, 0);			//A frame memory address Set
80003676:	30 0b       	mov	r11,0
80003678:	32 1c       	mov	r12,33
8000367a:	f0 1f 00 44 	mcall	80003788 <screen_Init+0x3c8>
	
	_writeRegister(R61580_NVM_READ2, 0x002E);			// Selects the factor of VREG1OUT 0x77
8000367e:	32 eb       	mov	r11,46
80003680:	32 9c       	mov	r12,41
80003682:	f0 1f 00 42 	mcall	80003788 <screen_Init+0x3c8>
	
	_writeRegister(R61580_ADD_HSA, 0);				// Adresse window Horizontal frame Address (Start Address)
80003686:	30 0b       	mov	r11,0
80003688:	35 0c       	mov	r12,80
8000368a:	f0 1f 00 40 	mcall	80003788 <screen_Init+0x3c8>
	_writeRegister(R61580_ADD_HEA, SCREEN_HEIGHT);		// Adresse window Horizontal frame Address (End Address)
8000368e:	e0 6b 00 f0 	mov	r11,240
80003692:	35 1c       	mov	r12,81
80003694:	f0 1f 00 3d 	mcall	80003788 <screen_Init+0x3c8>
	_writeRegister(R61580_ADD_VEA, 0);				// Adresse window Vertical frame Address (Start Address)
80003698:	30 0b       	mov	r11,0
8000369a:	35 2c       	mov	r12,82
8000369c:	f0 1f 00 3b 	mcall	80003788 <screen_Init+0x3c8>
	_writeRegister(R61580_ADD_VSA, SCREEN_WIDTH);		// Adresse window Vertical frame Address (End Address)
800036a0:	e0 6b 01 40 	mov	r11,320
800036a4:	35 2c       	mov	r12,82
800036a6:	f0 1f 00 39 	mcall	80003788 <screen_Init+0x3c8>
	
	
	_writeRegister(R61580_BASE_IMAGE, (uint16_t) (1 << REV));	// Base image Display Control
800036aa:	30 1b       	mov	r11,1
800036ac:	36 1c       	mov	r12,97
800036ae:	f0 1f 00 37 	mcall	80003788 <screen_Init+0x3c8>
	_writeRegister(R61580_SCROLL_VERTICAL, 0x0000);
800036b2:	30 0b       	mov	r11,0
800036b4:	36 ac       	mov	r12,106
800036b6:	f0 1f 00 35 	mcall	80003788 <screen_Init+0x3c8>
	
	_writeRegister(R61580_PARTIAL_DISPLAY, 0x0000);		// Sets the display position of partial image
800036ba:	30 0b       	mov	r11,0
800036bc:	e0 6c 00 80 	mov	r12,128
800036c0:	f0 1f 00 32 	mcall	80003788 <screen_Init+0x3c8>
	_writeRegister(R61580_PARTIAL_FRAME1, 0x0000);		// Sets the start Line Address
800036c4:	30 0b       	mov	r11,0
800036c6:	e0 6c 00 81 	mov	r12,129
800036ca:	f0 1f 00 30 	mcall	80003788 <screen_Init+0x3c8>
	_writeRegister(R61580_PARTIAL_FRAME2, 0x005F);		// Sets the end Line Address
800036ce:	35 fb       	mov	r11,95
800036d0:	e0 6c 00 82 	mov	r12,130
800036d4:	f0 1f 00 2d 	mcall	80003788 <screen_Init+0x3c8>
	_writeRegister(R61580_PANEL_CONTROL3, 0x0701);		// Sets VCOM equalize period
800036d8:	e0 6b 07 01 	mov	r11,1793
800036dc:	e0 6c 00 93 	mov	r12,147
800036e0:	f0 1f 00 2a 	mcall	80003788 <screen_Init+0x3c8>
	
	_writeRegister(R61580_DISPLAY_CONTROL1, 0x0100);		//Display Control 1
800036e4:	e0 6b 01 00 	mov	r11,256
800036e8:	30 7c       	mov	r12,7
800036ea:	f0 1f 00 28 	mcall	80003788 <screen_Init+0x3c8>
	{
		.diva = AVR32_PWM_DIVA_CLK_OFF,
		.divb = AVR32_PWM_DIVB_CLK_OFF,
		.prea = AVR32_PWM_PREA_MCK,
		.preb = AVR32_PWM_PREB_MCK
	};
800036ee:	30 08       	mov	r8,0
800036f0:	50 88       	stdsp	sp[0x20],r8
800036f2:	50 98       	stdsp	sp[0x24],r8
800036f4:	50 a8       	stdsp	sp[0x28],r8
800036f6:	50 b8       	stdsp	sp[0x2c],r8
		
	volatile avr32_pwm_channel_t pwm_channel = { .ccnt = 0 };
800036f8:	30 0a       	mov	r10,0
800036fa:	30 0b       	mov	r11,0
800036fc:	fa eb 00 00 	st.d	sp[0],r10
80003700:	fa c9 ff f8 	sub	r9,sp,-8
80003704:	f2 eb 00 00 	st.d	r9[0],r10
80003708:	fa c9 ff f0 	sub	r9,sp,-16
8000370c:	f2 eb 00 00 	st.d	r9[0],r10
80003710:	fa c9 ff e8 	sub	r9,sp,-24
80003714:	f2 eb 00 00 	st.d	r9[0],r10

	// With these settings, the output waveform period will be:
	// (115200/256)/20 == 22.5Hz == (MCK/prescaler)/period, with
	// MCK == 115200Hz, prescaler == 256, period == 20. 

	pwm_channel.cdty = 1; // Channel duty cycle, should be < CPRD. 
80003718:	30 1b       	mov	r11,1
8000371a:	50 1b       	stdsp	sp[0x4],r11
	pwm_channel.cprd = 20; // Channel period. 
8000371c:	31 49       	mov	r9,20
8000371e:	50 29       	stdsp	sp[0x8],r9
	pwm_channel.cupd = 0; // Channel update is not used here. 
80003720:	50 48       	stdsp	sp[0x10],r8
	pwm_channel.CMR.calg = PWM_MODE_LEFT_ALIGNED; // Channel mode. 
80003722:	40 09       	lddsp	r9,sp[0x0]
80003724:	f3 d8 d1 01 	bfins	r9,r8,0x8,0x1
80003728:	50 09       	stdsp	sp[0x0],r9
	pwm_channel.CMR.cpol = PWM_POLARITY_LOW;      // Channel polarity. 
8000372a:	40 09       	lddsp	r9,sp[0x0]
8000372c:	f3 d8 d1 21 	bfins	r9,r8,0x9,0x1
80003730:	50 09       	stdsp	sp[0x0],r9
	pwm_channel.CMR.cpd = PWM_UPDATE_DUTY;        // Not used the first time. 
80003732:	40 09       	lddsp	r9,sp[0x0]
80003734:	f3 d8 d1 41 	bfins	r9,r8,0xa,0x1
80003738:	50 09       	stdsp	sp[0x0],r9
	pwm_channel.CMR.cpre = AVR32_PWM_CPRE_MCK_DIV_32; // Channel prescaler. 
8000373a:	40 08       	lddsp	r8,sp[0x0]
8000373c:	30 57       	mov	r7,5
8000373e:	f1 d7 d0 04 	bfins	r8,r7,0x0,0x4
80003742:	50 08       	stdsp	sp[0x0],r8
	
	// Enable the alternative mode of the output pin to connect it to the PWM
	// module within the device. 
	gpio_enable_module_pin(PIN_PWM_TFT, FCT_PWM_TFT);
80003744:	33 cc       	mov	r12,60
80003746:	f0 1f 00 12 	mcall	8000378c <screen_Init+0x3cc>

	// Initialize the PWM module. 
	pwm_init(&pwm_opt);
8000374a:	fa cc ff e0 	sub	r12,sp,-32
8000374e:	f0 1f 00 11 	mcall	80003790 <screen_Init+0x3d0>

	// Set channel configuration to channel 0. 
	pwm_channel_init(5, &pwm_channel);
80003752:	1a 9b       	mov	r11,sp
80003754:	0e 9c       	mov	r12,r7
80003756:	f0 1f 00 10 	mcall	80003794 <screen_Init+0x3d4>

	// Start channel 0. 
	pwm_start_channels(1 << 5);
8000375a:	32 0c       	mov	r12,32
8000375c:	f0 1f 00 0f 	mcall	80003798 <screen_Init+0x3d8>
	spi_setupChipReg(AVR32_SPI0_ADDRESS, &screenOptions, BOARD_OSC0_HZ);

	_reset();
	_powerUp();
	_setPWM();
}
80003760:	2e 8d       	sub	sp,-96
80003762:	e3 cd 80 80 	ldm	sp++,r7,pc
80003766:	00 00       	add	r0,r0
80003768:	80 00       	ld.sh	r0,r0[0x0]
8000376a:	74 28       	ld.w	r8,r10[0x8]
8000376c:	80 00       	ld.sh	r0,r0[0x0]
8000376e:	74 48       	ld.w	r8,r10[0x10]
80003770:	80 00       	ld.sh	r0,r0[0x0]
80003772:	20 64       	sub	r4,6
80003774:	80 00       	ld.sh	r0,r0[0x0]
80003776:	24 46       	sub	r6,68
80003778:	80 00       	ld.sh	r0,r0[0x0]
8000377a:	25 a8       	sub	r8,90
8000377c:	80 00       	ld.sh	r0,r0[0x0]
8000377e:	24 f0       	sub	r0,79
80003780:	80 00       	ld.sh	r0,r0[0x0]
80003782:	21 1e       	sub	lr,17
80003784:	80 00       	ld.sh	r0,r0[0x0]
80003786:	21 02       	sub	r2,16
80003788:	80 00       	ld.sh	r0,r0[0x0]
8000378a:	31 80       	mov	r0,24
8000378c:	80 00       	ld.sh	r0,r0[0x0]
8000378e:	20 12       	sub	r2,1
80003790:	80 00       	ld.sh	r0,r0[0x0]
80003792:	23 e0       	sub	r0,62
80003794:	80 00       	ld.sh	r0,r0[0x0]
80003796:	23 98       	sub	r8,57
80003798:	80 00       	ld.sh	r0,r0[0x0]
8000379a:	23 ce       	sub	lr,60

8000379c <vector2_Add>:
 *  Author: voletqu
 */ 

#include "vector2.h"

Vector2 vector2_Add(Vector2 v1, Vector2 v2){
8000379c:	eb cd 00 10 	pushm	r4
800037a0:	fa c4 ff fc 	sub	r4,sp,-4
	return (Vector2){.x = v1.x + v2.x,
800037a4:	09 ea       	ld.ub	r10,r4[0x6]
800037a6:	09 a9       	ld.ub	r9,r4[0x2]
800037a8:	f4 09 00 09 	add	r9,r10,r9
800037ac:	88 2b       	ld.sh	r11,r4[0x4]
800037ae:	88 0a       	ld.sh	r10,r4[0x0]
800037b0:	f6 0a 00 0a 	add	r10,r11,r10
800037b4:	b8 0a       	st.h	r12[0x0],r10
800037b6:	b8 a9       	st.b	r12[0x2],r9
					 .y = v1.y + v2.y};
800037b8:	e3 cd 00 10 	ldm	sp++,r4
800037bc:	5e fc       	retal	r12
800037be:	d7 03       	nop

800037c0 <twi_init>:
	INTC_register_interrupt (&tc0_irq, AVR32_TC_IRQ0, AVR32_INTC_INT1);
}


// RTC TWI configuration
void twi_init(void){
800037c0:	eb cd 40 80 	pushm	r7,lr
800037c4:	20 7d       	sub	sp,28
	gpio_set_gpio_pin(PIN_RTC_RST);
800037c6:	31 fc       	mov	r12,31
800037c8:	f0 1f 00 13 	mcall	80003814 <twi_init+0x54>
	gpio_set_gpio_pin(PIN_SDA);
800037cc:	31 dc       	mov	r12,29
800037ce:	f0 1f 00 12 	mcall	80003814 <twi_init+0x54>
	//cpu_delay_ms(500, BOARD_OSC0_HZ); // Test function
	gpio_clr_gpio_pin(PIN_RTC_RST);
800037d2:	31 fc       	mov	r12,31
800037d4:	f0 1f 00 11 	mcall	80003818 <twi_init+0x58>
	twi_options_t i2c_options =
	{
		.pba_hz = BOARD_OSC0_HZ,		// Vitesse du microcontrleur 
		.speed = TWI_MASTER_SPEED,		// Vitesse de transmission 100-400KHz
		.chip = (RTC_ADDRESS_WRITE >> 1)// Adresse du slave
	};
800037d8:	49 18       	lddpc	r8,8000381c <twi_init+0x5c>
800037da:	fa c7 ff f0 	sub	r7,sp,-16
800037de:	f0 ea 00 00 	ld.d	r10,r8[0]
800037e2:	ee eb 00 00 	st.d	r7[0],r10
800037e6:	70 28       	ld.w	r8,r8[0x8]
800037e8:	8f 28       	st.w	r7[0x8],r8
	// Assign I/Os to TWI.
	const gpio_map_t TWI_GPIO_MAP =
	{
		{PIN_SCL, FCT_SCL},	// TWI Clock.
		{PIN_SDA, FCT_SDA}	// TWI Data.
	};
800037ea:	48 e8       	lddpc	r8,80003820 <twi_init+0x60>
800037ec:	1a 9c       	mov	r12,sp
800037ee:	f0 ea 00 00 	ld.d	r10,r8[0]
800037f2:	fa eb 00 00 	st.d	sp[0],r10
800037f6:	f0 e8 00 08 	ld.d	r8,r8[8]
800037fa:	fa e9 00 08 	st.d	sp[8],r8
	gpio_enable_module(TWI_GPIO_MAP, sizeof(TWI_GPIO_MAP) / sizeof(TWI_GPIO_MAP[0]));
800037fe:	30 2b       	mov	r11,2
80003800:	f0 1f 00 09 	mcall	80003824 <twi_init+0x64>
	twi_master_init(&AVR32_TWI, &i2c_options);
80003804:	0e 9b       	mov	r11,r7
80003806:	fe 7c 2c 00 	mov	r12,-54272
8000380a:	f0 1f 00 08 	mcall	80003828 <twi_init+0x68>
8000380e:	2f 9d       	sub	sp,-28
80003810:	e3 cd 80 80 	ldm	sp++,r7,pc
80003814:	80 00       	ld.sh	r0,r0[0x0]
80003816:	21 02       	sub	r2,16
80003818:	80 00       	ld.sh	r0,r0[0x0]
8000381a:	21 1e       	sub	lr,17
8000381c:	80 00       	ld.sh	r0,r0[0x0]
8000381e:	74 98       	ld.w	r8,r10[0x24]
80003820:	80 00       	ld.sh	r0,r0[0x0]
80003822:	74 58       	ld.w	r8,r10[0x14]
80003824:	80 00       	ld.sh	r0,r0[0x0]
80003826:	20 64       	sub	r4,6
80003828:	80 00       	ld.sh	r0,r0[0x0]
8000382a:	28 20       	sub	r0,-126

8000382c <spi_init>:
	gpio_configure_group(1, 0x0000FFFF, GPIO_DIR_OUTPUT);
}



void spi_init(void) {
8000382c:	eb cd 40 80 	pushm	r7,lr
80003830:	20 cd       	sub	sp,48
	{
		{ PIN_NPCS_DA, FCT_NPCS_DA },
		{ PIN_SCK_SPI1, FCT_SCK_SPI1   },
		{ PIN_MISO_SPI1, FCT_MISO_SPI1 },
		{ PIN_MOSI_SPI1, FCT_MOSI_SPI1 }
	};
80003832:	49 b8       	lddpc	r8,8000389c <spi_init+0x70>
80003834:	fa cc ff f0 	sub	r12,sp,-16
80003838:	f0 ea 00 00 	ld.d	r10,r8[0]
8000383c:	f8 eb 00 00 	st.d	r12[0],r10
80003840:	f0 ea 00 08 	ld.d	r10,r8[8]
80003844:	f8 eb 00 08 	st.d	r12[8],r10
80003848:	f0 ea 00 10 	ld.d	r10,r8[16]
8000384c:	f8 eb 00 10 	st.d	r12[16],r10
80003850:	f0 e8 00 18 	ld.d	r8,r8[24]
80003854:	f8 e9 00 18 	st.d	r12[24],r8
		.spck_delay		= 	0,					// Delay entre CS et SPCK.
		.trans_delay	= 	0,					// Delay entre deux transfert.
		.stay_act		=	1,					// ?
		.spi_mode		= 	1,					// CPOL = 0 / NCPHA = 0 => mode = 1
		.modfdis		=	1					// ?
	};
80003858:	49 28       	lddpc	r8,800038a0 <spi_init+0x74>
8000385a:	1a 97       	mov	r7,sp
8000385c:	f0 ea 00 00 	ld.d	r10,r8[0]
80003860:	fa eb 00 00 	st.d	sp[0],r10
80003864:	f0 e8 00 08 	ld.d	r8,r8[8]
80003868:	fa e9 00 08 	st.d	sp[8],r8
	
	// Assigning IOs to SPI
	gpio_enable_module(DA2_SPI1_GPIO_MAP, sizeof (DA2_SPI1_GPIO_MAP)/ sizeof(DA2_SPI1_GPIO_MAP[0]));
8000386c:	30 4b       	mov	r11,4
8000386e:	f0 1f 00 0e 	mcall	800038a4 <spi_init+0x78>
	
	// Initializing SPI as master
	spi_initMaster((volatile avr32_spi_t*)AVR32_SPI1_ADDRESS, &spiOptionsDA2);
80003872:	1a 9b       	mov	r11,sp
80003874:	fe 7c 28 00 	mov	r12,-55296
80003878:	f0 1f 00 0c 	mcall	800038a8 <spi_init+0x7c>
	
	// Initializes volume control DAC
	spi_setupChipReg((volatile avr32_spi_t*)AVR32_SPI1_ADDRESS, &spiOptionsDA2, BOARD_OSC0_HZ);
8000387c:	e0 6a 90 00 	mov	r10,36864
80003880:	ea 1a 03 d0 	orh	r10,0x3d0
80003884:	1a 9b       	mov	r11,sp
80003886:	fe 7c 28 00 	mov	r12,-55296
8000388a:	f0 1f 00 09 	mcall	800038ac <spi_init+0x80>
	
	spi_enable((volatile avr32_spi_t*)AVR32_SPI1_ADDRESS);
8000388e:	fe 7c 28 00 	mov	r12,-55296
80003892:	f0 1f 00 08 	mcall	800038b0 <spi_init+0x84>
	
}
80003896:	2f 4d       	sub	sp,-48
80003898:	e3 cd 80 80 	ldm	sp++,r7,pc
8000389c:	80 00       	ld.sh	r0,r0[0x0]
8000389e:	74 78       	ld.w	r8,r10[0x1c]
800038a0:	80 00       	ld.sh	r0,r0[0x0]
800038a2:	74 68       	ld.w	r8,r10[0x18]
800038a4:	80 00       	ld.sh	r0,r0[0x0]
800038a6:	20 64       	sub	r4,6
800038a8:	80 00       	ld.sh	r0,r0[0x0]
800038aa:	24 46       	sub	r6,68
800038ac:	80 00       	ld.sh	r0,r0[0x0]
800038ae:	24 f0       	sub	r0,79
800038b0:	80 00       	ld.sh	r0,r0[0x0]
800038b2:	25 a8       	sub	r8,90

800038b4 <board_init>:
#define TWI_MASTER_SPEED 100000
#define RTC_ADDRESS_WRITE 0xD0



void board_init(void) {
800038b4:	d4 01       	pushm	lr
	sysclk_init();
800038b6:	f0 1f 00 09 	mcall	800038d8 <board_init+0x24>
	
	Disable_global_interrupt();
800038ba:	d3 03       	ssrf	0x10
	// Configuration des vecteurs d'interruption:
	// Initialize and enable interrupt
	irq_initialize_vectors();
800038bc:	f0 1f 00 08 	mcall	800038dc <board_init+0x28>
	cpu_irq_enable();
800038c0:	d5 03       	csrf	0x10
	
	twi_init();
800038c2:	f0 1f 00 08 	mcall	800038e0 <board_init+0x2c>
	spi_init();
800038c6:	f0 1f 00 08 	mcall	800038e4 <board_init+0x30>
	//tc0_init();
	//tc1_init();
	// Configuring PB0-15
	gpio_configure_group(1, 0x0000FFFF, GPIO_DIR_OUTPUT);
800038ca:	30 1a       	mov	r10,1
800038cc:	e0 6b ff ff 	mov	r11,65535
800038d0:	14 9c       	mov	r12,r10
800038d2:	f0 1f 00 06 	mcall	800038e8 <board_init+0x34>
}
800038d6:	d8 02       	popm	pc
800038d8:	80 00       	ld.sh	r0,r0[0x0]
800038da:	3b b4       	mov	r4,-69
800038dc:	80 00       	ld.sh	r0,r0[0x0]
800038de:	21 bc       	sub	r12,27
800038e0:	80 00       	ld.sh	r0,r0[0x0]
800038e2:	37 c0       	mov	r0,124
800038e4:	80 00       	ld.sh	r0,r0[0x0]
800038e6:	38 2c       	mov	r12,-126
800038e8:	80 00       	ld.sh	r0,r0[0x0]
800038ea:	20 94       	sub	r4,9

800038ec <mainGauche>:
#include "RTC/rtc.h"
#include "mainGauche.h"

//volatile uint32_t ram = 0;

void mainGauche(void){
800038ec:	eb cd 40 80 	pushm	r7,lr
800038f0:	20 5d       	sub	sp,20
	
	board_init();
800038f2:	f0 1f 00 26 	mcall	80003988 <mainGauche+0x9c>
	screen_Init();
800038f6:	f0 1f 00 26 	mcall	8000398c <mainGauche+0xa0>
	gui_loadingScreen();
800038fa:	f0 1f 00 26 	mcall	80003990 <mainGauche+0xa4>
	screen_SetPixels(Rect(0,0,320,240), (Color){BLACK});
800038fe:	30 07       	mov	r7,0
80003900:	50 07       	stdsp	sp[0x0],r7
80003902:	e0 68 00 f0 	mov	r8,240
80003906:	e0 69 01 40 	mov	r9,320
8000390a:	0e 9a       	mov	r10,r7
8000390c:	0e 9b       	mov	r11,r7
8000390e:	fa cc ff fc 	sub	r12,sp,-4
80003912:	f0 1f 00 21 	mcall	80003994 <mainGauche+0xa8>
80003916:	40 08       	lddsp	r8,sp[0x0]
80003918:	1a d8       	st.w	--sp,r8
8000391a:	fa e8 00 08 	ld.d	r8,sp[8]
8000391e:	bb 29       	st.d	--sp,r8
80003920:	f0 1f 00 1e 	mcall	80003998 <mainGauche+0xac>
	
	
	gfx_BeginNewTerminal((Vector2){20,220});
80003924:	30 4a       	mov	r10,4
80003926:	49 eb       	lddpc	r11,8000399c <mainGauche+0xb0>
80003928:	fa cc ff e8 	sub	r12,sp,-24
8000392c:	f0 1f 00 1d 	mcall	800039a0 <mainGauche+0xb4>
80003930:	40 68       	lddsp	r8,sp[0x18]
80003932:	1a d8       	st.w	--sp,r8
80003934:	f0 1f 00 1c 	mcall	800039a4 <mainGauche+0xb8>
	gfx_AddLineToTerminal("Heure : ", 8, (Color){WHITE}, 0);
80003938:	50 87       	stdsp	sp[0x20],r7
8000393a:	3f f8       	mov	r8,-1
8000393c:	fb 58 00 20 	st.h	sp[32],r8
80003940:	40 88       	lddsp	r8,sp[0x20]
80003942:	1a d8       	st.w	--sp,r8
80003944:	0e 9a       	mov	r10,r7
80003946:	30 8b       	mov	r11,8
80003948:	49 8c       	lddpc	r12,800039a8 <mainGauche+0xbc>
8000394a:	f0 1f 00 19 	mcall	800039ac <mainGauche+0xc0>
8000394e:	2f bd       	sub	sp,-20
80003950:	e0 67 90 00 	mov	r7,36864
80003954:	ea 17 03 d0 	orh	r7,0x3d0
	while(1){
		
		rtc_getTime();
80003958:	f0 1f 00 16 	mcall	800039b0 <mainGauche+0xc4>
 * \param  delay:   (input) delay in CPU cycles before timeout.
 * \param  cpu_time: (output) internal information used by the timer API.
 */
__always_inline static void cpu_set_timeout(unsigned long delay, t_cpu_time *cpu_time)
{
  cpu_time->delay_start_cycle = Get_system_register(AVR32_COUNT);
8000395c:	e1 b8 00 42 	mfsr	r8,0x108
  cpu_time->delay_end_cycle   = cpu_time->delay_start_cycle + delay;
80003960:	f0 07 00 0a 	add	r10,r8,r7
 *
 * \return true if timeout occurred, otherwise false.
 */
__always_inline static unsigned long cpu_is_timeout(t_cpu_time *cpu_time)
{
  unsigned long current_cycle_count = Get_system_register(AVR32_COUNT);
80003964:	e1 b9 00 42 	mfsr	r9,0x108
  // Test if the timeout as already occurred.
  else if (cpu_time->timer_state == CPU_TIMER_STATE_REACHED)
    return true;

  // If the ending cycle count of this timeout is wrapped, ...
  else if (cpu_time->delay_start_cycle > cpu_time->delay_end_cycle)
80003968:	14 38       	cp.w	r8,r10
8000396a:	e0 88 00 08 	brls	8000397a <mainGauche+0x8e>
  {
    if (current_cycle_count < cpu_time->delay_start_cycle && current_cycle_count > cpu_time->delay_end_cycle)
8000396e:	12 38       	cp.w	r8,r9
80003970:	fe 98 ff fa 	brls	80003964 <mainGauche+0x78>
80003974:	12 3a       	cp.w	r10,r9
80003976:	cf 13       	brcs	80003958 <mainGauche+0x6c>
80003978:	cf 6b       	rjmp	80003964 <mainGauche+0x78>
    }
    return false;
  }
  else
  {
    if (current_cycle_count < cpu_time->delay_start_cycle || current_cycle_count > cpu_time->delay_end_cycle)
8000397a:	12 38       	cp.w	r8,r9
8000397c:	fe 9b ff ee 	brhi	80003958 <mainGauche+0x6c>
80003980:	12 3a       	cp.w	r10,r9
80003982:	ce b3       	brcs	80003958 <mainGauche+0x6c>
80003984:	cf 0b       	rjmp	80003964 <mainGauche+0x78>
80003986:	00 00       	add	r0,r0
80003988:	80 00       	ld.sh	r0,r0[0x0]
8000398a:	38 b4       	mov	r4,-117
8000398c:	80 00       	ld.sh	r0,r0[0x0]
8000398e:	33 c0       	mov	r0,60
80003990:	80 00       	ld.sh	r0,r0[0x0]
80003992:	2f 40       	sub	r0,-12
80003994:	80 00       	ld.sh	r0,r0[0x0]
80003996:	31 70       	mov	r0,23
80003998:	80 00       	ld.sh	r0,r0[0x0]
8000399a:	32 e4       	mov	r4,46
8000399c:	80 00       	ld.sh	r0,r0[0x0]
8000399e:	74 a4       	ld.w	r4,r10[0x28]
800039a0:	80 00       	ld.sh	r0,r0[0x0]
800039a2:	3c 54       	mov	r4,-59
800039a4:	80 00       	ld.sh	r0,r0[0x0]
800039a6:	28 f8       	sub	r8,-113
800039a8:	80 00       	ld.sh	r0,r0[0x0]
800039aa:	74 a8       	ld.w	r8,r10[0x28]
800039ac:	80 00       	ld.sh	r0,r0[0x0]
800039ae:	2d 34       	sub	r4,-45
800039b0:	80 00       	ld.sh	r0,r0[0x0]
800039b2:	3a 30       	mov	r0,-93

800039b4 <rtc_write>:
 * Description
 *
 * Created 16.11.17 MLN
 * Last modified 16.11.17 MLN
 */
void rtc_write(uint8_t firstRegister, uint8_t dataNumber){
800039b4:	d4 01       	pushm	lr
800039b6:	20 4d       	sub	sp,16
		.addr[1] = 0,
		.addr[2] = 0,
		.addr_length = 1,
		.buffer = &sentData,
		.length = dataNumber,
	};
800039b8:	36 88       	mov	r8,104
800039ba:	ba 88       	st.b	sp[0x0],r8
800039bc:	ba 9c       	st.b	sp[0x1],r12
800039be:	30 08       	mov	r8,0
800039c0:	ba a8       	st.b	sp[0x2],r8
800039c2:	ba b8       	st.b	sp[0x3],r8
800039c4:	30 18       	mov	r8,1
800039c6:	50 18       	stdsp	sp[0x4],r8
800039c8:	48 58       	lddpc	r8,800039dc <rtc_write+0x28>
800039ca:	50 28       	stdsp	sp[0x8],r8
800039cc:	50 3b       	stdsp	sp[0xc],r11
	
	twi_master_write(RTC_TWI, &writePacket);
800039ce:	1a 9b       	mov	r11,sp
800039d0:	fe 7c 2c 00 	mov	r12,-54272
800039d4:	f0 1f 00 03 	mcall	800039e0 <rtc_write+0x2c>
}
800039d8:	2f cd       	sub	sp,-16
800039da:	d8 02       	popm	pc
800039dc:	00 00       	add	r0,r0
800039de:	01 10       	ld.sh	r0,r0++
800039e0:	80 00       	ld.sh	r0,r0[0x0]
800039e2:	26 b8       	sub	r8,107

800039e4 <rtc_read>:
 * Description
 *
 * Created 15.11.17 MLN
 * Last modified 15.11.17 MLN
 */
void rtc_read(uint8_t firstRegister, uint8_t dataNumber){
800039e4:	d4 01       	pushm	lr
800039e6:	20 4d       	sub	sp,16
	
	for (uint8_t i = 0; i < dataNumber; i++){
800039e8:	58 0b       	cp.w	r11,0
800039ea:	c0 c0       	breq	80003a02 <rtc_read+0x1e>
800039ec:	48 f8       	lddpc	r8,80003a28 <rtc_read+0x44>
 * Description
 *
 * Created 15.11.17 MLN
 * Last modified 15.11.17 MLN
 */
void rtc_read(uint8_t firstRegister, uint8_t dataNumber){
800039ee:	f0 ca ff ff 	sub	r10,r8,-1
800039f2:	f6 c9 00 01 	sub	r9,r11,1
800039f6:	5c 59       	castu.b	r9
800039f8:	12 0a       	add	r10,r9
	
	for (uint8_t i = 0; i < dataNumber; i++){
		buffer[i] = 0;
800039fa:	30 09       	mov	r9,0
800039fc:	10 c9       	st.b	r8++,r9
 * Created 15.11.17 MLN
 * Last modified 15.11.17 MLN
 */
void rtc_read(uint8_t firstRegister, uint8_t dataNumber){
	
	for (uint8_t i = 0; i < dataNumber; i++){
800039fe:	14 38       	cp.w	r8,r10
80003a00:	cf e1       	brne	800039fc <rtc_read+0x18>
		.addr[1] = 0,
		.addr[2] = 0,
		.addr_length = 1,
		.buffer = &buffer,
		.length = dataNumber,
	};
80003a02:	36 88       	mov	r8,104
80003a04:	ba 88       	st.b	sp[0x0],r8
80003a06:	ba 9c       	st.b	sp[0x1],r12
80003a08:	30 08       	mov	r8,0
80003a0a:	ba a8       	st.b	sp[0x2],r8
80003a0c:	ba b8       	st.b	sp[0x3],r8
80003a0e:	30 18       	mov	r8,1
80003a10:	50 18       	stdsp	sp[0x4],r8
80003a12:	48 68       	lddpc	r8,80003a28 <rtc_read+0x44>
80003a14:	50 28       	stdsp	sp[0x8],r8
80003a16:	50 3b       	stdsp	sp[0xc],r11
	
	twi_master_read(RTC_TWI, &readPacket);
80003a18:	1a 9b       	mov	r11,sp
80003a1a:	fe 7c 2c 00 	mov	r12,-54272
80003a1e:	f0 1f 00 04 	mcall	80003a2c <rtc_read+0x48>
}
80003a22:	2f cd       	sub	sp,-16
80003a24:	d8 02       	popm	pc
80003a26:	00 00       	add	r0,r0
80003a28:	00 00       	add	r0,r0
80003a2a:	01 00       	ld.w	r0,r0++
80003a2c:	80 00       	ld.sh	r0,r0[0x0]
80003a2e:	27 68       	sub	r8,118

80003a30 <rtc_getTime>:
 * Description
 *
 * Created 15.11.17 MLN
 * Last modified 15.11.17 MLN
 */
void rtc_getTime(void){
80003a30:	d4 21       	pushm	r4-r7,lr
80003a32:	20 3d       	sub	sp,12
	volatile uint8_t status = 0;
80003a34:	30 08       	mov	r8,0
80003a36:	ba f8       	st.b	sp[0x7],r8
 *
 * \param twi         Base address of the TWI instance.
 */
static inline void twi_master_enable(volatile avr32_twi_t *twi)
{
	twi->cr = AVR32_TWI_CR_MSEN_MASK;;
80003a38:	30 47       	mov	r7,4
80003a3a:	fe 78 2c 00 	mov	r8,-54272
80003a3e:	91 07       	st.w	r8[0x0],r7
	char stringOutput[7];
	
	twi_master_enable(RTC_TWI);
	sentData[0] = 0x10;
80003a40:	4d 78       	lddpc	r8,80003b9c <rtc_getTime+0x16c>
80003a42:	31 09       	mov	r9,16
80003a44:	b0 89       	st.b	r8[0x0],r9
	sentData[1] = 0x17;
80003a46:	31 79       	mov	r9,23
80003a48:	b0 99       	st.b	r8[0x1],r9
	sentData[2] = 0x19;
80003a4a:	31 99       	mov	r9,25
80003a4c:	b0 a9       	st.b	r8[0x2],r9
	sentData[3] = 0x03;
80003a4e:	30 39       	mov	r9,3
80003a50:	b0 b9       	st.b	r8[0x3],r9
	rtc_write(RTC_SECONDS, 4);
80003a52:	0e 9b       	mov	r11,r7
80003a54:	30 0c       	mov	r12,0
80003a56:	f0 1f 00 53 	mcall	80003ba0 <rtc_getTime+0x170>
	rtc_read(RTC_SECONDS, 4);
80003a5a:	0e 9b       	mov	r11,r7
80003a5c:	30 0c       	mov	r12,0
80003a5e:	f0 1f 00 52 	mcall	80003ba4 <rtc_getTime+0x174>
	
	currentTime.seconds = buffer[0];
80003a62:	4d 28       	lddpc	r8,80003ba8 <rtc_getTime+0x178>
80003a64:	11 8e       	ld.ub	lr,r8[0x0]
80003a66:	fd de c0 07 	bfextu	lr,lr,0x0,0x7
	currentTime.minutes = buffer[1];
80003a6a:	11 9b       	ld.ub	r11,r8[0x1]
80003a6c:	f7 db c0 07 	bfextu	r11,r11,0x0,0x7
	currentTime.hours	= buffer[2];
80003a70:	11 ac       	ld.ub	r12,r8[0x2]
	currentTime.day		= buffer[3];
80003a72:	11 b7       	ld.ub	r7,r8[0x3]
80003a74:	ef d7 c0 03 	bfextu	r7,r7,0x0,0x3
80003a78:	4c d8       	lddpc	r8,80003bac <rtc_getTime+0x17c>
80003a7a:	11 b9       	ld.ub	r9,r8[0x3]
80003a7c:	f3 d7 d0 a3 	bfins	r9,r7,0x5,0x3
80003a80:	b0 b9       	st.b	r8[0x3],r9
	
	//Converting fetched data to decimal
	currentTime.seconds = 10 * (currentTime.seconds >> 4) + (currentTime.seconds & 0x0F);
80003a82:	fc 09 16 04 	lsr	r9,lr,0x4
80003a86:	f2 09 00 29 	add	r9,r9,r9<<0x2
80003a8a:	fd de c0 04 	bfextu	lr,lr,0x0,0x4
80003a8e:	fc 09 00 19 	add	r9,lr,r9<<0x1
80003a92:	f3 d9 c0 07 	bfextu	r9,r9,0x0,0x7
80003a96:	11 ea       	ld.ub	r10,r8[0x6]
80003a98:	f5 d9 d0 27 	bfins	r10,r9,0x1,0x7
80003a9c:	b0 ea       	st.b	r8[0x6],r10
	
	currentTime.minutes = 10 * (currentTime.minutes >> 4) + (currentTime.minutes & 0x0F);
80003a9e:	f6 0a 16 04 	lsr	r10,r11,0x4
80003aa2:	f4 0a 00 2a 	add	r10,r10,r10<<0x2
80003aa6:	f7 db c0 04 	bfextu	r11,r11,0x0,0x4
80003aaa:	f6 0a 00 1a 	add	r10,r11,r10<<0x1
80003aae:	f5 da c0 07 	bfextu	r10,r10,0x0,0x7
80003ab2:	11 db       	ld.ub	r11,r8[0x5]
80003ab4:	f7 da d0 27 	bfins	r11,r10,0x1,0x7
80003ab8:	b0 db       	st.b	r8[0x5],r11
	
	currentTime.hours	= 10 * ((currentTime.hours & 0x30) >> 4) + (currentTime.hours & 0x0F);
80003aba:	f7 dc c0 82 	bfextu	r11,r12,0x4,0x2
80003abe:	f6 0b 00 2b 	add	r11,r11,r11<<0x2
80003ac2:	f9 dc c0 04 	bfextu	r12,r12,0x0,0x4
80003ac6:	f8 0b 00 1b 	add	r11,r12,r11<<0x1
80003aca:	f7 db c0 07 	bfextu	r11,r11,0x0,0x7
80003ace:	11 cc       	ld.ub	r12,r8[0x4]
80003ad0:	f9 db d0 27 	bfins	r12,r11,0x1,0x7
80003ad4:	b0 cc       	st.b	r8[0x4],r12
	// We don't need to convert the day number
	currentTime.date	= 10 * (currentTime.date >> 4) + (currentTime.date & 0x0F);
80003ad6:	11 ac       	ld.ub	r12,r8[0x2]
80003ad8:	f8 0e 16 02 	lsr	lr,r12,0x2
80003adc:	fc 06 16 04 	lsr	r6,lr,0x4
80003ae0:	ec 06 00 26 	add	r6,r6,r6<<0x2
80003ae4:	fd de c0 04 	bfextu	lr,lr,0x0,0x4
80003ae8:	fc 06 00 16 	add	r6,lr,r6<<0x1
80003aec:	f9 d6 d0 46 	bfins	r12,r6,0x2,0x6
80003af0:	b0 ac       	st.b	r8[0x2],r12
	// Since a bit in the month register indicates the century, we compute years before months
	currentTime.year	= 100 * ((currentTime.month & 0x80) >> 7) * (currentTime.year >> 4) + (currentTime.year & 0x0F);
80003af2:	11 8e       	ld.ub	lr,r8[0x0]
80003af4:	11 9c       	ld.ub	r12,r8[0x1]
80003af6:	f8 05 16 07 	lsr	r5,r12,0x7
80003afa:	fc 06 16 04 	lsr	r6,lr,0x4
80003afe:	ea 06 02 46 	mul	r6,r5,r6
80003b02:	ec 06 10 64 	mul	r6,r6,100
80003b06:	fd de c0 04 	bfextu	lr,lr,0x0,0x4
80003b0a:	ec 0e 00 0e 	add	lr,r6,lr
80003b0e:	b0 8e       	st.b	r8[0x0],lr
	
	currentTime.month	= 10 * ((currentTime.month & 0x10) >> 4) + (currentTime.month & 0x0F);
80003b10:	fd dc c0 81 	bfextu	lr,r12,0x4,0x1
80003b14:	fc 06 15 02 	lsl	r6,lr,0x2
80003b18:	0c 0e       	add	lr,r6
80003b1a:	f9 dc c0 04 	bfextu	r12,r12,0x0,0x4
80003b1e:	f8 0e 00 1c 	add	r12,r12,lr<<0x1
80003b22:	b0 9c       	st.b	r8[0x1],r12
	
	stringOutput[0] = currentTime.hours / 10 + 48;
80003b24:	e0 68 66 67 	mov	r8,26215
80003b28:	ea 18 66 66 	orh	r8,0x6666
80003b2c:	f6 08 04 44 	muls.d	r4,r11,r8
80003b30:	ea 0c 14 02 	asr	r12,r5,0x2
80003b34:	f8 ce ff d0 	sub	lr,r12,-48
80003b38:	ba 8e       	st.b	sp[0x0],lr
	stringOutput[1] = currentTime.hours % 10 + 48;
80003b3a:	f8 0c 00 2c 	add	r12,r12,r12<<0x2
80003b3e:	f6 0c 01 1b 	sub	r11,r11,r12<<0x1
80003b42:	2d 0b       	sub	r11,-48
80003b44:	ba 9b       	st.b	sp[0x1],r11
	stringOutput[2] = currentTime.minutes / 10 + 48;
80003b46:	f4 08 04 44 	muls.d	r4,r10,r8
80003b4a:	ea 0b 14 02 	asr	r11,r5,0x2
80003b4e:	f6 cc ff d0 	sub	r12,r11,-48
80003b52:	ba ac       	st.b	sp[0x2],r12
	stringOutput[3] = currentTime.minutes % 10 + 48;
80003b54:	f6 0b 00 2b 	add	r11,r11,r11<<0x2
80003b58:	f4 0b 01 1a 	sub	r10,r10,r11<<0x1
80003b5c:	2d 0a       	sub	r10,-48
80003b5e:	ba ba       	st.b	sp[0x3],r10
	stringOutput[4] = currentTime.seconds / 10 + 48;
80003b60:	f2 08 04 4a 	muls.d	r10,r9,r8
80003b64:	f6 08 14 02 	asr	r8,r11,0x2
80003b68:	f0 ca ff d0 	sub	r10,r8,-48
80003b6c:	ba ca       	st.b	sp[0x4],r10
	stringOutput[5] = currentTime.seconds % 10 + 48;
80003b6e:	f0 08 00 28 	add	r8,r8,r8<<0x2
80003b72:	f2 08 01 19 	sub	r9,r9,r8<<0x1
80003b76:	2d 09       	sub	r9,-48
80003b78:	ba d9       	st.b	sp[0x5],r9
	stringOutput[6] = currentTime.day + 48;
80003b7a:	2d 07       	sub	r7,-48
80003b7c:	ba e7       	st.b	sp[0x6],r7
	
	gfx_AddLineToTerminal(stringOutput, 7, (Color){WHITE}, 0);
80003b7e:	30 0a       	mov	r10,0
80003b80:	50 2a       	stdsp	sp[0x8],r10
80003b82:	3f f8       	mov	r8,-1
80003b84:	ba 48       	st.h	sp[0x8],r8
80003b86:	40 28       	lddsp	r8,sp[0x8]
80003b88:	1a d8       	st.w	--sp,r8
80003b8a:	30 7b       	mov	r11,7
80003b8c:	fa cc ff fc 	sub	r12,sp,-4
80003b90:	f0 1f 00 08 	mcall	80003bb0 <rtc_getTime+0x180>
80003b94:	2f fd       	sub	sp,-4
}
80003b96:	2f dd       	sub	sp,-12
80003b98:	d8 22       	popm	r4-r7,pc
80003b9a:	00 00       	add	r0,r0
80003b9c:	00 00       	add	r0,r0
80003b9e:	01 10       	ld.sh	r0,r0++
80003ba0:	80 00       	ld.sh	r0,r0[0x0]
80003ba2:	39 b4       	mov	r4,-101
80003ba4:	80 00       	ld.sh	r0,r0[0x0]
80003ba6:	39 e4       	mov	r4,-98
80003ba8:	00 00       	add	r0,r0
80003baa:	01 00       	ld.w	r0,r0++
80003bac:	00 00       	add	r0,r0
80003bae:	01 70       	ld.ub	r0,--r0
80003bb0:	80 00       	ld.sh	r0,r0[0x0]
80003bb2:	2d 34       	sub	r4,-45

80003bb4 <sysclk_init>:
/* sysclk_init (void)
*
* Initializes SYSCLK for a 64 MHz clock.
*
*/
void sysclk_init (void) {
80003bb4:	d4 01       	pushm	lr
  // PLL formula = PLL_OUT (OSC0 / DIV) * (MUL+1) => (16MHz / 1) * (7+1) = 128MHz
  pm_switch_to_osc0(&AVR32_PM, BOARD_OSC0_HZ, OSC0_STARTUP_US);  // Switch main clock to Osc0.
80003bb6:	30 3a       	mov	r10,3
80003bb8:	e0 6b 90 00 	mov	r11,36864
80003bbc:	ea 1b 03 d0 	orh	r11,0x3d0
80003bc0:	fe 7c 0c 00 	mov	r12,-62464
80003bc4:	f0 1f 00 19 	mcall	80003c28 <sysclk_init+0x74>
  pm_pll_setup(&AVR32_PM, PLL, MUL, DIV, OSC, LOCK_COUNT);
80003bc8:	31 08       	mov	r8,16
80003bca:	1a d8       	st.w	--sp,r8
80003bcc:	30 08       	mov	r8,0
80003bce:	30 19       	mov	r9,1
80003bd0:	30 7a       	mov	r10,7
80003bd2:	10 9b       	mov	r11,r8
80003bd4:	fe 7c 0c 00 	mov	r12,-62464
80003bd8:	f0 1f 00 15 	mcall	80003c2c <sysclk_init+0x78>
   pll_freq Set to 1 for VCO frequency range 80-180MHz, set to 0 for VCO frequency range 160-240Mhz.
   pll_div2 Divide the PLL output frequency by 2 (this settings does not change the FVCO value)
   pll_wbwdisable 1 Disable the Wide-Bandith Mode (Wide-Bandwith mode allow a faster startup time and out-of-lock time). 0 to enable the Wide-Bandith Mode.
  */
  /* PLL output VCO frequency is 128MHz. We divide it by 2 with the pll_div2=1. This enable to get later main clock to 64MHz */
  pm_pll_set_option(&AVR32_PM, PLL, PLL_F, PLL_DIV2, PLL_WBW_DIS);
80003bdc:	30 08       	mov	r8,0
80003bde:	30 19       	mov	r9,1
80003be0:	12 9a       	mov	r10,r9
80003be2:	10 9b       	mov	r11,r8
80003be4:	fe 7c 0c 00 	mov	r12,-62464
80003be8:	f0 1f 00 12 	mcall	80003c30 <sysclk_init+0x7c>
  pm_pll_enable(&AVR32_PM, PLL);
80003bec:	30 0b       	mov	r11,0
80003bee:	fe 7c 0c 00 	mov	r12,-62464
80003bf2:	f0 1f 00 11 	mcall	80003c34 <sysclk_init+0x80>

  /* Wait for PLL0 locked */
  pm_wait_for_pll0_locked(&AVR32_PM) ;
80003bf6:	fe 7c 0c 00 	mov	r12,-62464
80003bfa:	f0 1f 00 10 	mcall	80003c38 <sysclk_init+0x84>
  pm_cksel(&AVR32_PM, 1, 0, 0, 0, 0, 0);		// 1 divides PBA clock by two
80003bfe:	30 0a       	mov	r10,0
80003c00:	1a da       	st.w	--sp,r10
80003c02:	1a da       	st.w	--sp,r10
80003c04:	14 98       	mov	r8,r10
80003c06:	14 99       	mov	r9,r10
80003c08:	30 1b       	mov	r11,1
80003c0a:	fe 7c 0c 00 	mov	r12,-62464
80003c0e:	f0 1f 00 0c 	mcall	80003c3c <sysclk_init+0x88>

  // Set one wait-state (WS) for flash controller. 0 WS access is up to 30MHz for HSB/CPU clock.
  // As we want to have 64MHz on HSB/CPU clock, we need to set 1 WS on flash controller.
  flashc_set_wait_state(1);
80003c12:	30 1c       	mov	r12,1
80003c14:	f0 1f 00 0b 	mcall	80003c40 <sysclk_init+0x8c>
  pm_switch_to_clock(&AVR32_PM, AVR32_PM_MCSEL_PLL0); /* Switch main clock to 64MHz */	
80003c18:	30 2b       	mov	r11,2
80003c1a:	fe 7c 0c 00 	mov	r12,-62464
80003c1e:	f0 1f 00 0a 	mcall	80003c44 <sysclk_init+0x90>
80003c22:	2f dd       	sub	sp,-12
}
80003c24:	d8 02       	popm	pc
80003c26:	00 00       	add	r0,r0
80003c28:	80 00       	ld.sh	r0,r0[0x0]
80003c2a:	23 6c       	sub	r12,54
80003c2c:	80 00       	ld.sh	r0,r0[0x0]
80003c2e:	23 0e       	sub	lr,48
80003c30:	80 00       	ld.sh	r0,r0[0x0]
80003c32:	23 30       	sub	r0,51
80003c34:	80 00       	ld.sh	r0,r0[0x0]
80003c36:	23 4a       	sub	r10,52
80003c38:	80 00       	ld.sh	r0,r0[0x0]
80003c3a:	23 58       	sub	r8,53
80003c3c:	80 00       	ld.sh	r0,r0[0x0]
80003c3e:	22 c8       	sub	r8,44
80003c40:	80 00       	ld.sh	r0,r0[0x0]
80003c42:	20 04       	sub	r4,0
80003c44:	80 00       	ld.sh	r0,r0[0x0]
80003c46:	23 62       	sub	r2,54

80003c48 <main>:
#else
	#include "mainCentre.h"
#endif


int main (void) {
80003c48:	d4 01       	pushm	lr
	
	#ifdef AVIS_POLITIQUE
		mainGauche();
80003c4a:	f0 1f 00 02 	mcall	80003c50 <main+0x8>
	#else
		mainCentre();
	#endif
	
}
80003c4e:	d8 0a       	popm	pc,r12=0
80003c50:	80 00       	ld.sh	r0,r0[0x0]
80003c52:	38 ec       	mov	r12,-114

80003c54 <memcpy>:
80003c54:	58 8a       	cp.w	r10,8
80003c56:	c2 f5       	brlt	80003cb4 <memcpy+0x60>
80003c58:	f9 eb 10 09 	or	r9,r12,r11
80003c5c:	e2 19 00 03 	andl	r9,0x3,COH
80003c60:	e0 81 00 97 	brne	80003d8e <memcpy+0x13a>
80003c64:	e0 4a 00 20 	cp.w	r10,32
80003c68:	c3 b4       	brge	80003cde <memcpy+0x8a>
80003c6a:	f4 08 14 02 	asr	r8,r10,0x2
80003c6e:	f0 09 11 08 	rsub	r9,r8,8
80003c72:	fe 09 00 2f 	add	pc,pc,r9<<0x2
80003c76:	76 69       	ld.w	r9,r11[0x18]
80003c78:	99 69       	st.w	r12[0x18],r9
80003c7a:	76 59       	ld.w	r9,r11[0x14]
80003c7c:	99 59       	st.w	r12[0x14],r9
80003c7e:	76 49       	ld.w	r9,r11[0x10]
80003c80:	99 49       	st.w	r12[0x10],r9
80003c82:	76 39       	ld.w	r9,r11[0xc]
80003c84:	99 39       	st.w	r12[0xc],r9
80003c86:	76 29       	ld.w	r9,r11[0x8]
80003c88:	99 29       	st.w	r12[0x8],r9
80003c8a:	76 19       	ld.w	r9,r11[0x4]
80003c8c:	99 19       	st.w	r12[0x4],r9
80003c8e:	76 09       	ld.w	r9,r11[0x0]
80003c90:	99 09       	st.w	r12[0x0],r9
80003c92:	f6 08 00 2b 	add	r11,r11,r8<<0x2
80003c96:	f8 08 00 28 	add	r8,r12,r8<<0x2
80003c9a:	e0 1a 00 03 	andl	r10,0x3
80003c9e:	f4 0a 11 04 	rsub	r10,r10,4
80003ca2:	fe 0a 00 2f 	add	pc,pc,r10<<0x2
80003ca6:	17 a9       	ld.ub	r9,r11[0x2]
80003ca8:	b0 a9       	st.b	r8[0x2],r9
80003caa:	17 99       	ld.ub	r9,r11[0x1]
80003cac:	b0 99       	st.b	r8[0x1],r9
80003cae:	17 89       	ld.ub	r9,r11[0x0]
80003cb0:	b0 89       	st.b	r8[0x0],r9
80003cb2:	5e fc       	retal	r12
80003cb4:	f4 0a 11 09 	rsub	r10,r10,9
80003cb8:	fe 0a 00 2f 	add	pc,pc,r10<<0x2
80003cbc:	17 f9       	ld.ub	r9,r11[0x7]
80003cbe:	b8 f9       	st.b	r12[0x7],r9
80003cc0:	17 e9       	ld.ub	r9,r11[0x6]
80003cc2:	b8 e9       	st.b	r12[0x6],r9
80003cc4:	17 d9       	ld.ub	r9,r11[0x5]
80003cc6:	b8 d9       	st.b	r12[0x5],r9
80003cc8:	17 c9       	ld.ub	r9,r11[0x4]
80003cca:	b8 c9       	st.b	r12[0x4],r9
80003ccc:	17 b9       	ld.ub	r9,r11[0x3]
80003cce:	b8 b9       	st.b	r12[0x3],r9
80003cd0:	17 a9       	ld.ub	r9,r11[0x2]
80003cd2:	b8 a9       	st.b	r12[0x2],r9
80003cd4:	17 99       	ld.ub	r9,r11[0x1]
80003cd6:	b8 99       	st.b	r12[0x1],r9
80003cd8:	17 89       	ld.ub	r9,r11[0x0]
80003cda:	b8 89       	st.b	r12[0x0],r9
80003cdc:	5e fc       	retal	r12
80003cde:	eb cd 40 c0 	pushm	r6-r7,lr
80003ce2:	18 99       	mov	r9,r12
80003ce4:	22 0a       	sub	r10,32
80003ce6:	b7 07       	ld.d	r6,r11++
80003ce8:	b3 26       	st.d	r9++,r6
80003cea:	b7 07       	ld.d	r6,r11++
80003cec:	b3 26       	st.d	r9++,r6
80003cee:	b7 07       	ld.d	r6,r11++
80003cf0:	b3 26       	st.d	r9++,r6
80003cf2:	b7 07       	ld.d	r6,r11++
80003cf4:	b3 26       	st.d	r9++,r6
80003cf6:	22 0a       	sub	r10,32
80003cf8:	cf 74       	brge	80003ce6 <memcpy+0x92>
80003cfa:	2f 0a       	sub	r10,-16
80003cfc:	c0 65       	brlt	80003d08 <memcpy+0xb4>
80003cfe:	b7 07       	ld.d	r6,r11++
80003d00:	b3 26       	st.d	r9++,r6
80003d02:	b7 07       	ld.d	r6,r11++
80003d04:	b3 26       	st.d	r9++,r6
80003d06:	21 0a       	sub	r10,16
80003d08:	5c 3a       	neg	r10
80003d0a:	fe 0a 00 3f 	add	pc,pc,r10<<0x3
80003d0e:	d7 03       	nop
80003d10:	d7 03       	nop
80003d12:	f7 36 00 0e 	ld.ub	r6,r11[14]
80003d16:	f3 66 00 0e 	st.b	r9[14],r6
80003d1a:	f7 36 00 0d 	ld.ub	r6,r11[13]
80003d1e:	f3 66 00 0d 	st.b	r9[13],r6
80003d22:	f7 36 00 0c 	ld.ub	r6,r11[12]
80003d26:	f3 66 00 0c 	st.b	r9[12],r6
80003d2a:	f7 36 00 0b 	ld.ub	r6,r11[11]
80003d2e:	f3 66 00 0b 	st.b	r9[11],r6
80003d32:	f7 36 00 0a 	ld.ub	r6,r11[10]
80003d36:	f3 66 00 0a 	st.b	r9[10],r6
80003d3a:	f7 36 00 09 	ld.ub	r6,r11[9]
80003d3e:	f3 66 00 09 	st.b	r9[9],r6
80003d42:	f7 36 00 08 	ld.ub	r6,r11[8]
80003d46:	f3 66 00 08 	st.b	r9[8],r6
80003d4a:	f7 36 00 07 	ld.ub	r6,r11[7]
80003d4e:	f3 66 00 07 	st.b	r9[7],r6
80003d52:	f7 36 00 06 	ld.ub	r6,r11[6]
80003d56:	f3 66 00 06 	st.b	r9[6],r6
80003d5a:	f7 36 00 05 	ld.ub	r6,r11[5]
80003d5e:	f3 66 00 05 	st.b	r9[5],r6
80003d62:	f7 36 00 04 	ld.ub	r6,r11[4]
80003d66:	f3 66 00 04 	st.b	r9[4],r6
80003d6a:	f7 36 00 03 	ld.ub	r6,r11[3]
80003d6e:	f3 66 00 03 	st.b	r9[3],r6
80003d72:	f7 36 00 02 	ld.ub	r6,r11[2]
80003d76:	f3 66 00 02 	st.b	r9[2],r6
80003d7a:	f7 36 00 01 	ld.ub	r6,r11[1]
80003d7e:	f3 66 00 01 	st.b	r9[1],r6
80003d82:	f7 36 00 00 	ld.ub	r6,r11[0]
80003d86:	f3 66 00 00 	st.b	r9[0],r6
80003d8a:	e3 cd 80 c0 	ldm	sp++,r6-r7,pc
80003d8e:	20 1a       	sub	r10,1
80003d90:	f6 0a 07 09 	ld.ub	r9,r11[r10]
80003d94:	f8 0a 0b 09 	st.b	r12[r10],r9
80003d98:	cf b1       	brne	80003d8e <memcpy+0x13a>
80003d9a:	5e fc       	retal	r12

Disassembly of section .exception:

80003e00 <_evba>:
_evba:

	.org  0x000
	// Unrecoverable Exception.
_handle_Unrecoverable_Exception:
	rjmp $
80003e00:	c0 08       	rjmp	80003e00 <_evba>
	...

80003e04 <_handle_TLB_Multiple_Hit>:

	.org  0x004
	// TLB Multiple Hit.
_handle_TLB_Multiple_Hit:
	rjmp $
80003e04:	c0 08       	rjmp	80003e04 <_handle_TLB_Multiple_Hit>
	...

80003e08 <_handle_Bus_Error_Data_Fetch>:

	.org  0x008
	// Bus Error Data Fetch.
_handle_Bus_Error_Data_Fetch:
	rjmp $
80003e08:	c0 08       	rjmp	80003e08 <_handle_Bus_Error_Data_Fetch>
	...

80003e0c <_handle_Bus_Error_Instruction_Fetch>:

	.org  0x00C
	// Bus Error Instruction Fetch.
_handle_Bus_Error_Instruction_Fetch:
	rjmp $
80003e0c:	c0 08       	rjmp	80003e0c <_handle_Bus_Error_Instruction_Fetch>
	...

80003e10 <_handle_NMI>:

	.org  0x010
	// NMI.
_handle_NMI:
	rjmp $
80003e10:	c0 08       	rjmp	80003e10 <_handle_NMI>
	...

80003e14 <_handle_Instruction_Address>:

	.org  0x014
	// Instruction Address.
_handle_Instruction_Address:
	rjmp $
80003e14:	c0 08       	rjmp	80003e14 <_handle_Instruction_Address>
	...

80003e18 <_handle_ITLB_Protection>:

	.org  0x018
	// ITLB Protection.
_handle_ITLB_Protection:
	rjmp $
80003e18:	c0 08       	rjmp	80003e18 <_handle_ITLB_Protection>
	...

80003e1c <_handle_Breakpoint>:

	.org  0x01C
	// Breakpoint.
_handle_Breakpoint:
	rjmp $
80003e1c:	c0 08       	rjmp	80003e1c <_handle_Breakpoint>
	...

80003e20 <_handle_Illegal_Opcode>:

	.org  0x020
	// Illegal Opcode.
_handle_Illegal_Opcode:
	rjmp $
80003e20:	c0 08       	rjmp	80003e20 <_handle_Illegal_Opcode>
	...

80003e24 <_handle_Unimplemented_Instruction>:

	.org  0x024
	// Unimplemented Instruction.
_handle_Unimplemented_Instruction:
	rjmp $
80003e24:	c0 08       	rjmp	80003e24 <_handle_Unimplemented_Instruction>
	...

80003e28 <_handle_Privilege_Violation>:

	.org  0x028
	// Privilege Violation.
_handle_Privilege_Violation:
	rjmp $
80003e28:	c0 08       	rjmp	80003e28 <_handle_Privilege_Violation>
	...

80003e2c <_handle_Floating_Point>:

	.org  0x02C
	// Floating-Point: UNUSED IN AVR32UC and AVR32AP.
_handle_Floating_Point:
	rjmp $
80003e2c:	c0 08       	rjmp	80003e2c <_handle_Floating_Point>
	...

80003e30 <_handle_Coprocessor_Absent>:

	.org  0x030
	// Coprocessor Absent: UNUSED IN AVR32UC.
_handle_Coprocessor_Absent:
	rjmp $
80003e30:	c0 08       	rjmp	80003e30 <_handle_Coprocessor_Absent>
	...

80003e34 <_handle_Data_Address_Read>:

	.org  0x034
	// Data Address (Read).
_handle_Data_Address_Read:
	rjmp $
80003e34:	c0 08       	rjmp	80003e34 <_handle_Data_Address_Read>
	...

80003e38 <_handle_Data_Address_Write>:

	.org  0x038
	// Data Address (Write).
_handle_Data_Address_Write:
	rjmp $
80003e38:	c0 08       	rjmp	80003e38 <_handle_Data_Address_Write>
	...

80003e3c <_handle_DTLB_Protection_Read>:

	.org  0x03C
	// DTLB Protection (Read).
_handle_DTLB_Protection_Read:
	rjmp $
80003e3c:	c0 08       	rjmp	80003e3c <_handle_DTLB_Protection_Read>
	...

80003e40 <_handle_DTLB_Protection_Write>:

	.org  0x040
	// DTLB Protection (Write).
_handle_DTLB_Protection_Write:
	rjmp $
80003e40:	c0 08       	rjmp	80003e40 <_handle_DTLB_Protection_Write>
	...

80003e44 <_handle_DTLB_Modified>:

	.org  0x044
	// DTLB Modified: UNUSED IN AVR32UC.
_handle_DTLB_Modified:
	rjmp $
80003e44:	c0 08       	rjmp	80003e44 <_handle_DTLB_Modified>
	...

80003e50 <_handle_ITLB_Miss>:

	.org  0x050
	// ITLB Miss.
_handle_ITLB_Miss:
	rjmp $
80003e50:	c0 08       	rjmp	80003e50 <_handle_ITLB_Miss>
	...

80003e60 <_handle_DTLB_Miss_Read>:

	.org  0x060
	// DTLB Miss (Read).
_handle_DTLB_Miss_Read:
	rjmp $
80003e60:	c0 08       	rjmp	80003e60 <_handle_DTLB_Miss_Read>
	...

80003e70 <_handle_DTLB_Miss_Write>:

	.org  0x070
	// DTLB Miss (Write).
_handle_DTLB_Miss_Write:
	rjmp $
80003e70:	c0 08       	rjmp	80003e70 <_handle_DTLB_Miss_Write>
	...

80003f00 <_handle_Supervisor_Call>:

	.org  0x100
	// Supervisor Call.
_handle_Supervisor_Call:
	rjmp $
80003f00:	c0 08       	rjmp	80003f00 <_handle_Supervisor_Call>
80003f02:	d7 03       	nop

80003f04 <_int0>:
	 * RSR_INTx by the CPU upon interrupt entry. No other register is saved
	 * by hardware.
	 */
	pushm   r8-r12, lr
#endif
	// Pass the int_level parameter to the _get_interrupt_handler function.
80003f04:	30 0c       	mov	r12,0
80003f06:	fe b0 f1 85 	rcall	80002210 <_get_interrupt_handler>
80003f0a:	58 0c       	cp.w	r12,0
80003f0c:	f8 0f 17 10 	movne	pc,r12
	popm    r8-r12, lr
#endif
	/*
	 * If this was a spurious interrupt (R12 == NULL), return from event
	 * handler.
	 */
80003f10:	d6 03       	rete

80003f12 <_int1>:
	 * RSR_INTx by the CPU upon interrupt entry. No other register is saved
	 * by hardware.
	 */
	pushm   r8-r12, lr
#endif
	// Pass the int_level parameter to the _get_interrupt_handler function.
80003f12:	30 1c       	mov	r12,1
80003f14:	fe b0 f1 7e 	rcall	80002210 <_get_interrupt_handler>
80003f18:	58 0c       	cp.w	r12,0
80003f1a:	f8 0f 17 10 	movne	pc,r12
	popm    r8-r12, lr
#endif
	/*
	 * If this was a spurious interrupt (R12 == NULL), return from event
	 * handler.
	 */
80003f1e:	d6 03       	rete

80003f20 <_int2>:
	 * RSR_INTx by the CPU upon interrupt entry. No other register is saved
	 * by hardware.
	 */
	pushm   r8-r12, lr
#endif
	// Pass the int_level parameter to the _get_interrupt_handler function.
80003f20:	30 2c       	mov	r12,2
80003f22:	fe b0 f1 77 	rcall	80002210 <_get_interrupt_handler>
80003f26:	58 0c       	cp.w	r12,0
80003f28:	f8 0f 17 10 	movne	pc,r12
	popm    r8-r12, lr
#endif
	/*
	 * If this was a spurious interrupt (R12 == NULL), return from event
	 * handler.
	 */
80003f2c:	d6 03       	rete

80003f2e <_int3>:
	 * RSR_INTx by the CPU upon interrupt entry. No other register is saved
	 * by hardware.
	 */
	pushm   r8-r12, lr
#endif
	// Pass the int_level parameter to the _get_interrupt_handler function.
80003f2e:	30 3c       	mov	r12,3
80003f30:	fe b0 f1 70 	rcall	80002210 <_get_interrupt_handler>
80003f34:	58 0c       	cp.w	r12,0
80003f36:	f8 0f 17 10 	movne	pc,r12
	popm    r8-r12, lr
#endif
	/*
	 * If this was a spurious interrupt (R12 == NULL), return from event
	 * handler.
	 */
80003f3a:	d6 03       	rete
80003f3c:	d7 03       	nop
80003f3e:	d7 03       	nop
80003f40:	d7 03       	nop
80003f42:	d7 03       	nop
80003f44:	d7 03       	nop
80003f46:	d7 03       	nop
80003f48:	d7 03       	nop
80003f4a:	d7 03       	nop
80003f4c:	d7 03       	nop
80003f4e:	d7 03       	nop
80003f50:	d7 03       	nop
80003f52:	d7 03       	nop
80003f54:	d7 03       	nop
80003f56:	d7 03       	nop
80003f58:	d7 03       	nop
80003f5a:	d7 03       	nop
80003f5c:	d7 03       	nop
80003f5e:	d7 03       	nop
80003f60:	d7 03       	nop
80003f62:	d7 03       	nop
80003f64:	d7 03       	nop
80003f66:	d7 03       	nop
80003f68:	d7 03       	nop
80003f6a:	d7 03       	nop
80003f6c:	d7 03       	nop
80003f6e:	d7 03       	nop
80003f70:	d7 03       	nop
80003f72:	d7 03       	nop
80003f74:	d7 03       	nop
80003f76:	d7 03       	nop
80003f78:	d7 03       	nop
80003f7a:	d7 03       	nop
80003f7c:	d7 03       	nop
80003f7e:	d7 03       	nop
80003f80:	d7 03       	nop
80003f82:	d7 03       	nop
80003f84:	d7 03       	nop
80003f86:	d7 03       	nop
80003f88:	d7 03       	nop
80003f8a:	d7 03       	nop
80003f8c:	d7 03       	nop
80003f8e:	d7 03       	nop
80003f90:	d7 03       	nop
80003f92:	d7 03       	nop
80003f94:	d7 03       	nop
80003f96:	d7 03       	nop
80003f98:	d7 03       	nop
80003f9a:	d7 03       	nop
80003f9c:	d7 03       	nop
80003f9e:	d7 03       	nop
80003fa0:	d7 03       	nop
80003fa2:	d7 03       	nop
80003fa4:	d7 03       	nop
80003fa6:	d7 03       	nop
80003fa8:	d7 03       	nop
80003faa:	d7 03       	nop
80003fac:	d7 03       	nop
80003fae:	d7 03       	nop
80003fb0:	d7 03       	nop
80003fb2:	d7 03       	nop
80003fb4:	d7 03       	nop
80003fb6:	d7 03       	nop
80003fb8:	d7 03       	nop
80003fba:	d7 03       	nop
80003fbc:	d7 03       	nop
80003fbe:	d7 03       	nop
80003fc0:	d7 03       	nop
80003fc2:	d7 03       	nop
80003fc4:	d7 03       	nop
80003fc6:	d7 03       	nop
80003fc8:	d7 03       	nop
80003fca:	d7 03       	nop
80003fcc:	d7 03       	nop
80003fce:	d7 03       	nop
80003fd0:	d7 03       	nop
80003fd2:	d7 03       	nop
80003fd4:	d7 03       	nop
80003fd6:	d7 03       	nop
80003fd8:	d7 03       	nop
80003fda:	d7 03       	nop
80003fdc:	d7 03       	nop
80003fde:	d7 03       	nop
80003fe0:	d7 03       	nop
80003fe2:	d7 03       	nop
80003fe4:	d7 03       	nop
80003fe6:	d7 03       	nop
80003fe8:	d7 03       	nop
80003fea:	d7 03       	nop
80003fec:	d7 03       	nop
80003fee:	d7 03       	nop
80003ff0:	d7 03       	nop
80003ff2:	d7 03       	nop
80003ff4:	d7 03       	nop
80003ff6:	d7 03       	nop
80003ff8:	d7 03       	nop
80003ffa:	d7 03       	nop
80003ffc:	d7 03       	nop
80003ffe:	d7 03       	nop
