
Command.elf:     file format elf32-avr32

Sections:
Idx Name          Size      VMA       LMA       File off  Algn
  0 .reset        00002004  80000000  80000000  00000400  2**2
                  CONTENTS, ALLOC, LOAD, READONLY, CODE
  1 .rela.got     00000000  80002004  80002004  00002404  2**2
                  CONTENTS, ALLOC, LOAD, READONLY, DATA
  2 .text         00003020  80002004  80002004  00002404  2**2
                  CONTENTS, ALLOC, LOAD, READONLY, CODE
  3 .exception    00000200  80005200  80005200  00005600  2**9
                  CONTENTS, ALLOC, LOAD, READONLY, CODE
  4 .rodata       000034a8  80005400  80005400  00005800  2**2
                  CONTENTS, ALLOC, LOAD, READONLY, DATA
  5 .data         0000003c  00000004  800088a8  00009004  2**2
                  CONTENTS, ALLOC, LOAD, DATA
  6 .bss          00001360  00000040  800088e4  00009040  2**2
                  ALLOC
  7 .comment      00000030  00000000  00000000  00009040  2**0
                  CONTENTS, READONLY
  8 .debug_aranges 00000990  00000000  00000000  00009070  2**3
                  CONTENTS, READONLY, DEBUGGING
  9 .debug_pubnames 000019f8  00000000  00000000  00009a00  2**0
                  CONTENTS, READONLY, DEBUGGING
 10 .debug_info   0000b991  00000000  00000000  0000b3f8  2**0
                  CONTENTS, READONLY, DEBUGGING
 11 .debug_abbrev 00002119  00000000  00000000  00016d89  2**0
                  CONTENTS, READONLY, DEBUGGING
 12 .debug_line   0000a11a  00000000  00000000  00018ea2  2**0
                  CONTENTS, READONLY, DEBUGGING
 13 .debug_frame  00001b98  00000000  00000000  00022fbc  2**2
                  CONTENTS, READONLY, DEBUGGING
 14 .debug_str    00002e12  00000000  00000000  00024b54  2**0
                  CONTENTS, READONLY, DEBUGGING
 15 .debug_loc    000040f3  00000000  00000000  00027966  2**0
                  CONTENTS, READONLY, DEBUGGING
 16 .debug_macinfo 00f1273f  00000000  00000000  0002ba59  2**0
                  CONTENTS, READONLY, DEBUGGING
 17 .stack        00001000  0000f000  0000f000  00000400  2**0
                  ALLOC
 18 .debug_ranges 00000a30  00000000  00000000  00f3e198  2**3
                  CONTENTS, READONLY, DEBUGGING

Disassembly of section .reset:

80000000 <_trampoline>:

  .global _trampoline
  .type _trampoline, @function
_trampoline:
  // Jump to program start.
  rjmp    program_start
80000000:	e0 8f 10 00 	bral	80002000 <program_start>
	...

80002000 <program_start>:

  .org  PROGRAM_START_OFFSET
program_start:
  // Jump to the C runtime startup routine.
  lda.w   pc, _stext
80002000:	fe cf f1 90 	sub	pc,pc,-3696

Disassembly of section .text:

80002004 <sd_mmc_spi_get_capacity>:
80002004:	d4 01       	pushm	lr
80002006:	4c 18       	lddpc	r8,80002108 <sd_mmc_spi_get_capacity+0x104>
  uint8_t  read_bl_len;
  uint8_t  erase_grp_size;
  uint8_t  erase_grp_mult;

  // extract variables from CSD array
  read_bl_len = csd[5] & 0x0F;
80002008:	11 db       	ld.ub	r11,r8[0x5]
  if (card_type == SD_CARD_2_SDHC) {
8000200a:	4c 18       	lddpc	r8,8000210c <sd_mmc_spi_get_capacity+0x108>
8000200c:	11 8a       	ld.ub	r10,r8[0x0]
8000200e:	30 38       	mov	r8,3
80002010:	f0 0a 18 00 	cp.b	r10,r8
80002014:	c2 71       	brne	80002062 <sd_mmc_spi_get_capacity+0x5e>
    c_size = ((csd[7] & 0x3F) << 16) | (csd[8] << 8) | csd[9];
80002016:	4b d8       	lddpc	r8,80002108 <sd_mmc_spi_get_capacity+0x104>
80002018:	f1 3a 00 08 	ld.ub	r10,r8[8]
8000201c:	f1 39 00 09 	ld.ub	r9,r8[9]
80002020:	f3 ea 10 89 	or	r9,r9,r10<<0x8
80002024:	11 fa       	ld.ub	r10,r8[0x7]
80002026:	f5 da c0 06 	bfextu	r10,r10,0x0,0x6
8000202a:	f3 ea 11 0a 	or	r10,r9,r10<<0x10
    ++c_size;
8000202e:	2f fa       	sub	r10,-1
    capacity = (uint64_t)c_size << 19;
80002030:	f4 0b 16 0d 	lsr	r11,r10,0xd
80002034:	16 99       	mov	r9,r11
80002036:	f4 08 15 13 	lsl	r8,r10,0x13
8000203a:	4b 6a       	lddpc	r10,80002110 <sd_mmc_spi_get_capacity+0x10c>
8000203c:	f4 e9 00 00 	st.d	r10[0],r8
    capacity_mult = (c_size >> 13) & 0x01FF;
80002040:	f7 db c0 09 	bfextu	r11,r11,0x0,0x9
80002044:	4b 48       	lddpc	r8,80002114 <sd_mmc_spi_get_capacity+0x110>
80002046:	b0 0b       	st.h	r8[0x0],r11
    sd_mmc_spi_last_block_address = (capacity >> 9) + (capacity_mult << 23) - 1;
80002048:	f4 ea 00 00 	ld.d	r10,r10[0]
8000204c:	90 09       	ld.sh	r9,r8[0x0]
8000204e:	f4 08 16 09 	lsr	r8,r10,0x9
80002052:	f1 eb 11 78 	or	r8,r8,r11<<0x17
80002056:	20 18       	sub	r8,1
80002058:	b7 79       	lsl	r9,0x17
8000205a:	12 08       	add	r8,r9
8000205c:	4a f9       	lddpc	r9,80002118 <sd_mmc_spi_get_capacity+0x114>
8000205e:	93 08       	st.w	r9[0x0],r8
80002060:	c4 28       	rjmp	800020e4 <sd_mmc_spi_get_capacity+0xe0>
  } else {
    c_size      = ((csd[6] & 0x03) << 10) + (csd[7] << 2) + ((csd[8] & 0xC0) >> 6);
    c_size_mult = ((csd[9] & 0x03) << 1) + ((csd[10] & 0x80) >> 7);
80002062:	4a a8       	lddpc	r8,80002108 <sd_mmc_spi_get_capacity+0x104>
80002064:	f1 3c 00 0a 	ld.ub	r12,r8[10]
    sd_mmc_spi_last_block_address = ((uint32_t)(c_size + 1) * (uint32_t)((1 << (c_size_mult + 2)))) - 1;
80002068:	f1 39 00 08 	ld.ub	r9,r8[8]
8000206c:	a7 89       	lsr	r9,0x6
8000206e:	11 fe       	ld.ub	lr,r8[0x7]
80002070:	f2 0e 00 29 	add	r9,r9,lr<<0x2
80002074:	11 ee       	ld.ub	lr,r8[0x6]
80002076:	fd de c0 02 	bfextu	lr,lr,0x0,0x2
8000207a:	ab 6e       	lsl	lr,0xa
8000207c:	1c 09       	add	r9,lr
8000207e:	2f f9       	sub	r9,-1
80002080:	f1 38 00 09 	ld.ub	r8,r8[9]
80002084:	f1 d8 c0 02 	bfextu	r8,r8,0x0,0x2
80002088:	f8 0e 16 07 	lsr	lr,r12,0x7
8000208c:	fc 08 00 18 	add	r8,lr,r8<<0x1
80002090:	2f e8       	sub	r8,-2
80002092:	f2 08 09 49 	lsl	r9,r9,r8
80002096:	20 19       	sub	r9,1
80002098:	4a 08       	lddpc	r8,80002118 <sd_mmc_spi_get_capacity+0x114>
8000209a:	91 09       	st.w	r8[0x0],r9
    capacity = (1 << read_bl_len) * (sd_mmc_spi_last_block_address + 1);
8000209c:	70 0e       	ld.w	lr,r8[0x0]
8000209e:	f7 db c0 04 	bfextu	r11,r11,0x0,0x4
800020a2:	2f fe       	sub	lr,-1
800020a4:	fc 0b 09 48 	lsl	r8,lr,r11
800020a8:	30 09       	mov	r9,0
800020aa:	49 ae       	lddpc	lr,80002110 <sd_mmc_spi_get_capacity+0x10c>
800020ac:	fc e9 00 00 	st.d	lr[0],r8
    capacity_mult = 0;
800020b0:	49 98       	lddpc	r8,80002114 <sd_mmc_spi_get_capacity+0x110>
800020b2:	b0 09       	st.h	r8[0x0],r9
    if (read_bl_len > 9) {  // 9 means 2^9 = 512b
800020b4:	30 98       	mov	r8,9
800020b6:	f0 0b 18 00 	cp.b	r11,r8
800020ba:	e0 88 00 08 	brls	800020ca <sd_mmc_spi_get_capacity+0xc6>
      sd_mmc_spi_last_block_address <<= (read_bl_len - 9);
800020be:	49 78       	lddpc	r8,80002118 <sd_mmc_spi_get_capacity+0x114>
800020c0:	70 09       	ld.w	r9,r8[0x0]
800020c2:	20 9b       	sub	r11,9
800020c4:	f2 0b 09 4b 	lsl	r11,r9,r11
800020c8:	91 0b       	st.w	r8[0x0],r11
    }
  }
  if (card_type == MMC_CARD)
800020ca:	58 0a       	cp.w	r10,0
800020cc:	c0 c1       	brne	800020e4 <sd_mmc_spi_get_capacity+0xe0>
  {
    erase_grp_size = ((csd[10] & 0x7C) >> 2);
800020ce:	f1 dc c0 45 	bfextu	r8,r12,0x2,0x5
    erase_grp_mult = ((csd[10] & 0x03) << 3) | ((csd[11] & 0xE0) >> 5);
800020d2:	f9 dc c0 02 	bfextu	r12,r12,0x0,0x2
800020d6:	48 d9       	lddpc	r9,80002108 <sd_mmc_spi_get_capacity+0x104>
800020d8:	f3 39 00 0b 	ld.ub	r9,r9[11]
800020dc:	a3 7c       	lsl	r12,0x3
800020de:	f9 e9 12 59 	or	r9,r12,r9>>0x5
800020e2:	c0 c8       	rjmp	800020fa <sd_mmc_spi_get_capacity+0xf6>
  }
  else
  {
    erase_grp_size = ((csd[10] & 0x3F) << 1) + ((csd[11] & 0x80) >> 7);
800020e4:	48 9a       	lddpc	r10,80002108 <sd_mmc_spi_get_capacity+0x104>
800020e6:	f5 39 00 0a 	ld.ub	r9,r10[10]
800020ea:	f3 d9 c0 06 	bfextu	r9,r9,0x0,0x6
800020ee:	f5 38 00 0b 	ld.ub	r8,r10[11]
800020f2:	a7 98       	lsr	r8,0x7
800020f4:	f0 09 00 18 	add	r8,r8,r9<<0x1
800020f8:	30 09       	mov	r9,0
    erase_grp_mult = 0;
  }
  erase_group_size = (erase_grp_size + 1) * (erase_grp_mult + 1);
800020fa:	2f f9       	sub	r9,-1
800020fc:	2f f8       	sub	r8,-1
800020fe:	b1 39       	mul	r9,r8
80002100:	48 78       	lddpc	r8,8000211c <sd_mmc_spi_get_capacity+0x118>
80002102:	b0 09       	st.h	r8[0x0],r9
}
80002104:	d8 02       	popm	pc
80002106:	00 00       	add	r0,r0
80002108:	00 00       	add	r0,r0
8000210a:	03 58       	ld.sh	r8,--r1
8000210c:	00 00       	add	r0,r0
8000210e:	03 56       	ld.sh	r6,--r1
80002110:	00 00       	add	r0,r0
80002112:	03 44       	ld.w	r4,--r1
80002114:	00 00       	add	r0,r0
80002116:	03 4c       	ld.w	r12,--r1
80002118:	00 00       	add	r0,r0
8000211a:	03 50       	ld.sh	r0,--r1
8000211c:	00 00       	add	r0,r0
8000211e:	03 4e       	ld.w	lr,--r1

80002120 <sd_mmc_spi_send_and_read>:
//! @param  data_to_send   byte to send over SPI
//!
//! @return uint8_t
//!   Byte read from the slave
uint8_t sd_mmc_spi_send_and_read(uint8_t data_to_send)
{
80002120:	d4 01       	pushm	lr
80002122:	20 1d       	sub	sp,4
   unsigned short data_read;
   spi_write(SD_MMC_SPI, data_to_send);
80002124:	18 9b       	mov	r11,r12
80002126:	fe 7c 28 00 	mov	r12,-55296
8000212a:	f0 1f 00 09 	mcall	8000214c <sd_mmc_spi_send_and_read+0x2c>
   if( SPI_ERROR_TIMEOUT == spi_read(SD_MMC_SPI, &data_read) )
8000212e:	fa cb ff fe 	sub	r11,sp,-2
80002132:	fe 7c 28 00 	mov	r12,-55296
80002136:	f0 1f 00 07 	mcall	80002150 <sd_mmc_spi_send_and_read+0x30>
8000213a:	58 1c       	cp.w	r12,1
8000213c:	c0 41       	brne	80002144 <sd_mmc_spi_send_and_read+0x24>
8000213e:	e0 6c 00 ff 	mov	r12,255
80002142:	c0 28       	rjmp	80002146 <sd_mmc_spi_send_and_read+0x26>
     return 0xFF;
   return data_read;
80002144:	1b bc       	ld.ub	r12,sp[0x3]
}
80002146:	2f fd       	sub	sp,-4
80002148:	d8 02       	popm	pc
8000214a:	00 00       	add	r0,r0
8000214c:	80 00       	ld.sh	r0,r0[0x0]
8000214e:	2e 32       	sub	r2,-29
80002150:	80 00       	ld.sh	r0,r0[0x0]
80002152:	2e 4e       	sub	lr,-28

80002154 <sd_mmc_spi_wait_not_busy>:
//! @brief This function waits until the SD/MMC is not busy.
//!
//! @return bit
//!          true when card is not busy
bool sd_mmc_spi_wait_not_busy(void)
{
80002154:	d4 21       	pushm	r4-r7,lr
  uint32_t retry;

  // Select the SD_MMC memory gl_ptr_mem points to
  spi_selectChip(SD_MMC_SPI, SD_MMC_SPI_NPCS);
80002156:	30 1b       	mov	r11,1
80002158:	fe 7c 28 00 	mov	r12,-55296
8000215c:	f0 1f 00 10 	mcall	8000219c <sd_mmc_spi_wait_not_busy+0x48>
80002160:	30 07       	mov	r7,0
  retry = 0;
  while((r1 = sd_mmc_spi_send_and_read(0xFF)) != 0xFF)
80002162:	e0 65 00 ff 	mov	r5,255
80002166:	48 f4       	lddpc	r4,800021a0 <sd_mmc_spi_wait_not_busy+0x4c>
80002168:	3f f6       	mov	r6,-1
8000216a:	c0 b8       	rjmp	80002180 <sd_mmc_spi_wait_not_busy+0x2c>
  {
    retry++;
8000216c:	2f f7       	sub	r7,-1
    if (retry == 200000)
8000216e:	e2 57 0d 40 	cp.w	r7,200000
80002172:	c0 71       	brne	80002180 <sd_mmc_spi_wait_not_busy+0x2c>
    {
      spi_unselectChip(SD_MMC_SPI, SD_MMC_SPI_NPCS);
80002174:	30 1b       	mov	r11,1
80002176:	fe 7c 28 00 	mov	r12,-55296
8000217a:	f0 1f 00 0b 	mcall	800021a4 <sd_mmc_spi_wait_not_busy+0x50>
8000217e:	d8 2a       	popm	r4-r7,pc,r12=0
  uint32_t retry;

  // Select the SD_MMC memory gl_ptr_mem points to
  spi_selectChip(SD_MMC_SPI, SD_MMC_SPI_NPCS);
  retry = 0;
  while((r1 = sd_mmc_spi_send_and_read(0xFF)) != 0xFF)
80002180:	0a 9c       	mov	r12,r5
80002182:	f0 1f 00 0a 	mcall	800021a8 <sd_mmc_spi_wait_not_busy+0x54>
80002186:	a8 8c       	st.b	r4[0x0],r12
80002188:	ec 0c 18 00 	cp.b	r12,r6
8000218c:	cf 01       	brne	8000216c <sd_mmc_spi_wait_not_busy+0x18>
    {
      spi_unselectChip(SD_MMC_SPI, SD_MMC_SPI_NPCS);
      return false;
    }
  }
  spi_unselectChip(SD_MMC_SPI, SD_MMC_SPI_NPCS);
8000218e:	30 1b       	mov	r11,1
80002190:	fe 7c 28 00 	mov	r12,-55296
80002194:	f0 1f 00 04 	mcall	800021a4 <sd_mmc_spi_wait_not_busy+0x50>
80002198:	da 2a       	popm	r4-r7,pc,r12=1
8000219a:	00 00       	add	r0,r0
8000219c:	80 00       	ld.sh	r0,r0[0x0]
8000219e:	2d 02       	sub	r2,-48
800021a0:	00 00       	add	r0,r0
800021a2:	03 68       	ld.uh	r8,--r1
800021a4:	80 00       	ld.sh	r0,r0[0x0]
800021a6:	2d 4e       	sub	lr,-44
800021a8:	80 00       	ld.sh	r0,r0[0x0]
800021aa:	21 20       	sub	r0,18

800021ac <sd_mmc_spi_command>:
//! @param  arg       argument of the command
//!
//! @return uint8_t
//!         R1 response (R1 == 0xFF time out error)
uint8_t sd_mmc_spi_command(uint8_t command, uint32_t arg)
{
800021ac:	eb cd 40 f8 	pushm	r3-r7,lr
800021b0:	18 96       	mov	r6,r12
800021b2:	16 97       	mov	r7,r11
  uint8_t retry;

  spi_write(SD_MMC_SPI, 0xFF);            // write dummy byte
800021b4:	e0 6b 00 ff 	mov	r11,255
800021b8:	fe 7c 28 00 	mov	r12,-55296
800021bc:	f0 1f 00 2b 	mcall	80002268 <sd_mmc_spi_command+0xbc>
  spi_write(SD_MMC_SPI, command | 0x40);  // send command
800021c0:	0c 9b       	mov	r11,r6
800021c2:	a7 ab       	sbr	r11,0x6
800021c4:	5c 5b       	castu.b	r11
800021c6:	fe 7c 28 00 	mov	r12,-55296
800021ca:	f0 1f 00 28 	mcall	80002268 <sd_mmc_spi_command+0xbc>
  spi_write(SD_MMC_SPI, arg>>24);         // send parameter
800021ce:	ee 0b 16 18 	lsr	r11,r7,0x18
800021d2:	fe 7c 28 00 	mov	r12,-55296
800021d6:	f0 1f 00 25 	mcall	80002268 <sd_mmc_spi_command+0xbc>
  spi_write(SD_MMC_SPI, arg>>16);
800021da:	ee 0b 16 10 	lsr	r11,r7,0x10
800021de:	fe 7c 28 00 	mov	r12,-55296
800021e2:	f0 1f 00 22 	mcall	80002268 <sd_mmc_spi_command+0xbc>
  spi_write(SD_MMC_SPI, arg>>8 );
800021e6:	f7 d7 c1 10 	bfextu	r11,r7,0x8,0x10
800021ea:	fe 7c 28 00 	mov	r12,-55296
800021ee:	f0 1f 00 1f 	mcall	80002268 <sd_mmc_spi_command+0xbc>
  spi_write(SD_MMC_SPI, arg    );
800021f2:	0e 9b       	mov	r11,r7
800021f4:	5c 7b       	castu.h	r11
800021f6:	fe 7c 28 00 	mov	r12,-55296
800021fa:	f0 1f 00 1c 	mcall	80002268 <sd_mmc_spi_command+0xbc>
  switch(command)
800021fe:	30 08       	mov	r8,0
80002200:	f0 06 18 00 	cp.b	r6,r8
80002204:	c0 60       	breq	80002210 <sd_mmc_spi_command+0x64>
80002206:	30 88       	mov	r8,8
80002208:	f0 06 18 00 	cp.b	r6,r8
8000220c:	c1 01       	brne	8000222c <sd_mmc_spi_command+0x80>
8000220e:	c0 88       	rjmp	8000221e <sd_mmc_spi_command+0x72>
  {
      case MMC_GO_IDLE_STATE:
         spi_write(SD_MMC_SPI, 0x95);
80002210:	e0 6b 00 95 	mov	r11,149
80002214:	fe 7c 28 00 	mov	r12,-55296
80002218:	f0 1f 00 14 	mcall	80002268 <sd_mmc_spi_command+0xbc>
         break;
8000221c:	c0 e8       	rjmp	80002238 <sd_mmc_spi_command+0x8c>
      case MMC_SEND_IF_COND:
         spi_write(SD_MMC_SPI, 0x87);
8000221e:	e0 6b 00 87 	mov	r11,135
80002222:	fe 7c 28 00 	mov	r12,-55296
80002226:	f0 1f 00 11 	mcall	80002268 <sd_mmc_spi_command+0xbc>
         break;
8000222a:	c0 78       	rjmp	80002238 <sd_mmc_spi_command+0x8c>
      default:
         spi_write(SD_MMC_SPI, 0xff);
8000222c:	e0 6b 00 ff 	mov	r11,255
80002230:	fe 7c 28 00 	mov	r12,-55296
80002234:	f0 1f 00 0d 	mcall	80002268 <sd_mmc_spi_command+0xbc>

  // end command
  // wait for response
  // if more than 8 retries, card has timed-out and return the received 0xFF
  retry = 0;
  r1    = 0xFF;
80002238:	3f f9       	mov	r9,-1
8000223a:	48 d8       	lddpc	r8,8000226c <sd_mmc_spi_command+0xc0>
8000223c:	b0 89       	st.b	r8[0x0],r9
8000223e:	30 07       	mov	r7,0
  while((r1 = sd_mmc_spi_send_and_read(0xFF)) == 0xFF)
80002240:	e0 64 00 ff 	mov	r4,255
80002244:	10 93       	mov	r3,r8
80002246:	12 96       	mov	r6,r9
  {
    retry++;
    if(retry > 10) break;
80002248:	30 b5       	mov	r5,11
  // end command
  // wait for response
  // if more than 8 retries, card has timed-out and return the received 0xFF
  retry = 0;
  r1    = 0xFF;
  while((r1 = sd_mmc_spi_send_and_read(0xFF)) == 0xFF)
8000224a:	c0 68       	rjmp	80002256 <sd_mmc_spi_command+0xaa>
  {
    retry++;
8000224c:	2f f7       	sub	r7,-1
8000224e:	5c 57       	castu.b	r7
    if(retry > 10) break;
80002250:	ea 07 18 00 	cp.b	r7,r5
80002254:	c0 80       	breq	80002264 <sd_mmc_spi_command+0xb8>
  // end command
  // wait for response
  // if more than 8 retries, card has timed-out and return the received 0xFF
  retry = 0;
  r1    = 0xFF;
  while((r1 = sd_mmc_spi_send_and_read(0xFF)) == 0xFF)
80002256:	08 9c       	mov	r12,r4
80002258:	f0 1f 00 06 	mcall	80002270 <sd_mmc_spi_command+0xc4>
8000225c:	a6 8c       	st.b	r3[0x0],r12
8000225e:	ec 0c 18 00 	cp.b	r12,r6
80002262:	cf 50       	breq	8000224c <sd_mmc_spi_command+0xa0>
  {
    retry++;
    if(retry > 10) break;
  }
  return r1;
}
80002264:	e3 cd 80 f8 	ldm	sp++,r3-r7,pc
80002268:	80 00       	ld.sh	r0,r0[0x0]
8000226a:	2e 32       	sub	r2,-29
8000226c:	00 00       	add	r0,r0
8000226e:	03 68       	ld.uh	r8,--r1
80002270:	80 00       	ld.sh	r0,r0[0x0]
80002272:	21 20       	sub	r0,18

80002274 <sd_mmc_spi_send_command>:
//! @param  arg       argument of the command
//!
//! @return uint8_t
//!         R1 response (R1 == 0xFF if time out error)
uint8_t sd_mmc_spi_send_command(uint8_t command, uint32_t arg)
{
80002274:	eb cd 40 c0 	pushm	r6-r7,lr
80002278:	18 97       	mov	r7,r12
8000227a:	16 96       	mov	r6,r11
  spi_selectChip(SD_MMC_SPI, SD_MMC_SPI_NPCS);    // select SD_MMC_SPI
8000227c:	30 1b       	mov	r11,1
8000227e:	fe 7c 28 00 	mov	r12,-55296
80002282:	f0 1f 00 09 	mcall	800022a4 <sd_mmc_spi_send_command+0x30>
  r1 = sd_mmc_spi_command(command, arg);
80002286:	0c 9b       	mov	r11,r6
80002288:	0e 9c       	mov	r12,r7
8000228a:	f0 1f 00 08 	mcall	800022a8 <sd_mmc_spi_send_command+0x34>
8000228e:	48 87       	lddpc	r7,800022ac <sd_mmc_spi_send_command+0x38>
80002290:	ae 8c       	st.b	r7[0x0],r12
  spi_unselectChip(SD_MMC_SPI, SD_MMC_SPI_NPCS);  // unselect SD_MMC_SPI
80002292:	30 1b       	mov	r11,1
80002294:	fe 7c 28 00 	mov	r12,-55296
80002298:	f0 1f 00 06 	mcall	800022b0 <sd_mmc_spi_send_command+0x3c>
  return r1;
}
8000229c:	0f 8c       	ld.ub	r12,r7[0x0]
8000229e:	e3 cd 80 c0 	ldm	sp++,r6-r7,pc
800022a2:	00 00       	add	r0,r0
800022a4:	80 00       	ld.sh	r0,r0[0x0]
800022a6:	2d 02       	sub	r2,-48
800022a8:	80 00       	ld.sh	r0,r0[0x0]
800022aa:	21 ac       	sub	r12,26
800022ac:	00 00       	add	r0,r0
800022ae:	03 68       	ld.uh	r8,--r1
800022b0:	80 00       	ld.sh	r0,r0[0x0]
800022b2:	2d 4e       	sub	lr,-44

800022b4 <sd_mmc_spi_check_presence>:
//!
//! @return bit
//!   The memory is present (true)
//!   The memory does not respond (disconnected) (false)
bool sd_mmc_spi_check_presence(void)
{
800022b4:	eb cd 40 fe 	pushm	r1-r7,lr
  uint16_t retry;

  retry = 0;
  if (sd_mmc_spi_init_done == false)
800022b8:	49 a8       	lddpc	r8,80002320 <sd_mmc_spi_check_presence+0x6c>
800022ba:	11 89       	ld.ub	r9,r8[0x0]
800022bc:	30 08       	mov	r8,0
800022be:	f0 09 18 00 	cp.b	r9,r8
800022c2:	c1 f1       	brne	80002300 <sd_mmc_spi_check_presence+0x4c>
800022c4:	30 07       	mov	r7,0
  {
    // If memory is not initialized, try to initialize it (CMD0)
    // If no valid response, there is no card
    while ((r1 = sd_mmc_spi_send_command(MMC_GO_IDLE_STATE, 0)) != 0x01)
800022c6:	0e 94       	mov	r4,r7
800022c8:	49 73       	lddpc	r3,80002324 <sd_mmc_spi_check_presence+0x70>
800022ca:	30 16       	mov	r6,1
    {
      spi_write(SD_MMC_SPI,0xFF);            // write dummy byte
800022cc:	e0 62 00 ff 	mov	r2,255
800022d0:	fe 71 28 00 	mov	r1,-55296
      retry++;
      if (retry > 10)
800022d4:	30 b5       	mov	r5,11
800022d6:	c0 c8       	rjmp	800022ee <sd_mmc_spi_check_presence+0x3a>
  {
    // If memory is not initialized, try to initialize it (CMD0)
    // If no valid response, there is no card
    while ((r1 = sd_mmc_spi_send_command(MMC_GO_IDLE_STATE, 0)) != 0x01)
    {
      spi_write(SD_MMC_SPI,0xFF);            // write dummy byte
800022d8:	04 9b       	mov	r11,r2
800022da:	02 9c       	mov	r12,r1
800022dc:	f0 1f 00 13 	mcall	80002328 <sd_mmc_spi_check_presence+0x74>
      retry++;
800022e0:	2f f7       	sub	r7,-1
800022e2:	5c 87       	casts.h	r7
      if (retry > 10)
800022e4:	ea 07 19 00 	cp.h	r7,r5
800022e8:	c0 31       	brne	800022ee <sd_mmc_spi_check_presence+0x3a>
800022ea:	e3 cf 80 fe 	ldm	sp++,r1-r7,pc,r12=0
  retry = 0;
  if (sd_mmc_spi_init_done == false)
  {
    // If memory is not initialized, try to initialize it (CMD0)
    // If no valid response, there is no card
    while ((r1 = sd_mmc_spi_send_command(MMC_GO_IDLE_STATE, 0)) != 0x01)
800022ee:	08 9b       	mov	r11,r4
800022f0:	08 9c       	mov	r12,r4
800022f2:	f0 1f 00 0f 	mcall	8000232c <sd_mmc_spi_check_presence+0x78>
800022f6:	a6 8c       	st.b	r3[0x0],r12
800022f8:	ec 0c 18 00 	cp.b	r12,r6
800022fc:	ce e1       	brne	800022d8 <sd_mmc_spi_check_presence+0x24>
800022fe:	c0 e8       	rjmp	8000231a <sd_mmc_spi_check_presence+0x66>
    return true;
  }
  else
  {
    // If memory already initialized, send a CRC command (CMD59) (supported only if card is initialized)
    if ((r1 = sd_mmc_spi_send_command(MMC_CRC_ON_OFF, 0)) == 0x00)
80002300:	30 0b       	mov	r11,0
80002302:	33 bc       	mov	r12,59
80002304:	f0 1f 00 0a 	mcall	8000232c <sd_mmc_spi_check_presence+0x78>
80002308:	48 78       	lddpc	r8,80002324 <sd_mmc_spi_check_presence+0x70>
8000230a:	b0 8c       	st.b	r8[0x0],r12
8000230c:	58 0c       	cp.w	r12,0
8000230e:	c0 60       	breq	8000231a <sd_mmc_spi_check_presence+0x66>
      return true;
    sd_mmc_spi_init_done = false;
80002310:	30 09       	mov	r9,0
80002312:	48 48       	lddpc	r8,80002320 <sd_mmc_spi_check_presence+0x6c>
80002314:	b0 89       	st.b	r8[0x0],r9
80002316:	e3 cf 80 fe 	ldm	sp++,r1-r7,pc,r12=0
    return false;
8000231a:	e3 cf 90 fe 	ldm	sp++,r1-r7,pc,r12=1
8000231e:	00 00       	add	r0,r0
80002320:	00 00       	add	r0,r0
80002322:	00 54       	eor	r4,r0
80002324:	00 00       	add	r0,r0
80002326:	03 68       	ld.uh	r8,--r1
80002328:	80 00       	ld.sh	r0,r0[0x0]
8000232a:	2e 32       	sub	r2,-29
8000232c:	80 00       	ld.sh	r0,r0[0x0]
8000232e:	22 74       	sub	r4,39

80002330 <sd_mmc_spi_check_hc>:
//!           SD_CARD      Detected card is SD
//!           ERROR


int sd_mmc_spi_check_hc(void)
{
80002330:	eb cd 40 c0 	pushm	r6-r7,lr
  unsigned char hc_bit;
  // wait for MMC not busy
  if (false == sd_mmc_spi_wait_not_busy())
80002334:	f0 1f 00 1c 	mcall	800023a4 <sd_mmc_spi_check_hc+0x74>
80002338:	c0 31       	brne	8000233e <sd_mmc_spi_check_hc+0xe>
8000233a:	e3 cf c0 c0 	ldm	sp++,r6-r7,pc,r12=-1
    return SD_FAILURE;

  spi_selectChip(SD_MMC_SPI, SD_MMC_SPI_NPCS);    // select SD_MMC_SPI
8000233e:	30 1b       	mov	r11,1
80002340:	fe 7c 28 00 	mov	r12,-55296
80002344:	f0 1f 00 19 	mcall	800023a8 <sd_mmc_spi_check_hc+0x78>
  r1 = sd_mmc_spi_command(SD_READ_OCR, 0);
80002348:	30 0b       	mov	r11,0
8000234a:	33 ac       	mov	r12,58
8000234c:	f0 1f 00 18 	mcall	800023ac <sd_mmc_spi_check_hc+0x7c>
80002350:	49 88       	lddpc	r8,800023b0 <sd_mmc_spi_check_hc+0x80>
80002352:	b0 8c       	st.b	r8[0x0],r12
  // check for valid response
  if(r1 != 0) {
80002354:	58 0c       	cp.w	r12,0
80002356:	c0 80       	breq	80002366 <sd_mmc_spi_check_hc+0x36>
    spi_unselectChip(SD_MMC_SPI, SD_MMC_SPI_NPCS);  // unselect SD_MMC_SPI
80002358:	30 1b       	mov	r11,1
8000235a:	fe 7c 28 00 	mov	r12,-55296
8000235e:	f0 1f 00 16 	mcall	800023b4 <sd_mmc_spi_check_hc+0x84>
80002362:	e3 cf c0 c0 	ldm	sp++,r6-r7,pc,r12=-1
    return SD_FAILURE;
  }
  hc_bit = sd_mmc_spi_send_and_read(0xFF);
80002366:	e0 6c 00 ff 	mov	r12,255
8000236a:	f0 1f 00 14 	mcall	800023b8 <sd_mmc_spi_check_hc+0x88>
8000236e:	18 96       	mov	r6,r12
  r1 = sd_mmc_spi_send_and_read(0xFF);
80002370:	e0 6c 00 ff 	mov	r12,255
80002374:	f0 1f 00 11 	mcall	800023b8 <sd_mmc_spi_check_hc+0x88>
80002378:	48 e7       	lddpc	r7,800023b0 <sd_mmc_spi_check_hc+0x80>
8000237a:	ae 8c       	st.b	r7[0x0],r12
  r1 = sd_mmc_spi_send_and_read(0xFF);
8000237c:	e0 6c 00 ff 	mov	r12,255
80002380:	f0 1f 00 0e 	mcall	800023b8 <sd_mmc_spi_check_hc+0x88>
80002384:	ae 8c       	st.b	r7[0x0],r12
  r1 = sd_mmc_spi_send_and_read(0xFF);
80002386:	e0 6c 00 ff 	mov	r12,255
8000238a:	f0 1f 00 0c 	mcall	800023b8 <sd_mmc_spi_check_hc+0x88>
8000238e:	ae 8c       	st.b	r7[0x0],r12
  spi_unselectChip(SD_MMC_SPI, SD_MMC_SPI_NPCS);  // unselect SD_MMC_SPI
80002390:	30 1b       	mov	r11,1
80002392:	fe 7c 28 00 	mov	r12,-55296
80002396:	f0 1f 00 08 	mcall	800023b4 <sd_mmc_spi_check_hc+0x84>
8000239a:	f9 d6 c0 c1 	bfextu	r12,r6,0x6,0x1
  if(hc_bit & 0x40) {
      return SDHC_CARD;
  }
  return 0;
}
8000239e:	e3 cd 80 c0 	ldm	sp++,r6-r7,pc
800023a2:	00 00       	add	r0,r0
800023a4:	80 00       	ld.sh	r0,r0[0x0]
800023a6:	21 54       	sub	r4,21
800023a8:	80 00       	ld.sh	r0,r0[0x0]
800023aa:	2d 02       	sub	r2,-48
800023ac:	80 00       	ld.sh	r0,r0[0x0]
800023ae:	21 ac       	sub	r12,26
800023b0:	00 00       	add	r0,r0
800023b2:	03 68       	ld.uh	r8,--r1
800023b4:	80 00       	ld.sh	r0,r0[0x0]
800023b6:	2d 4e       	sub	lr,-44
800023b8:	80 00       	ld.sh	r0,r0[0x0]
800023ba:	21 20       	sub	r0,18

800023bc <sd_mmc_spi_get_if>:
//!                true
//!                SD_MMC


int sd_mmc_spi_get_if(void)
{
800023bc:	eb cd 40 80 	pushm	r7,lr
  // wait for MMC not busy
  if (false == sd_mmc_spi_wait_not_busy())
800023c0:	f0 1f 00 27 	mcall	8000245c <sd_mmc_spi_get_if+0xa0>
800023c4:	c0 31       	brne	800023ca <sd_mmc_spi_get_if+0xe>
800023c6:	e3 cf c0 80 	ldm	sp++,r7,pc,r12=-1
    return SD_FAILURE;

  spi_selectChip(SD_MMC_SPI, SD_MMC_SPI_NPCS);    // select SD_MMC_SPI
800023ca:	30 1b       	mov	r11,1
800023cc:	fe 7c 28 00 	mov	r12,-55296
800023d0:	f0 1f 00 24 	mcall	80002460 <sd_mmc_spi_get_if+0xa4>
  r1 = sd_mmc_spi_command(MMC_SEND_IF_COND, 0x000001AA);
800023d4:	e0 6b 01 aa 	mov	r11,426
800023d8:	30 8c       	mov	r12,8
800023da:	f0 1f 00 23 	mcall	80002464 <sd_mmc_spi_get_if+0xa8>
800023de:	4a 38       	lddpc	r8,80002468 <sd_mmc_spi_get_if+0xac>
800023e0:	b0 8c       	st.b	r8[0x0],r12
  // check for valid response
  if((r1 & MMC_R1_ILLEGAL_COM) != 0) {
800023e2:	e2 1c 00 04 	andl	r12,0x4,COH
800023e6:	c0 80       	breq	800023f6 <sd_mmc_spi_get_if+0x3a>
    spi_unselectChip(SD_MMC_SPI, SD_MMC_SPI_NPCS);  // unselect SD_MMC_SPI
800023e8:	30 1b       	mov	r11,1
800023ea:	fe 7c 28 00 	mov	r12,-55296
800023ee:	f0 1f 00 20 	mcall	8000246c <sd_mmc_spi_get_if+0xb0>
800023f2:	e3 cf 80 80 	ldm	sp++,r7,pc,r12=0
    return SD_MMC;
  }
  r1 = sd_mmc_spi_send_and_read(0xFF);
800023f6:	e0 6c 00 ff 	mov	r12,255
800023fa:	f0 1f 00 1e 	mcall	80002470 <sd_mmc_spi_get_if+0xb4>
800023fe:	49 b7       	lddpc	r7,80002468 <sd_mmc_spi_get_if+0xac>
80002400:	ae 8c       	st.b	r7[0x0],r12
  r1 = sd_mmc_spi_send_and_read(0xFF);
80002402:	e0 6c 00 ff 	mov	r12,255
80002406:	f0 1f 00 1b 	mcall	80002470 <sd_mmc_spi_get_if+0xb4>
8000240a:	ae 8c       	st.b	r7[0x0],r12
  r1 = sd_mmc_spi_send_and_read(0xFF);
8000240c:	e0 6c 00 ff 	mov	r12,255
80002410:	f0 1f 00 18 	mcall	80002470 <sd_mmc_spi_get_if+0xb4>
80002414:	ae 8c       	st.b	r7[0x0],r12
  if((r1 & 0x01) == 0) {
80002416:	f9 dc c0 01 	bfextu	r12,r12,0x0,0x1
8000241a:	c0 81       	brne	8000242a <sd_mmc_spi_get_if+0x6e>
    spi_unselectChip(SD_MMC_SPI, SD_MMC_SPI_NPCS);  // unselect SD_MMC_SPI
8000241c:	30 1b       	mov	r11,1
8000241e:	fe 7c 28 00 	mov	r12,-55296
80002422:	f0 1f 00 13 	mcall	8000246c <sd_mmc_spi_get_if+0xb0>
80002426:	e3 cf c0 80 	ldm	sp++,r7,pc,r12=-1
    return SD_FAILURE;
  }
  r1 = sd_mmc_spi_send_and_read(0xFF);
8000242a:	e0 6c 00 ff 	mov	r12,255
8000242e:	f0 1f 00 11 	mcall	80002470 <sd_mmc_spi_get_if+0xb4>
80002432:	48 e8       	lddpc	r8,80002468 <sd_mmc_spi_get_if+0xac>
80002434:	b0 8c       	st.b	r8[0x0],r12
  if(r1 != 0xaa) {
80002436:	3a a8       	mov	r8,-86
80002438:	f0 0c 18 00 	cp.b	r12,r8
8000243c:	c0 80       	breq	8000244c <sd_mmc_spi_get_if+0x90>
    spi_unselectChip(SD_MMC_SPI, SD_MMC_SPI_NPCS);  // unselect SD_MMC_SPI
8000243e:	30 1b       	mov	r11,1
80002440:	fe 7c 28 00 	mov	r12,-55296
80002444:	f0 1f 00 0a 	mcall	8000246c <sd_mmc_spi_get_if+0xb0>
80002448:	e3 cf c0 80 	ldm	sp++,r7,pc,r12=-1
    return SD_FAILURE; /* wrong test pattern */
  }
  spi_unselectChip(SD_MMC_SPI, SD_MMC_SPI_NPCS);  // unselect SD_MMC_SPI
8000244c:	30 1b       	mov	r11,1
8000244e:	fe 7c 28 00 	mov	r12,-55296
80002452:	f0 1f 00 07 	mcall	8000246c <sd_mmc_spi_get_if+0xb0>
80002456:	e3 cf 90 80 	ldm	sp++,r7,pc,r12=1
8000245a:	00 00       	add	r0,r0
8000245c:	80 00       	ld.sh	r0,r0[0x0]
8000245e:	21 54       	sub	r4,21
80002460:	80 00       	ld.sh	r0,r0[0x0]
80002462:	2d 02       	sub	r2,-48
80002464:	80 00       	ld.sh	r0,r0[0x0]
80002466:	21 ac       	sub	r12,26
80002468:	00 00       	add	r0,r0
8000246a:	03 68       	ld.uh	r8,--r1
8000246c:	80 00       	ld.sh	r0,r0[0x0]
8000246e:	2d 4e       	sub	lr,-44
80002470:	80 00       	ld.sh	r0,r0[0x0]
80002472:	21 20       	sub	r0,18

80002474 <sd_mmc_spi_get_csd>:
//! @param  buffer to fill
//!
//! @return bit
//!         true / false
bool sd_mmc_spi_get_csd(uint8_t *buffer)
{
80002474:	eb cd 40 fc 	pushm	r2-r7,lr
80002478:	20 1d       	sub	sp,4
8000247a:	18 92       	mov	r2,r12
uint8_t retry;
unsigned short data_read;
  // wait for MMC not busy
  if (false == sd_mmc_spi_wait_not_busy())
8000247c:	f0 1f 00 32 	mcall	80002544 <sd_mmc_spi_get_csd+0xd0>
80002480:	c5 f0       	breq	8000253e <sd_mmc_spi_get_csd+0xca>
    return false;

  spi_selectChip(SD_MMC_SPI, SD_MMC_SPI_NPCS);    // select SD_MMC_SPI
80002482:	30 1b       	mov	r11,1
80002484:	fe 7c 28 00 	mov	r12,-55296
80002488:	f0 1f 00 30 	mcall	80002548 <sd_mmc_spi_get_csd+0xd4>
  // issue command
  r1 = sd_mmc_spi_command(MMC_SEND_CSD, 0);
8000248c:	30 0b       	mov	r11,0
8000248e:	30 9c       	mov	r12,9
80002490:	f0 1f 00 2f 	mcall	8000254c <sd_mmc_spi_get_csd+0xd8>
80002494:	4a f8       	lddpc	r8,80002550 <sd_mmc_spi_get_csd+0xdc>
80002496:	b0 8c       	st.b	r8[0x0],r12
  // check for valid response
  if(r1 != 0x00)
80002498:	58 0c       	cp.w	r12,0
8000249a:	c0 81       	brne	800024aa <sd_mmc_spi_get_csd+0x36>
8000249c:	30 07       	mov	r7,0
    sd_mmc_spi_init_done = false;
    return false;
  }
  // wait for block start
  retry = 0;
  while((r1 = sd_mmc_spi_send_and_read(0xFF)) != MMC_STARTBLOCK_READ)
8000249e:	e0 64 00 ff 	mov	r4,255
800024a2:	10 93       	mov	r3,r8
800024a4:	3f e6       	mov	r6,-2
  {
    if (retry > 8)
800024a6:	30 95       	mov	r5,9
800024a8:	c1 78       	rjmp	800024d6 <sd_mmc_spi_get_csd+0x62>
  // issue command
  r1 = sd_mmc_spi_command(MMC_SEND_CSD, 0);
  // check for valid response
  if(r1 != 0x00)
  {
    spi_unselectChip(SD_MMC_SPI, SD_MMC_SPI_NPCS);  // unselect SD_MMC_SPI
800024aa:	30 1b       	mov	r11,1
800024ac:	fe 7c 28 00 	mov	r12,-55296
800024b0:	f0 1f 00 29 	mcall	80002554 <sd_mmc_spi_get_csd+0xe0>
    sd_mmc_spi_init_done = false;
800024b4:	30 09       	mov	r9,0
800024b6:	4a 98       	lddpc	r8,80002558 <sd_mmc_spi_get_csd+0xe4>
800024b8:	b0 89       	st.b	r8[0x0],r9
800024ba:	30 0c       	mov	r12,0
    return false;
800024bc:	c4 18       	rjmp	8000253e <sd_mmc_spi_get_csd+0xca>
  }
  // wait for block start
  retry = 0;
  while((r1 = sd_mmc_spi_send_and_read(0xFF)) != MMC_STARTBLOCK_READ)
  {
    if (retry > 8)
800024be:	ea 07 18 00 	cp.b	r7,r5
800024c2:	c0 81       	brne	800024d2 <sd_mmc_spi_get_csd+0x5e>
    {
      spi_unselectChip(SD_MMC_SPI, SD_MMC_SPI_NPCS);  // unselect SD_MMC_SPI
800024c4:	30 1b       	mov	r11,1
800024c6:	fe 7c 28 00 	mov	r12,-55296
800024ca:	f0 1f 00 23 	mcall	80002554 <sd_mmc_spi_get_csd+0xe0>
800024ce:	30 0c       	mov	r12,0
      return false;
800024d0:	c3 78       	rjmp	8000253e <sd_mmc_spi_get_csd+0xca>
    }
    retry++;
800024d2:	2f f7       	sub	r7,-1
800024d4:	5c 57       	castu.b	r7
    sd_mmc_spi_init_done = false;
    return false;
  }
  // wait for block start
  retry = 0;
  while((r1 = sd_mmc_spi_send_and_read(0xFF)) != MMC_STARTBLOCK_READ)
800024d6:	08 9c       	mov	r12,r4
800024d8:	f0 1f 00 21 	mcall	8000255c <sd_mmc_spi_get_csd+0xe8>
800024dc:	a6 8c       	st.b	r3[0x0],r12
800024de:	ec 0c 18 00 	cp.b	r12,r6
800024e2:	ce e1       	brne	800024be <sd_mmc_spi_get_csd+0x4a>
800024e4:	30 07       	mov	r7,0
    retry++;
  }
  // store valid data block
  for (retry = 0; retry <16; retry++)
  {
   spi_write(SD_MMC_SPI,0xFF);
800024e6:	e0 65 00 ff 	mov	r5,255
800024ea:	fe 76 28 00 	mov	r6,-55296
   spi_read(SD_MMC_SPI,&data_read);
800024ee:	fa c4 ff fe 	sub	r4,sp,-2
    retry++;
  }
  // store valid data block
  for (retry = 0; retry <16; retry++)
  {
   spi_write(SD_MMC_SPI,0xFF);
800024f2:	0a 9b       	mov	r11,r5
800024f4:	0c 9c       	mov	r12,r6
800024f6:	f0 1f 00 1b 	mcall	80002560 <sd_mmc_spi_get_csd+0xec>
   spi_read(SD_MMC_SPI,&data_read);
800024fa:	08 9b       	mov	r11,r4
800024fc:	0c 9c       	mov	r12,r6
800024fe:	f0 1f 00 1a 	mcall	80002564 <sd_mmc_spi_get_csd+0xf0>
    buffer[retry] = data_read;
80002502:	9a 18       	ld.sh	r8,sp[0x2]
80002504:	e4 07 0b 08 	st.b	r2[r7],r8
80002508:	2f f7       	sub	r7,-1
      return false;
    }
    retry++;
  }
  // store valid data block
  for (retry = 0; retry <16; retry++)
8000250a:	59 07       	cp.w	r7,16
8000250c:	cf 31       	brne	800024f2 <sd_mmc_spi_get_csd+0x7e>
  {
   spi_write(SD_MMC_SPI,0xFF);
   spi_read(SD_MMC_SPI,&data_read);
    buffer[retry] = data_read;
  }
   spi_write(SD_MMC_SPI,0xFF);   // load CRC (not used)
8000250e:	e0 6b 00 ff 	mov	r11,255
80002512:	fe 7c 28 00 	mov	r12,-55296
80002516:	f0 1f 00 13 	mcall	80002560 <sd_mmc_spi_get_csd+0xec>
   spi_write(SD_MMC_SPI,0xFF);
8000251a:	e0 6b 00 ff 	mov	r11,255
8000251e:	fe 7c 28 00 	mov	r12,-55296
80002522:	f0 1f 00 10 	mcall	80002560 <sd_mmc_spi_get_csd+0xec>
   spi_write(SD_MMC_SPI,0xFF);   // give clock again to end transaction
80002526:	e0 6b 00 ff 	mov	r11,255
8000252a:	fe 7c 28 00 	mov	r12,-55296
8000252e:	f0 1f 00 0d 	mcall	80002560 <sd_mmc_spi_get_csd+0xec>
  spi_unselectChip(SD_MMC_SPI, SD_MMC_SPI_NPCS);  // unselect SD_MMC_SPI
80002532:	30 1b       	mov	r11,1
80002534:	fe 7c 28 00 	mov	r12,-55296
80002538:	f0 1f 00 07 	mcall	80002554 <sd_mmc_spi_get_csd+0xe0>
8000253c:	30 1c       	mov	r12,1
  return true;
}
8000253e:	2f fd       	sub	sp,-4
80002540:	e3 cd 80 fc 	ldm	sp++,r2-r7,pc
80002544:	80 00       	ld.sh	r0,r0[0x0]
80002546:	21 54       	sub	r4,21
80002548:	80 00       	ld.sh	r0,r0[0x0]
8000254a:	2d 02       	sub	r2,-48
8000254c:	80 00       	ld.sh	r0,r0[0x0]
8000254e:	21 ac       	sub	r12,26
80002550:	00 00       	add	r0,r0
80002552:	03 68       	ld.uh	r8,--r1
80002554:	80 00       	ld.sh	r0,r0[0x0]
80002556:	2d 4e       	sub	lr,-44
80002558:	00 00       	add	r0,r0
8000255a:	00 54       	eor	r4,r0
8000255c:	80 00       	ld.sh	r0,r0[0x0]
8000255e:	21 20       	sub	r0,18
80002560:	80 00       	ld.sh	r0,r0[0x0]
80002562:	2e 32       	sub	r2,-29
80002564:	80 00       	ld.sh	r0,r0[0x0]
80002566:	2e 4e       	sub	lr,-28

80002568 <sd_mmc_spi_internal_init>:
//!
//!
//! @return bit
//!   The memory is ready     -> true (always)
bool sd_mmc_spi_internal_init(void)
{
80002568:	d4 31       	pushm	r0-r7,lr
  uint16_t retry;
  int i;
  int if_cond;

  // Start at low frequency
  sd_mmc_opt.baudrate = 400000;
8000256a:	fe fb 02 66 	ld.w	r11,pc[614]
8000256e:	e6 68 1a 80 	mov	r8,400000
80002572:	97 18       	st.w	r11[0x4],r8
  spi_setupChipReg(SD_MMC_SPI, &sd_mmc_opt, sd_mmc_pba_hz);
80002574:	fe f8 02 60 	ld.w	r8,pc[608]
80002578:	70 0a       	ld.w	r10,r8[0x0]
8000257a:	fe 7c 28 00 	mov	r12,-55296
8000257e:	f0 1f 00 97 	mcall	800027d8 <sd_mmc_spi_internal_init+0x270>

  /* card needs 74 cycles minimum to start up */
  spi_selectChip(SD_MMC_SPI, SD_MMC_SPI_NPCS);    // select SD_MMC_SPI
80002582:	30 1b       	mov	r11,1
80002584:	fe 7c 28 00 	mov	r12,-55296
80002588:	f0 1f 00 95 	mcall	800027dc <sd_mmc_spi_internal_init+0x274>
8000258c:	30 07       	mov	r7,0
  for(i = 0; i < 10; ++i) {
    spi_write(SD_MMC_SPI,0xFF);
8000258e:	e0 66 00 ff 	mov	r6,255
80002592:	fe 75 28 00 	mov	r5,-55296
80002596:	0c 9b       	mov	r11,r6
80002598:	0a 9c       	mov	r12,r5
8000259a:	f0 1f 00 92 	mcall	800027e0 <sd_mmc_spi_internal_init+0x278>
  sd_mmc_opt.baudrate = 400000;
  spi_setupChipReg(SD_MMC_SPI, &sd_mmc_opt, sd_mmc_pba_hz);

  /* card needs 74 cycles minimum to start up */
  spi_selectChip(SD_MMC_SPI, SD_MMC_SPI_NPCS);    // select SD_MMC_SPI
  for(i = 0; i < 10; ++i) {
8000259e:	2f f7       	sub	r7,-1
800025a0:	58 a7       	cp.w	r7,10
800025a2:	cf a1       	brne	80002596 <sd_mmc_spi_internal_init+0x2e>
    spi_write(SD_MMC_SPI,0xFF);
  }
  spi_unselectChip(SD_MMC_SPI, SD_MMC_SPI_NPCS);  // unselect SD_MMC_SPI
800025a4:	30 1b       	mov	r11,1
800025a6:	fe 7c 28 00 	mov	r12,-55296
800025aa:	f0 1f 00 8f 	mcall	800027e4 <sd_mmc_spi_internal_init+0x27c>

  // RESET THE MEMORY CARD
  sd_mmc_spi_init_done = false;
800025ae:	30 08       	mov	r8,0
800025b0:	fe f9 02 38 	ld.w	r9,pc[568]
800025b4:	b2 88       	st.b	r9[0x0],r8
  card_type = MMC_CARD;
800025b6:	fe f9 02 36 	ld.w	r9,pc[566]
800025ba:	b2 88       	st.b	r9[0x0],r8
  retry = 0;
  do
  {
    // reset card and go to SPI mode
    r1 = sd_mmc_spi_send_command(MMC_GO_IDLE_STATE, 0);
800025bc:	30 0b       	mov	r11,0
800025be:	16 9c       	mov	r12,r11
800025c0:	f0 1f 00 8c 	mcall	800027f0 <sd_mmc_spi_internal_init+0x288>
800025c4:	fe f8 02 30 	ld.w	r8,pc[560]
800025c8:	b0 8c       	st.b	r8[0x0],r12
    spi_write(SD_MMC_SPI,0xFF);            // write dummy byte
800025ca:	e0 6b 00 ff 	mov	r11,255
800025ce:	fe 7c 28 00 	mov	r12,-55296
800025d2:	f0 1f 00 84 	mcall	800027e0 <sd_mmc_spi_internal_init+0x278>
800025d6:	30 17       	mov	r7,1
    // do retry counter
    retry++;
    if(retry > 100)
      return false;
  }
  while(r1 != 0x01);   // check memory enters idle_state
800025d8:	fe f6 02 1c 	ld.w	r6,pc[540]
800025dc:	30 15       	mov	r5,1
  card_type = MMC_CARD;
  retry = 0;
  do
  {
    // reset card and go to SPI mode
    r1 = sd_mmc_spi_send_command(MMC_GO_IDLE_STATE, 0);
800025de:	30 03       	mov	r3,0
    spi_write(SD_MMC_SPI,0xFF);            // write dummy byte
800025e0:	e0 62 00 ff 	mov	r2,255
800025e4:	fe 71 28 00 	mov	r1,-55296
    // do retry counter
    retry++;
    if(retry > 100)
800025e8:	36 54       	mov	r4,101
800025ea:	c1 08       	rjmp	8000260a <sd_mmc_spi_internal_init+0xa2>
  card_type = MMC_CARD;
  retry = 0;
  do
  {
    // reset card and go to SPI mode
    r1 = sd_mmc_spi_send_command(MMC_GO_IDLE_STATE, 0);
800025ec:	06 9b       	mov	r11,r3
800025ee:	06 9c       	mov	r12,r3
800025f0:	f0 1f 00 80 	mcall	800027f0 <sd_mmc_spi_internal_init+0x288>
800025f4:	ac 8c       	st.b	r6[0x0],r12
    spi_write(SD_MMC_SPI,0xFF);            // write dummy byte
800025f6:	04 9b       	mov	r11,r2
800025f8:	02 9c       	mov	r12,r1
800025fa:	f0 1f 00 7a 	mcall	800027e0 <sd_mmc_spi_internal_init+0x278>
    // do retry counter
    retry++;
800025fe:	2f f7       	sub	r7,-1
80002600:	5c 87       	casts.h	r7
    if(retry > 100)
80002602:	e8 07 19 00 	cp.h	r7,r4
80002606:	e0 80 00 e4 	breq	800027ce <sd_mmc_spi_internal_init+0x266>
      return false;
  }
  while(r1 != 0x01);   // check memory enters idle_state
8000260a:	0d 88       	ld.ub	r8,r6[0x0]
8000260c:	ea 08 18 00 	cp.b	r8,r5
80002610:	ce e1       	brne	800025ec <sd_mmc_spi_internal_init+0x84>

  if_cond = sd_mmc_spi_get_if();
80002612:	f0 1f 00 7a 	mcall	800027f8 <sd_mmc_spi_internal_init+0x290>
  if(if_cond == -1) {
80002616:	5b fc       	cp.w	r12,-1
80002618:	e0 80 00 db 	breq	800027ce <sd_mmc_spi_internal_init+0x266>
      return false; // card is bad
  } else if (if_cond == 1) {
8000261c:	58 1c       	cp.w	r12,1
8000261e:	c0 51       	brne	80002628 <sd_mmc_spi_internal_init+0xc0>
      card_type = SD_CARD_2;
80002620:	30 29       	mov	r9,2
80002622:	4f 38       	lddpc	r8,800027ec <sd_mmc_spi_internal_init+0x284>
80002624:	b0 89       	st.b	r8[0x0],r9
80002626:	c4 c8       	rjmp	800026be <sd_mmc_spi_internal_init+0x156>
  } else {
    // IDENTIFICATION OF THE CARD TYPE (SD or MMC)
    // Both cards will accept CMD55 command but only the SD card will respond to ACMD41
    r1 = sd_mmc_spi_send_command(SD_APP_CMD55,0);
80002628:	30 0b       	mov	r11,0
8000262a:	33 7c       	mov	r12,55
8000262c:	f0 1f 00 71 	mcall	800027f0 <sd_mmc_spi_internal_init+0x288>
80002630:	4f 17       	lddpc	r7,800027f4 <sd_mmc_spi_internal_init+0x28c>
80002632:	ae 8c       	st.b	r7[0x0],r12
    spi_write(SD_MMC_SPI,0xFF);  // write dummy byte
80002634:	e0 6b 00 ff 	mov	r11,255
80002638:	fe 7c 28 00 	mov	r12,-55296
8000263c:	f0 1f 00 69 	mcall	800027e0 <sd_mmc_spi_internal_init+0x278>

    r1 = sd_mmc_spi_send_command(SD_SEND_OP_COND_ACMD, 0);
80002640:	30 0b       	mov	r11,0
80002642:	32 9c       	mov	r12,41
80002644:	f0 1f 00 6b 	mcall	800027f0 <sd_mmc_spi_internal_init+0x288>
80002648:	ae 8c       	st.b	r7[0x0],r12
    spi_write(SD_MMC_SPI,0xFF);  // write dummy byte
8000264a:	e0 6b 00 ff 	mov	r11,255
8000264e:	fe 7c 28 00 	mov	r12,-55296
80002652:	f0 1f 00 64 	mcall	800027e0 <sd_mmc_spi_internal_init+0x278>

    if ((r1&0xFE) == 0) {   // ignore "in_idle_state" flag bit
80002656:	0f 88       	ld.ub	r8,r7[0x0]
80002658:	e2 18 00 fe 	andl	r8,0xfe,COH
8000265c:	c0 51       	brne	80002666 <sd_mmc_spi_internal_init+0xfe>
      card_type = SD_CARD;    // card has accepted the command, this is a SD card
8000265e:	30 19       	mov	r9,1
80002660:	4e 38       	lddpc	r8,800027ec <sd_mmc_spi_internal_init+0x284>
80002662:	b0 89       	st.b	r8[0x0],r9
80002664:	c2 d8       	rjmp	800026be <sd_mmc_spi_internal_init+0x156>
    } else {
      card_type = MMC_CARD;   // card has not responded, this is a MMC card
80002666:	30 09       	mov	r9,0
80002668:	4e 18       	lddpc	r8,800027ec <sd_mmc_spi_internal_init+0x284>
8000266a:	b0 89       	st.b	r8[0x0],r9
      // reset card again
      retry = 0;
      do {
        // reset card again
        r1 = sd_mmc_spi_send_command(MMC_GO_IDLE_STATE, 0);
8000266c:	30 0b       	mov	r11,0
8000266e:	16 9c       	mov	r12,r11
80002670:	f0 1f 00 60 	mcall	800027f0 <sd_mmc_spi_internal_init+0x288>
80002674:	4e 08       	lddpc	r8,800027f4 <sd_mmc_spi_internal_init+0x28c>
80002676:	b0 8c       	st.b	r8[0x0],r12
        spi_write(SD_MMC_SPI,0xFF);            // write dummy byte
80002678:	e0 6b 00 ff 	mov	r11,255
8000267c:	fe 7c 28 00 	mov	r12,-55296
80002680:	f0 1f 00 58 	mcall	800027e0 <sd_mmc_spi_internal_init+0x278>
80002684:	30 17       	mov	r7,1
        // do retry counter
        retry++;
        if(retry > 100)
          return false;
      }
      while(r1 != 0x01);   // check memory enters idle_state
80002686:	4d c6       	lddpc	r6,800027f4 <sd_mmc_spi_internal_init+0x28c>
80002688:	30 15       	mov	r5,1
      card_type = MMC_CARD;   // card has not responded, this is a MMC card
      // reset card again
      retry = 0;
      do {
        // reset card again
        r1 = sd_mmc_spi_send_command(MMC_GO_IDLE_STATE, 0);
8000268a:	30 03       	mov	r3,0
        spi_write(SD_MMC_SPI,0xFF);            // write dummy byte
8000268c:	e0 62 00 ff 	mov	r2,255
80002690:	fe 71 28 00 	mov	r1,-55296
        // do retry counter
        retry++;
        if(retry > 100)
80002694:	36 54       	mov	r4,101
80002696:	c1 08       	rjmp	800026b6 <sd_mmc_spi_internal_init+0x14e>
      card_type = MMC_CARD;   // card has not responded, this is a MMC card
      // reset card again
      retry = 0;
      do {
        // reset card again
        r1 = sd_mmc_spi_send_command(MMC_GO_IDLE_STATE, 0);
80002698:	06 9b       	mov	r11,r3
8000269a:	06 9c       	mov	r12,r3
8000269c:	f0 1f 00 55 	mcall	800027f0 <sd_mmc_spi_internal_init+0x288>
800026a0:	ac 8c       	st.b	r6[0x0],r12
        spi_write(SD_MMC_SPI,0xFF);            // write dummy byte
800026a2:	04 9b       	mov	r11,r2
800026a4:	02 9c       	mov	r12,r1
800026a6:	f0 1f 00 4f 	mcall	800027e0 <sd_mmc_spi_internal_init+0x278>
        // do retry counter
        retry++;
800026aa:	2f f7       	sub	r7,-1
800026ac:	5c 87       	casts.h	r7
        if(retry > 100)
800026ae:	e8 07 19 00 	cp.h	r7,r4
800026b2:	e0 80 00 8e 	breq	800027ce <sd_mmc_spi_internal_init+0x266>
          return false;
      }
      while(r1 != 0x01);   // check memory enters idle_state
800026b6:	0d 88       	ld.ub	r8,r6[0x0]
800026b8:	ea 08 18 00 	cp.b	r8,r5
800026bc:	ce e1       	brne	80002698 <sd_mmc_spi_internal_init+0x130>
800026be:	30 07       	mov	r7,0

  // CONTINUE INTERNAL INITIALIZATION OF THE CARD
  // Continue sending CMD1 while memory card is in idle state
  retry = 0;
  do {
    switch(card_type) {
800026c0:	4c b4       	lddpc	r4,800027ec <sd_mmc_spi_internal_init+0x284>
800026c2:	30 15       	mov	r5,1
    case MMC_CARD:
      r1 = sd_mmc_spi_send_command(MMC_SEND_OP_COND, 0);
      spi_write(SD_MMC_SPI,0xFF);            // write dummy byte
      break;
    case SD_CARD:
      sd_mmc_spi_send_command(SD_APP_CMD55,0);
800026c4:	0e 93       	mov	r3,r7
800026c6:	33 70       	mov	r0,55
      r1 = sd_mmc_spi_send_command(SD_SEND_OP_COND_ACMD, 0);
800026c8:	4c b6       	lddpc	r6,800027f4 <sd_mmc_spi_internal_init+0x28c>
      spi_write(SD_MMC_SPI,0xFF);            // write dummy byte
800026ca:	e0 62 00 ff 	mov	r2,255
800026ce:	fe 71 28 00 	mov	r1,-55296

  // CONTINUE INTERNAL INITIALIZATION OF THE CARD
  // Continue sending CMD1 while memory card is in idle state
  retry = 0;
  do {
    switch(card_type) {
800026d2:	09 88       	ld.ub	r8,r4[0x0]
800026d4:	ea 08 18 00 	cp.b	r8,r5
800026d8:	c1 10       	breq	800026fa <sd_mmc_spi_internal_init+0x192>
800026da:	c0 63       	brcs	800026e6 <sd_mmc_spi_internal_init+0x17e>
800026dc:	30 29       	mov	r9,2
800026de:	f2 08 18 00 	cp.b	r8,r9
800026e2:	c2 81       	brne	80002732 <sd_mmc_spi_internal_init+0x1ca>
800026e4:	c1 98       	rjmp	80002716 <sd_mmc_spi_internal_init+0x1ae>
    case MMC_CARD:
      r1 = sd_mmc_spi_send_command(MMC_SEND_OP_COND, 0);
800026e6:	06 9b       	mov	r11,r3
800026e8:	30 1c       	mov	r12,1
800026ea:	f0 1f 00 42 	mcall	800027f0 <sd_mmc_spi_internal_init+0x288>
800026ee:	ac 8c       	st.b	r6[0x0],r12
      spi_write(SD_MMC_SPI,0xFF);            // write dummy byte
800026f0:	04 9b       	mov	r11,r2
800026f2:	02 9c       	mov	r12,r1
800026f4:	f0 1f 00 3b 	mcall	800027e0 <sd_mmc_spi_internal_init+0x278>
      break;
800026f8:	c1 d8       	rjmp	80002732 <sd_mmc_spi_internal_init+0x1ca>
    case SD_CARD:
      sd_mmc_spi_send_command(SD_APP_CMD55,0);
800026fa:	06 9b       	mov	r11,r3
800026fc:	00 9c       	mov	r12,r0
800026fe:	f0 1f 00 3d 	mcall	800027f0 <sd_mmc_spi_internal_init+0x288>
      r1 = sd_mmc_spi_send_command(SD_SEND_OP_COND_ACMD, 0);
80002702:	06 9b       	mov	r11,r3
80002704:	32 9c       	mov	r12,41
80002706:	f0 1f 00 3b 	mcall	800027f0 <sd_mmc_spi_internal_init+0x288>
8000270a:	ac 8c       	st.b	r6[0x0],r12
      spi_write(SD_MMC_SPI,0xFF);            // write dummy byte
8000270c:	04 9b       	mov	r11,r2
8000270e:	02 9c       	mov	r12,r1
80002710:	f0 1f 00 34 	mcall	800027e0 <sd_mmc_spi_internal_init+0x278>
      break;
80002714:	c0 f8       	rjmp	80002732 <sd_mmc_spi_internal_init+0x1ca>
    case SD_CARD_2:
      // set high capacity bit mask
      sd_mmc_spi_send_command(SD_APP_CMD55,0);
80002716:	06 9b       	mov	r11,r3
80002718:	00 9c       	mov	r12,r0
8000271a:	f0 1f 00 36 	mcall	800027f0 <sd_mmc_spi_internal_init+0x288>
      r1 = sd_mmc_spi_send_command(SD_SEND_OP_COND_ACMD, 0x40000000);
8000271e:	fc 1b 40 00 	movh	r11,0x4000
80002722:	32 9c       	mov	r12,41
80002724:	f0 1f 00 33 	mcall	800027f0 <sd_mmc_spi_internal_init+0x288>
80002728:	ac 8c       	st.b	r6[0x0],r12
      spi_write(SD_MMC_SPI,0xFF);            // write dummy byte
8000272a:	04 9b       	mov	r11,r2
8000272c:	02 9c       	mov	r12,r1
8000272e:	f0 1f 00 2d 	mcall	800027e0 <sd_mmc_spi_internal_init+0x278>
      break;
    }
     // do retry counter
     retry++;
80002732:	2f f7       	sub	r7,-1
80002734:	5c 87       	casts.h	r7
     if(retry == 50000)    // measured approx. 500 on several cards
80002736:	fe 78 c3 50 	mov	r8,-15536
8000273a:	f0 07 19 00 	cp.h	r7,r8
8000273e:	c4 80       	breq	800027ce <sd_mmc_spi_internal_init+0x266>
        return false;
  } while (r1);
80002740:	0d 89       	ld.ub	r9,r6[0x0]
80002742:	30 08       	mov	r8,0
80002744:	f0 09 18 00 	cp.b	r9,r8
80002748:	cc 51       	brne	800026d2 <sd_mmc_spi_internal_init+0x16a>

  // CHECK FOR SDHC
  if(card_type == SD_CARD_2) {
8000274a:	4a 98       	lddpc	r8,800027ec <sd_mmc_spi_internal_init+0x284>
8000274c:	11 89       	ld.ub	r9,r8[0x0]
8000274e:	30 28       	mov	r8,2
80002750:	f0 09 18 00 	cp.b	r9,r8
80002754:	c0 a1       	brne	80002768 <sd_mmc_spi_internal_init+0x200>
    if_cond = sd_mmc_spi_check_hc();
80002756:	f0 1f 00 2a 	mcall	800027fc <sd_mmc_spi_internal_init+0x294>
    if (if_cond == -1) {
8000275a:	5b fc       	cp.w	r12,-1
8000275c:	c3 90       	breq	800027ce <sd_mmc_spi_internal_init+0x266>
      return false;
    } else if (if_cond == 1){
8000275e:	58 1c       	cp.w	r12,1
80002760:	c0 41       	brne	80002768 <sd_mmc_spi_internal_init+0x200>
          card_type = SD_CARD_2_SDHC;
80002762:	30 39       	mov	r9,3
80002764:	4a 28       	lddpc	r8,800027ec <sd_mmc_spi_internal_init+0x284>
80002766:	b0 89       	st.b	r8[0x0],r9
      }
  }

  // DISABLE CRC TO SIMPLIFY AND SPEED UP COMMUNICATIONS
  r1 = sd_mmc_spi_send_command(MMC_CRC_ON_OFF, 0);  // disable CRC (should be already initialized on SPI init)
80002768:	30 0b       	mov	r11,0
8000276a:	33 bc       	mov	r12,59
8000276c:	f0 1f 00 21 	mcall	800027f0 <sd_mmc_spi_internal_init+0x288>
80002770:	4a 17       	lddpc	r7,800027f4 <sd_mmc_spi_internal_init+0x28c>
80002772:	ae 8c       	st.b	r7[0x0],r12
  spi_write(SD_MMC_SPI,0xFF);            // write dummy byte
80002774:	e0 6b 00 ff 	mov	r11,255
80002778:	fe 7c 28 00 	mov	r12,-55296
8000277c:	f0 1f 00 19 	mcall	800027e0 <sd_mmc_spi_internal_init+0x278>

  // SET BLOCK LENGTH TO 512 BYTES
  r1 = sd_mmc_spi_send_command(MMC_SET_BLOCKLEN, 512);
80002780:	e0 6b 02 00 	mov	r11,512
80002784:	31 0c       	mov	r12,16
80002786:	f0 1f 00 1b 	mcall	800027f0 <sd_mmc_spi_internal_init+0x288>
8000278a:	ae 8c       	st.b	r7[0x0],r12
  spi_write(SD_MMC_SPI,0xFF);            // write dummy byte
8000278c:	e0 6b 00 ff 	mov	r11,255
80002790:	fe 7c 28 00 	mov	r12,-55296
80002794:	f0 1f 00 13 	mcall	800027e0 <sd_mmc_spi_internal_init+0x278>
  if (r1 != 0x00)
80002798:	0f 89       	ld.ub	r9,r7[0x0]
8000279a:	30 08       	mov	r8,0
8000279c:	f0 09 18 00 	cp.b	r9,r8
800027a0:	c1 71       	brne	800027ce <sd_mmc_spi_internal_init+0x266>
    return false;    // card unsupported if block length of 512b is not accepted

  // GET CARD SPECIFIC DATA
  if (false ==  sd_mmc_spi_get_csd(csd))
800027a2:	49 8c       	lddpc	r12,80002800 <sd_mmc_spi_internal_init+0x298>
800027a4:	f0 1f 00 18 	mcall	80002804 <sd_mmc_spi_internal_init+0x29c>
800027a8:	c1 30       	breq	800027ce <sd_mmc_spi_internal_init+0x266>
    return false;

  // GET CARD CAPACITY and NUMBER OF SECTORS
  sd_mmc_spi_get_capacity();
800027aa:	f0 1f 00 18 	mcall	80002808 <sd_mmc_spi_internal_init+0x2a0>
#if (defined SD_MMC_READ_CID) && (SD_MMC_READ_CID == true)
  if (false ==  sd_mmc_spi_get_cid(cid))
    return false;
#endif

  sd_mmc_spi_init_done = true;
800027ae:	30 19       	mov	r9,1
800027b0:	48 e8       	lddpc	r8,800027e8 <sd_mmc_spi_internal_init+0x280>
800027b2:	b0 89       	st.b	r8[0x0],r9

  // Set SPI Speed to MAX
  sd_mmc_opt.baudrate = SD_MMC_SPI_MASTER_SPEED;
800027b4:	48 7b       	lddpc	r11,800027d0 <sd_mmc_spi_internal_init+0x268>
800027b6:	e0 68 1b 00 	mov	r8,6912
800027ba:	ea 18 00 b7 	orh	r8,0xb7
800027be:	97 18       	st.w	r11[0x4],r8
  spi_setupChipReg(SD_MMC_SPI, &sd_mmc_opt, sd_mmc_pba_hz);
800027c0:	48 58       	lddpc	r8,800027d4 <sd_mmc_spi_internal_init+0x26c>
800027c2:	70 0a       	ld.w	r10,r8[0x0]
800027c4:	fe 7c 28 00 	mov	r12,-55296
800027c8:	f0 1f 00 04 	mcall	800027d8 <sd_mmc_spi_internal_init+0x270>
800027cc:	da 3a       	popm	r0-r7,pc,r12=1
  return true;
800027ce:	d8 3a       	popm	r0-r7,pc,r12=0
800027d0:	00 00       	add	r0,r0
800027d2:	00 40       	or	r0,r0
800027d4:	00 00       	add	r0,r0
800027d6:	00 50       	eor	r0,r0
800027d8:	80 00       	ld.sh	r0,r0[0x0]
800027da:	2d 74       	sub	r4,-41
800027dc:	80 00       	ld.sh	r0,r0[0x0]
800027de:	2d 02       	sub	r2,-48
800027e0:	80 00       	ld.sh	r0,r0[0x0]
800027e2:	2e 32       	sub	r2,-29
800027e4:	80 00       	ld.sh	r0,r0[0x0]
800027e6:	2d 4e       	sub	lr,-44
800027e8:	00 00       	add	r0,r0
800027ea:	00 54       	eor	r4,r0
800027ec:	00 00       	add	r0,r0
800027ee:	03 56       	ld.sh	r6,--r1
800027f0:	80 00       	ld.sh	r0,r0[0x0]
800027f2:	22 74       	sub	r4,39
800027f4:	00 00       	add	r0,r0
800027f6:	03 68       	ld.uh	r8,--r1
800027f8:	80 00       	ld.sh	r0,r0[0x0]
800027fa:	23 bc       	sub	r12,59
800027fc:	80 00       	ld.sh	r0,r0[0x0]
800027fe:	23 30       	sub	r0,51
80002800:	00 00       	add	r0,r0
80002802:	03 58       	ld.sh	r8,--r1
80002804:	80 00       	ld.sh	r0,r0[0x0]
80002806:	24 74       	sub	r4,71
80002808:	80 00       	ld.sh	r0,r0[0x0]
8000280a:	20 04       	sub	r4,0

8000280c <sd_mmc_spi_init>:
//!
//!
//! @return bit
//!   The memory is ready     -> true (always)
bool sd_mmc_spi_init(spi_options_t spiOptions, unsigned int pba_hz)
{
8000280c:	eb cd 40 10 	pushm	r4,lr
80002810:	fa c4 ff f8 	sub	r4,sp,-8
  // Keep SPI options internally
  sd_mmc_pba_hz = pba_hz;
80002814:	48 88       	lddpc	r8,80002834 <sd_mmc_spi_init+0x28>
80002816:	91 0c       	st.w	r8[0x0],r12
  memcpy( &sd_mmc_opt, &spiOptions, sizeof(spi_options_t) );
80002818:	48 88       	lddpc	r8,80002838 <sd_mmc_spi_init+0x2c>
8000281a:	e8 ea 00 00 	ld.d	r10,r4[0]
8000281e:	f0 eb 00 00 	st.d	r8[0],r10
80002822:	e8 ea 00 08 	ld.d	r10,r4[8]
80002826:	f0 eb 00 08 	st.d	r8[8],r10

  // Initialize the SD/MMC controller.
  return sd_mmc_spi_internal_init();
8000282a:	f0 1f 00 05 	mcall	8000283c <sd_mmc_spi_init+0x30>
}
8000282e:	e3 cd 80 10 	ldm	sp++,r4,pc
80002832:	00 00       	add	r0,r0
80002834:	00 00       	add	r0,r0
80002836:	00 50       	eor	r0,r0
80002838:	00 00       	add	r0,r0
8000283a:	00 40       	or	r0,r0
8000283c:	80 00       	ld.sh	r0,r0[0x0]
8000283e:	25 68       	sub	r8,86

80002840 <flashc_set_wait_state>:
}


void flashc_set_wait_state(unsigned int wait_state)
{
	u_avr32_flashc_fcr_t u_avr32_flashc_fcr = {AVR32_FLASHC.fcr};
80002840:	fe 68 14 00 	mov	r8,-125952
80002844:	70 09       	ld.w	r9,r8[0x0]
	u_avr32_flashc_fcr.FCR.fws = wait_state;
80002846:	f3 dc d0 c1 	bfins	r9,r12,0x6,0x1
	AVR32_FLASHC.fcr = u_avr32_flashc_fcr.fcr;
8000284a:	91 09       	st.w	r8[0x0],r9
}
8000284c:	5e fc       	retal	r12

8000284e <gpio_enable_module_pin>:
 *
 * \return \ref GPIO_SUCCESS or \ref GPIO_INVALID_ARGUMENT.
 */
uint32_t gpio_enable_module_pin(uint32_t pin, uint32_t function)
{
	volatile avr32_gpio_port_t *gpio_port = &AVR32_GPIO.port[pin >> 5];
8000284e:	f8 08 16 05 	lsr	r8,r12,0x5
80002852:	a9 68       	lsl	r8,0x8
80002854:	e0 28 f0 00 	sub	r8,61440

	/* Enable the correct function. */
	switch (function) {
80002858:	58 1b       	cp.w	r11,1
8000285a:	c0 d0       	breq	80002874 <gpio_enable_module_pin+0x26>
8000285c:	c0 63       	brcs	80002868 <gpio_enable_module_pin+0x1a>
8000285e:	58 2b       	cp.w	r11,2
80002860:	c1 00       	breq	80002880 <gpio_enable_module_pin+0x32>
80002862:	58 3b       	cp.w	r11,3
80002864:	c1 40       	breq	8000288c <gpio_enable_module_pin+0x3e>
80002866:	5e ff       	retal	1
	case 0: /* A function. */
		gpio_port->pmr0c = 1 << (pin & 0x1F);
80002868:	30 19       	mov	r9,1
8000286a:	f2 0c 09 49 	lsl	r9,r9,r12
8000286e:	91 69       	st.w	r8[0x18],r9
		gpio_port->pmr1c = 1 << (pin & 0x1F);
80002870:	91 a9       	st.w	r8[0x28],r9
#if (AVR32_GPIO_H_VERSION >= 210)
		gpio_port->pmr2c = 1 << (pin & 0x1F);
#endif
		break;
80002872:	c1 28       	rjmp	80002896 <gpio_enable_module_pin+0x48>

	case 1: /* B function. */
		gpio_port->pmr0s = 1 << (pin & 0x1F);
80002874:	30 19       	mov	r9,1
80002876:	f2 0c 09 49 	lsl	r9,r9,r12
8000287a:	91 59       	st.w	r8[0x14],r9
		gpio_port->pmr1c = 1 << (pin & 0x1F);
8000287c:	91 a9       	st.w	r8[0x28],r9
#if (AVR32_GPIO_H_VERSION >= 210)
		gpio_port->pmr2c = 1 << (pin & 0x1F);
#endif
		break;
8000287e:	c0 c8       	rjmp	80002896 <gpio_enable_module_pin+0x48>

	case 2: /* C function. */
		gpio_port->pmr0c = 1 << (pin & 0x1F);
80002880:	30 19       	mov	r9,1
80002882:	f2 0c 09 49 	lsl	r9,r9,r12
80002886:	91 69       	st.w	r8[0x18],r9
		gpio_port->pmr1s = 1 << (pin & 0x1F);
80002888:	91 99       	st.w	r8[0x24],r9
#if (AVR32_GPIO_H_VERSION >= 210)
		gpio_port->pmr2c = 1 << (pin & 0x1F);
#endif
		break;
8000288a:	c0 68       	rjmp	80002896 <gpio_enable_module_pin+0x48>

	case 3: /* D function. */
		gpio_port->pmr0s = 1 << (pin & 0x1F);
8000288c:	30 19       	mov	r9,1
8000288e:	f2 0c 09 49 	lsl	r9,r9,r12
80002892:	91 59       	st.w	r8[0x14],r9
		gpio_port->pmr1s = 1 << (pin & 0x1F);
80002894:	91 99       	st.w	r8[0x24],r9
	default:
		return GPIO_INVALID_ARGUMENT;
	}

	/* Disable GPIO control. */
	gpio_port->gperc = 1 << (pin & 0x1F);
80002896:	30 19       	mov	r9,1
80002898:	f2 0c 09 4c 	lsl	r12,r9,r12
8000289c:	91 2c       	st.w	r8[0x8],r12
8000289e:	5e fd       	retal	0

800028a0 <gpio_enable_module>:
 * \param size The number of pins in \a gpiomap.
 *
 * \return \ref GPIO_SUCCESS or \ref GPIO_INVALID_ARGUMENT.
 */
uint32_t gpio_enable_module(const gpio_map_t gpiomap, uint32_t size)
{
800028a0:	d4 21       	pushm	r4-r7,lr
800028a2:	18 97       	mov	r7,r12
800028a4:	16 94       	mov	r4,r11
	uint32_t status = GPIO_SUCCESS;
	uint32_t i;

	for (i = 0; i < size; i++) {
800028a6:	58 0b       	cp.w	r11,0
800028a8:	c0 31       	brne	800028ae <gpio_enable_module+0xe>
800028aa:	30 05       	mov	r5,0
800028ac:	c0 d8       	rjmp	800028c6 <gpio_enable_module+0x26>
800028ae:	30 06       	mov	r6,0
800028b0:	0c 95       	mov	r5,r6
		status |= gpio_enable_module_pin(gpiomap->pin, gpiomap->function);
800028b2:	6e 1b       	ld.w	r11,r7[0x4]
800028b4:	6e 0c       	ld.w	r12,r7[0x0]
800028b6:	f0 1f 00 06 	mcall	800028cc <gpio_enable_module+0x2c>
800028ba:	18 45       	or	r5,r12
		gpiomap++;
800028bc:	2f 87       	sub	r7,-8
uint32_t gpio_enable_module(const gpio_map_t gpiomap, uint32_t size)
{
	uint32_t status = GPIO_SUCCESS;
	uint32_t i;

	for (i = 0; i < size; i++) {
800028be:	2f f6       	sub	r6,-1
800028c0:	0c 34       	cp.w	r4,r6
800028c2:	fe 9b ff f8 	brhi	800028b2 <gpio_enable_module+0x12>
		status |= gpio_enable_module_pin(gpiomap->pin, gpiomap->function);
		gpiomap++;
	}

	return status;
}
800028c6:	0a 9c       	mov	r12,r5
800028c8:	d8 22       	popm	r4-r7,pc
800028ca:	00 00       	add	r0,r0
800028cc:	80 00       	ld.sh	r0,r0[0x0]
800028ce:	28 4e       	sub	lr,-124

800028d0 <gpio_enable_pin_pull_up>:
 *
 * \param pin The pin number.
 */
void gpio_enable_pin_pull_up(uint32_t pin)
{
	volatile avr32_gpio_port_t *gpio_port = &AVR32_GPIO.port[pin >> 5];
800028d0:	f8 08 16 05 	lsr	r8,r12,0x5
800028d4:	a9 68       	lsl	r8,0x8
800028d6:	e0 28 f0 00 	sub	r8,61440
	
	gpio_port->puers = 1 << (pin & 0x1F);
800028da:	30 19       	mov	r9,1
800028dc:	f2 0c 09 4c 	lsl	r12,r9,r12
800028e0:	f1 4c 00 74 	st.w	r8[116],r12
#if defined(AVR32_GPIO_200_H_INCLUDED) || defined(AVR32_GPIO_210_H_INCLUDED) ||	\
	defined(AVR32_GPIO_212_H_INCLUDED)
	gpio_port->pderc = 1 << (pin & 0x1F);
#endif
}
800028e4:	5e fc       	retal	r12

800028e6 <gpio_set_gpio_pin>:
 *
 * \param pin The pin number.
 */
void gpio_set_gpio_pin(uint32_t pin)
{
	volatile avr32_gpio_port_t *gpio_port = &AVR32_GPIO.port[pin >> 5];
800028e6:	f8 08 16 05 	lsr	r8,r12,0x5
800028ea:	a9 68       	lsl	r8,0x8
800028ec:	e0 28 f0 00 	sub	r8,61440
	
	/* Value to be driven on the I/O line: 1. */
	gpio_port->ovrs  = 1 << (pin & 0x1F);
800028f0:	30 19       	mov	r9,1
800028f2:	f2 0c 09 4c 	lsl	r12,r9,r12
800028f6:	f1 4c 00 54 	st.w	r8[84],r12
	/* The GPIO output driver is enabled for that pin. */ 
	gpio_port->oders = 1 << (pin & 0x1F);
800028fa:	f1 4c 00 44 	st.w	r8[68],r12
	/* The GPIO module controls that pin. */
	gpio_port->gpers = 1 << (pin & 0x1F);
800028fe:	91 1c       	st.w	r8[0x4],r12
}
80002900:	5e fc       	retal	r12

80002902 <gpio_clr_gpio_pin>:
 *
 * \param pin The pin number.
 */
void gpio_clr_gpio_pin(uint32_t pin)
{
	volatile avr32_gpio_port_t *gpio_port = &AVR32_GPIO.port[pin >> 5];
80002902:	f8 08 16 05 	lsr	r8,r12,0x5
80002906:	a9 68       	lsl	r8,0x8
80002908:	e0 28 f0 00 	sub	r8,61440
	
	/* Value to be driven on the I/O line: 0. */
	gpio_port->ovrc  = 1 << (pin & 0x1F);
8000290c:	30 19       	mov	r9,1
8000290e:	f2 0c 09 4c 	lsl	r12,r9,r12
80002912:	f1 4c 00 58 	st.w	r8[88],r12
	/* The GPIO output driver is enabled for that pin. */
	gpio_port->oders = 1 << (pin & 0x1F);
80002916:	f1 4c 00 44 	st.w	r8[68],r12
	/* The GPIO module controls that pin. */
	gpio_port->gpers = 1 << (pin & 0x1F);
8000291a:	91 1c       	st.w	r8[0x4],r12
}
8000291c:	5e fc       	retal	r12

8000291e <gpio_enable_pin_glitch_filter>:
 *
 * \param pin The pin number.
 */
void gpio_enable_pin_glitch_filter(uint32_t pin)
{
	volatile avr32_gpio_port_t *gpio_port = &AVR32_GPIO.port[pin >> 5];
8000291e:	f8 08 16 05 	lsr	r8,r12,0x5
80002922:	a9 68       	lsl	r8,0x8
80002924:	e0 28 f0 00 	sub	r8,61440
	
	gpio_port->gfers = 1 << (pin & 0x1F);
80002928:	30 19       	mov	r9,1
8000292a:	f2 0c 09 4c 	lsl	r12,r9,r12
8000292e:	f1 4c 00 c4 	st.w	r8[196],r12
}
80002932:	5e fc       	retal	r12

80002934 <gpio_enable_pin_interrupt>:
 *
 * \return \ref GPIO_SUCCESS or \ref GPIO_INVALID_ARGUMENT.
 */
uint32_t gpio_enable_pin_interrupt(uint32_t pin, uint32_t mode)
{
	volatile avr32_gpio_port_t *gpio_port = &AVR32_GPIO.port[pin >> 5];
80002934:	f8 08 16 05 	lsr	r8,r12,0x5
80002938:	a9 68       	lsl	r8,0x8
8000293a:	e0 28 f0 00 	sub	r8,61440

	/* Enable the glitch filter. */
	gpio_port->gfers = 1 << (pin & 0x1F);
8000293e:	30 19       	mov	r9,1
80002940:	f2 0c 09 4c 	lsl	r12,r9,r12
80002944:	f1 4c 00 c4 	st.w	r8[196],r12
static uint32_t gpio_configure_edge_detector(uint32_t pin, uint32_t mode)
{
	volatile avr32_gpio_port_t *gpio_port = &AVR32_GPIO.port[pin >> 5];

	/* Configure the edge detector. */
	switch (mode) {
80002948:	12 3b       	cp.w	r11,r9
8000294a:	c0 a0       	breq	8000295e <gpio_enable_pin_interrupt+0x2a>
8000294c:	c0 43       	brcs	80002954 <gpio_enable_pin_interrupt+0x20>
8000294e:	58 2b       	cp.w	r11,2
80002950:	c1 11       	brne	80002972 <gpio_enable_pin_interrupt+0x3e>
80002952:	c0 b8       	rjmp	80002968 <gpio_enable_pin_interrupt+0x34>
	case GPIO_PIN_CHANGE:
		gpio_port->imr0c = 1 << (pin & 0x1F);
80002954:	f1 4c 00 a8 	st.w	r8[168],r12
		gpio_port->imr1c = 1 << (pin & 0x1F);
80002958:	f1 4c 00 b8 	st.w	r8[184],r12
8000295c:	c0 c8       	rjmp	80002974 <gpio_enable_pin_interrupt+0x40>
		break;

	case GPIO_RISING_EDGE:
		gpio_port->imr0s = 1 << (pin & 0x1F);
8000295e:	f1 4c 00 a4 	st.w	r8[164],r12
		gpio_port->imr1c = 1 << (pin & 0x1F);
80002962:	f1 4c 00 b8 	st.w	r8[184],r12
80002966:	c0 78       	rjmp	80002974 <gpio_enable_pin_interrupt+0x40>
		break;

	case GPIO_FALLING_EDGE:
		gpio_port->imr0c = 1 << (pin & 0x1F);
80002968:	f1 4c 00 a8 	st.w	r8[168],r12
		gpio_port->imr1s = 1 << (pin & 0x1F);
8000296c:	f1 4c 00 b4 	st.w	r8[180],r12
80002970:	c0 28       	rjmp	80002974 <gpio_enable_pin_interrupt+0x40>
80002972:	5e ff       	retal	1
	if (GPIO_INVALID_ARGUMENT == gpio_configure_edge_detector(pin, mode)) {
		return(GPIO_INVALID_ARGUMENT);
	}

	/* Enable interrupt. */
	gpio_port->iers = 1 << (pin & 0x1F);
80002974:	f1 4c 00 94 	st.w	r8[148],r12
80002978:	5e fd       	retal	0

8000297a <gpio_get_pin_interrupt_flag>:
 *
 * \return The pin interrupt flag.
 */
bool gpio_get_pin_interrupt_flag(uint32_t pin)
{
	volatile avr32_gpio_port_t *gpio_port = &AVR32_GPIO.port[pin >> 5];
8000297a:	f8 08 16 05 	lsr	r8,r12,0x5
8000297e:	a9 68       	lsl	r8,0x8
80002980:	e0 28 f0 00 	sub	r8,61440
	
	return (gpio_port->ifr >> (pin & 0x1F)) & 1;
80002984:	f0 f8 00 d0 	ld.w	r8,r8[208]
80002988:	f0 0c 0a 4c 	lsr	r12,r8,r12
}
8000298c:	f9 dc c0 01 	bfextu	r12,r12,0x0,0x1
80002990:	5e fc       	retal	r12

80002992 <_unhandled_interrupt>:
__attribute__((__interrupt__))
#elif (defined __ICCAVR32__)
__interrupt
#endif
static void _unhandled_interrupt(void)
{
80002992:	c0 08       	rjmp	80002992 <_unhandled_interrupt>

80002994 <INTC_register_interrupt>:
 */
void INTC_register_interrupt(__int_handler handler, uint32_t irq,
	uint32_t int_level)
{
	// Determine the group of the IRQ.
	uint32_t int_grp = irq / AVR32_INTC_MAX_NUM_IRQS_PER_GRP;
80002994:	f6 08 16 05 	lsr	r8,r11,0x5

	/* Store in _int_line_handler_table_x the pointer to the interrupt
	handler, so that _get_interrupt_handler can retrieve it when the
	interrupt is vectored. */
	_int_handler_table[int_grp]
		._int_line_handler_table[irq % AVR32_INTC_MAX_NUM_IRQS_PER_GRP]
80002998:	49 99       	lddpc	r9,800029fc <INTC_register_interrupt+0x68>
8000299a:	f2 08 00 39 	add	r9,r9,r8<<0x3
8000299e:	f7 db c0 05 	bfextu	r11,r11,0x0,0x5
800029a2:	72 19       	ld.w	r9,r9[0x4]
	uint32_t int_grp = irq / AVR32_INTC_MAX_NUM_IRQS_PER_GRP;

	/* Store in _int_line_handler_table_x the pointer to the interrupt
	handler, so that _get_interrupt_handler can retrieve it when the
	interrupt is vectored. */
	_int_handler_table[int_grp]
800029a4:	f2 0b 09 2c 	st.w	r9[r11<<0x2],r12
	/* Program the corresponding IPRX register to set the interrupt priority
	level and the interrupt vector offset that will be fetched by the core
	interrupt system.
	NOTE: The _intx functions are intermediate assembly functions between
	the core interrupt system and the user interrupt handler. */
	if (int_level == AVR32_INTC_INT0) {
800029a8:	58 0a       	cp.w	r10,0
800029aa:	c0 91       	brne	800029bc <INTC_register_interrupt+0x28>
		AVR32_INTC.ipr[int_grp] = IPR_INT0;
800029ac:	49 59       	lddpc	r9,80002a00 <INTC_register_interrupt+0x6c>
800029ae:	49 6a       	lddpc	r10,80002a04 <INTC_register_interrupt+0x70>
800029b0:	12 1a       	sub	r10,r9
800029b2:	fe 79 08 00 	mov	r9,-63488
800029b6:	f2 08 09 2a 	st.w	r9[r8<<0x2],r10
800029ba:	5e fc       	retal	r12
	} else if (int_level == AVR32_INTC_INT1) {
800029bc:	58 1a       	cp.w	r10,1
800029be:	c0 a1       	brne	800029d2 <INTC_register_interrupt+0x3e>
		AVR32_INTC.ipr[int_grp] = IPR_INT1;
800029c0:	49 09       	lddpc	r9,80002a00 <INTC_register_interrupt+0x6c>
800029c2:	49 2a       	lddpc	r10,80002a08 <INTC_register_interrupt+0x74>
800029c4:	12 1a       	sub	r10,r9
800029c6:	bf aa       	sbr	r10,0x1e
800029c8:	fe 79 08 00 	mov	r9,-63488
800029cc:	f2 08 09 2a 	st.w	r9[r8<<0x2],r10
800029d0:	5e fc       	retal	r12
	} else if (int_level == AVR32_INTC_INT2) {
800029d2:	58 2a       	cp.w	r10,2
800029d4:	c0 a1       	brne	800029e8 <INTC_register_interrupt+0x54>
		AVR32_INTC.ipr[int_grp] = IPR_INT2;
800029d6:	48 b9       	lddpc	r9,80002a00 <INTC_register_interrupt+0x6c>
800029d8:	48 da       	lddpc	r10,80002a0c <INTC_register_interrupt+0x78>
800029da:	12 1a       	sub	r10,r9
800029dc:	bf ba       	sbr	r10,0x1f
800029de:	fe 79 08 00 	mov	r9,-63488
800029e2:	f2 08 09 2a 	st.w	r9[r8<<0x2],r10
800029e6:	5e fc       	retal	r12
	} else {
		AVR32_INTC.ipr[int_grp] = IPR_INT3;
800029e8:	48 69       	lddpc	r9,80002a00 <INTC_register_interrupt+0x6c>
800029ea:	48 aa       	lddpc	r10,80002a10 <INTC_register_interrupt+0x7c>
800029ec:	12 1a       	sub	r10,r9
800029ee:	ea 1a c0 00 	orh	r10,0xc000
800029f2:	fe 79 08 00 	mov	r9,-63488
800029f6:	f2 08 09 2a 	st.w	r9[r8<<0x2],r10
800029fa:	5e fc       	retal	r12
800029fc:	80 00       	ld.sh	r0,r0[0x0]
800029fe:	54 00       	stdsp	sp[0x100],r0
80002a00:	80 00       	ld.sh	r0,r0[0x0]
80002a02:	52 00       	stdsp	sp[0x80],r0
80002a04:	80 00       	ld.sh	r0,r0[0x0]
80002a06:	53 04       	stdsp	sp[0xc0],r4
80002a08:	80 00       	ld.sh	r0,r0[0x0]
80002a0a:	53 12       	stdsp	sp[0xc4],r2
80002a0c:	80 00       	ld.sh	r0,r0[0x0]
80002a0e:	53 20       	stdsp	sp[0xc8],r0
80002a10:	80 00       	ld.sh	r0,r0[0x0]
80002a12:	53 2e       	stdsp	sp[0xc8],lr

80002a14 <INTC_init_interrupts>:
/**
 * \brief Initializes the hardware interrupt controller driver.
 *
 */
void INTC_init_interrupts(void)
{
80002a14:	d4 21       	pushm	r4-r7,lr
 * \brief Init EVBA address. This operation may or may not have been done by the
 * C startup process.
 */
static __inline__ void INTC_init_evba(void)
{
  Set_system_register(AVR32_EVBA, (int32_t)&_evba );
80002a16:	49 18       	lddpc	r8,80002a58 <INTC_init_interrupts+0x44>
80002a18:	e3 b8 00 01 	mtsr	0x4,r8
80002a1c:	49 0e       	lddpc	lr,80002a5c <INTC_init_interrupts+0x48>
80002a1e:	30 07       	mov	r7,0
80002a20:	0e 94       	mov	r4,r7
			int_req < _int_handler_table[int_grp].num_irqs;
			int_req++)
		{
			/* Assign _unhandled_interrupt as the default interrupt
			handler. */
			_int_handler_table[int_grp]
80002a22:	49 0c       	lddpc	r12,80002a60 <INTC_init_interrupts+0x4c>

		/* Set the interrupt group priority register to its default
		value.
		By default, all interrupt groups are linked to the interrupt
		priority level 0 and to the interrupt vector _int0. */
		AVR32_INTC.ipr[int_grp] = IPR_INT0;
80002a24:	49 05       	lddpc	r5,80002a64 <INTC_init_interrupts+0x50>
80002a26:	10 15       	sub	r5,r8
80002a28:	fe 76 08 00 	mov	r6,-63488
80002a2c:	c1 08       	rjmp	80002a4c <INTC_init_interrupts+0x38>
 * \brief Init EVBA address. This operation may or may not have been done by the
 * C startup process.
 */
static __inline__ void INTC_init_evba(void)
{
  Set_system_register(AVR32_EVBA, (int32_t)&_evba );
80002a2e:	08 98       	mov	r8,r4
			int_req++)
		{
			/* Assign _unhandled_interrupt as the default interrupt
			handler. */
			_int_handler_table[int_grp]
				._int_line_handler_table[int_req]
80002a30:	7c 1b       	ld.w	r11,lr[0x4]

	// For all interrupt groups,
	for (int_grp = 0; int_grp < AVR32_INTC_NUM_INT_GRPS; int_grp++)
	{
		// For all interrupt request lines of each group,
		for (int_req = 0;
80002a32:	7c 0a       	ld.w	r10,lr[0x0]
			int_req < _int_handler_table[int_grp].num_irqs;
			int_req++)
		{
			/* Assign _unhandled_interrupt as the default interrupt
			handler. */
			_int_handler_table[int_grp]
80002a34:	f6 08 09 2c 	st.w	r11[r8<<0x2],r12
	for (int_grp = 0; int_grp < AVR32_INTC_NUM_INT_GRPS; int_grp++)
	{
		// For all interrupt request lines of each group,
		for (int_req = 0;
			int_req < _int_handler_table[int_grp].num_irqs;
			int_req++)
80002a38:	2f f8       	sub	r8,-1

	// For all interrupt groups,
	for (int_grp = 0; int_grp < AVR32_INTC_NUM_INT_GRPS; int_grp++)
	{
		// For all interrupt request lines of each group,
		for (int_req = 0;
80002a3a:	10 3a       	cp.w	r10,r8
80002a3c:	fe 9b ff fc 	brhi	80002a34 <INTC_init_interrupts+0x20>

		/* Set the interrupt group priority register to its default
		value.
		By default, all interrupt groups are linked to the interrupt
		priority level 0 and to the interrupt vector _int0. */
		AVR32_INTC.ipr[int_grp] = IPR_INT0;
80002a40:	ec 07 09 25 	st.w	r6[r7<<0x2],r5
	uint32_t int_grp, int_req;

	INTC_init_evba();

	// For all interrupt groups,
	for (int_grp = 0; int_grp < AVR32_INTC_NUM_INT_GRPS; int_grp++)
80002a44:	2f f7       	sub	r7,-1
80002a46:	2f 8e       	sub	lr,-8
80002a48:	59 47       	cp.w	r7,20
80002a4a:	c0 50       	breq	80002a54 <INTC_init_interrupts+0x40>
	{
		// For all interrupt request lines of each group,
		for (int_req = 0;
80002a4c:	7c 08       	ld.w	r8,lr[0x0]
80002a4e:	58 08       	cp.w	r8,0
80002a50:	ce f1       	brne	80002a2e <INTC_init_interrupts+0x1a>
80002a52:	cf 7b       	rjmp	80002a40 <INTC_init_interrupts+0x2c>
80002a54:	d8 22       	popm	r4-r7,pc
80002a56:	00 00       	add	r0,r0
80002a58:	80 00       	ld.sh	r0,r0[0x0]
80002a5a:	52 00       	stdsp	sp[0x80],r0
80002a5c:	80 00       	ld.sh	r0,r0[0x0]
80002a5e:	54 00       	stdsp	sp[0x100],r0
80002a60:	80 00       	ld.sh	r0,r0[0x0]
80002a62:	29 92       	sub	r2,-103
80002a64:	80 00       	ld.sh	r0,r0[0x0]
80002a66:	53 04       	stdsp	sp[0xc0],r4

80002a68 <_get_interrupt_handler>:
__int_handler _get_interrupt_handler(uint32_t int_level)
{
	/* ICR3 is mapped first, ICR0 last.
	Code in exception.S puts int_level in R12 which is used by the compiler
	to pass a single argument to a function. */
	uint32_t int_grp = AVR32_INTC.icr[AVR32_INTC_INT3 - int_level];
80002a68:	fe 78 08 00 	mov	r8,-63488
80002a6c:	e0 69 00 83 	mov	r9,131
80002a70:	f2 0c 01 0c 	sub	r12,r9,r12
80002a74:	f0 0c 03 29 	ld.w	r9,r8[r12<<0x2]
	uint32_t int_req = AVR32_INTC.irr[int_grp];
80002a78:	f2 ca ff c0 	sub	r10,r9,-64
80002a7c:	f0 0a 03 28 	ld.w	r8,r8[r10<<0x2]
	exception.S will provide the interrupt handler with a clean interrupt
	stack frame, with nothing more pushed onto the stack. The interrupt
	handler must manage the `rete' instruction, which can be done using
	pure assembly, inline assembly or the `__attribute__((__interrupt__))'
	C function attribute.*/
	return (int_req)
80002a80:	58 08       	cp.w	r8,0
80002a82:	c0 21       	brne	80002a86 <_get_interrupt_handler+0x1e>
80002a84:	5e fd       	retal	0
		? _int_handler_table[int_grp]._int_line_handler_table[32
			- clz(int_req) - 1]
80002a86:	f0 08 12 00 	clz	r8,r8
	stack frame, with nothing more pushed onto the stack. The interrupt
	handler must manage the `rete' instruction, which can be done using
	pure assembly, inline assembly or the `__attribute__((__interrupt__))'
	C function attribute.*/
	return (int_req)
		? _int_handler_table[int_grp]._int_line_handler_table[32
80002a8a:	48 5a       	lddpc	r10,80002a9c <_get_interrupt_handler+0x34>
80002a8c:	f4 09 00 39 	add	r9,r10,r9<<0x3
80002a90:	f0 08 11 1f 	rsub	r8,r8,31
80002a94:	72 19       	ld.w	r9,r9[0x4]
	exception.S will provide the interrupt handler with a clean interrupt
	stack frame, with nothing more pushed onto the stack. The interrupt
	handler must manage the `rete' instruction, which can be done using
	pure assembly, inline assembly or the `__attribute__((__interrupt__))'
	C function attribute.*/
	return (int_req)
80002a96:	f2 08 03 2c 	ld.w	r12,r9[r8<<0x2]
		? _int_handler_table[int_grp]._int_line_handler_table[32
			- clz(int_req) - 1]
		: NULL;
}
80002a9a:	5e fc       	retal	r12
80002a9c:	80 00       	ld.sh	r0,r0[0x0]
80002a9e:	54 00       	stdsp	sp[0x100],r0

80002aa0 <pm_set_osc0_mode>:
 * \param mode Oscillator 0 mode (i.e. AVR32_PM_OSCCTRL0_MODE_x).
 */
static void pm_set_osc0_mode(volatile avr32_pm_t *pm, unsigned int mode)
{
  // Read
  u_avr32_pm_oscctrl0_t u_avr32_pm_oscctrl0 = {pm->oscctrl0};
80002aa0:	78 a8       	ld.w	r8,r12[0x28]
  // Modify
  u_avr32_pm_oscctrl0.OSCCTRL0.mode = mode;
80002aa2:	f1 db d0 03 	bfins	r8,r11,0x0,0x3
  // Write
  pm->oscctrl0 = u_avr32_pm_oscctrl0.oscctrl0;
80002aa6:	99 a8       	st.w	r12[0x28],r8
}
80002aa8:	5e fc       	retal	r12
80002aaa:	d7 03       	nop

80002aac <pm_enable_osc0_crystal>:
  pm_set_osc0_mode(pm, AVR32_PM_OSCCTRL0_MODE_EXT_CLOCK);
}


void pm_enable_osc0_crystal(volatile avr32_pm_t *pm, unsigned int fosc0)
{
80002aac:	d4 01       	pushm	lr
  pm_set_osc0_mode(pm, (fosc0 <  900000) ? AVR32_PM_OSCCTRL0_MODE_CRYSTAL_G0 :
80002aae:	ec 5b bb 9f 	cp.w	r11,899999
80002ab2:	e0 8b 00 04 	brhi	80002aba <pm_enable_osc0_crystal+0xe>
80002ab6:	30 4b       	mov	r11,4
80002ab8:	c1 38       	rjmp	80002ade <pm_enable_osc0_crystal+0x32>
80002aba:	e0 68 c6 bf 	mov	r8,50879
80002abe:	ea 18 00 2d 	orh	r8,0x2d
80002ac2:	10 3b       	cp.w	r11,r8
80002ac4:	e0 8b 00 04 	brhi	80002acc <pm_enable_osc0_crystal+0x20>
80002ac8:	30 5b       	mov	r11,5
80002aca:	c0 a8       	rjmp	80002ade <pm_enable_osc0_crystal+0x32>
80002acc:	e0 68 12 00 	mov	r8,4608
80002ad0:	ea 18 00 7a 	orh	r8,0x7a
80002ad4:	10 3b       	cp.w	r11,r8
80002ad6:	f9 bb 03 06 	movlo	r11,6
80002ada:	f9 bb 02 07 	movhs	r11,7
80002ade:	f0 1f 00 02 	mcall	80002ae4 <pm_enable_osc0_crystal+0x38>
                       (fosc0 < 3000000) ? AVR32_PM_OSCCTRL0_MODE_CRYSTAL_G1 :
                       (fosc0 < 8000000) ? AVR32_PM_OSCCTRL0_MODE_CRYSTAL_G2 :
                                           AVR32_PM_OSCCTRL0_MODE_CRYSTAL_G3);
}
80002ae2:	d8 02       	popm	pc
80002ae4:	80 00       	ld.sh	r0,r0[0x0]
80002ae6:	2a a0       	sub	r0,-86

80002ae8 <pm_enable_clk0_no_wait>:


void pm_enable_clk0_no_wait(volatile avr32_pm_t *pm, unsigned int startup)
{
  // Read register
  u_avr32_pm_oscctrl0_t u_avr32_pm_oscctrl0 = {pm->oscctrl0};
80002ae8:	78 a8       	ld.w	r8,r12[0x28]
  // Modify
  u_avr32_pm_oscctrl0.OSCCTRL0.startup = startup;
80002aea:	f1 db d1 03 	bfins	r8,r11,0x8,0x3
  // Write back
  pm->oscctrl0 = u_avr32_pm_oscctrl0.oscctrl0;
80002aee:	99 a8       	st.w	r12[0x28],r8

  pm->mcctrl |= AVR32_PM_MCCTRL_OSC0EN_MASK;
80002af0:	78 08       	ld.w	r8,r12[0x0]
80002af2:	a3 a8       	sbr	r8,0x2
80002af4:	99 08       	st.w	r12[0x0],r8
}
80002af6:	5e fc       	retal	r12

80002af8 <pm_wait_for_clk0_ready>:


void pm_wait_for_clk0_ready(volatile avr32_pm_t *pm)
{
  while (!(pm->poscsr & AVR32_PM_POSCSR_OSC0RDY_MASK));
80002af8:	79 58       	ld.w	r8,r12[0x54]
80002afa:	e2 18 00 80 	andl	r8,0x80,COH
80002afe:	cf d0       	breq	80002af8 <pm_wait_for_clk0_ready>
}
80002b00:	5e fc       	retal	r12
80002b02:	d7 03       	nop

80002b04 <pm_enable_clk0>:
                                           AVR32_PM_OSCCTRL0_MODE_CRYSTAL_G3);
}


void pm_enable_clk0(volatile avr32_pm_t *pm, unsigned int startup)
{
80002b04:	eb cd 40 80 	pushm	r7,lr
80002b08:	18 97       	mov	r7,r12
  pm_enable_clk0_no_wait(pm, startup);
80002b0a:	f0 1f 00 04 	mcall	80002b18 <pm_enable_clk0+0x14>
  pm_wait_for_clk0_ready(pm);
80002b0e:	0e 9c       	mov	r12,r7
80002b10:	f0 1f 00 03 	mcall	80002b1c <pm_enable_clk0+0x18>
}
80002b14:	e3 cd 80 80 	ldm	sp++,r7,pc
80002b18:	80 00       	ld.sh	r0,r0[0x0]
80002b1a:	2a e8       	sub	r8,-82
80002b1c:	80 00       	ld.sh	r0,r0[0x0]
80002b1e:	2a f8       	sub	r8,-81

80002b20 <pm_cksel>:
              unsigned int pbasel,
              unsigned int pbbdiv,
              unsigned int pbbsel,
              unsigned int hsbdiv,
              unsigned int hsbsel)
{
80002b20:	eb cd 40 d0 	pushm	r4,r6-r7,lr
80002b24:	fa c4 ff f0 	sub	r4,sp,-16
  u_avr32_pm_cksel_t u_avr32_pm_cksel = {0};
80002b28:	30 0e       	mov	lr,0

  u_avr32_pm_cksel.CKSEL.cpusel = hsbsel;
80002b2a:	09 f7       	ld.ub	r7,r4[0x7]
80002b2c:	ef d7 c0 03 	bfextu	r7,r7,0x0,0x3
80002b30:	fd d7 d0 03 	bfins	lr,r7,0x0,0x3
  u_avr32_pm_cksel.CKSEL.cpudiv = hsbdiv;
80002b34:	09 b4       	ld.ub	r4,r4[0x3]
80002b36:	08 96       	mov	r6,r4
80002b38:	e9 d4 c0 01 	bfextu	r4,r4,0x0,0x1
80002b3c:	fd d4 d0 e1 	bfins	lr,r4,0x7,0x1
  u_avr32_pm_cksel.CKSEL.hsbsel = hsbsel;
80002b40:	fd d7 d1 03 	bfins	lr,r7,0x8,0x3
  u_avr32_pm_cksel.CKSEL.hsbdiv = hsbdiv;
80002b44:	fd d4 d1 e1 	bfins	lr,r4,0xf,0x1
  u_avr32_pm_cksel.CKSEL.pbasel = pbasel;
80002b48:	fd da d2 03 	bfins	lr,r10,0x10,0x3
  u_avr32_pm_cksel.CKSEL.pbadiv = pbadiv;
80002b4c:	fd db d2 e1 	bfins	lr,r11,0x17,0x1
  u_avr32_pm_cksel.CKSEL.pbbsel = pbbsel;
80002b50:	fd d8 d3 03 	bfins	lr,r8,0x18,0x3
  u_avr32_pm_cksel.CKSEL.pbbdiv = pbbdiv;
80002b54:	fd d9 d3 e1 	bfins	lr,r9,0x1f,0x1

  pm->cksel = u_avr32_pm_cksel.cksel;
80002b58:	99 1e       	st.w	r12[0x4],lr

  // Wait for ckrdy bit and then clear it
  while (!(pm->poscsr & AVR32_PM_POSCSR_CKRDY_MASK));
80002b5a:	79 58       	ld.w	r8,r12[0x54]
80002b5c:	e2 18 00 20 	andl	r8,0x20,COH
80002b60:	cf d0       	breq	80002b5a <pm_cksel+0x3a>
}
80002b62:	e3 cd 80 d0 	ldm	sp++,r4,r6-r7,pc

80002b66 <pm_pll_setup>:
                  unsigned int pll,
                  unsigned int mul,
                  unsigned int div,
                  unsigned int osc,
                  unsigned int lockcount)
{
80002b66:	eb cd 40 80 	pushm	r7,lr
80002b6a:	40 27       	lddsp	r7,sp[0x8]
  u_avr32_pm_pll_t u_avr32_pm_pll = {0};
80002b6c:	30 0e       	mov	lr,0

  u_avr32_pm_pll.PLL.pllosc   = osc;
80002b6e:	fd d8 d0 21 	bfins	lr,r8,0x1,0x1
  u_avr32_pm_pll.PLL.plldiv   = div;
80002b72:	fd d9 d1 04 	bfins	lr,r9,0x8,0x4
  u_avr32_pm_pll.PLL.pllmul   = mul;
80002b76:	fd da d2 04 	bfins	lr,r10,0x10,0x4
  u_avr32_pm_pll.PLL.pllcount = lockcount;
80002b7a:	fd d7 d3 06 	bfins	lr,r7,0x18,0x6

  pm->pll[pll] = u_avr32_pm_pll.pll;
80002b7e:	2f 8b       	sub	r11,-8
80002b80:	f8 0b 09 2e 	st.w	r12[r11<<0x2],lr
}
80002b84:	e3 cd 80 80 	ldm	sp++,r7,pc

80002b88 <pm_pll_set_option>:
void pm_pll_set_option(volatile avr32_pm_t *pm,
                       unsigned int pll,
                       unsigned int pll_freq,
                       unsigned int pll_div2,
                       unsigned int pll_wbwdisable)
{
80002b88:	d4 01       	pushm	lr
  u_avr32_pm_pll_t u_avr32_pm_pll = {pm->pll[pll]};
80002b8a:	2f 8b       	sub	r11,-8
80002b8c:	f8 0b 03 2e 	ld.w	lr,r12[r11<<0x2]
  u_avr32_pm_pll.PLL.pllopt = pll_freq | (pll_div2 << 1) | (pll_wbwdisable << 2);
80002b90:	f5 e9 10 19 	or	r9,r10,r9<<0x1
80002b94:	f3 e8 10 28 	or	r8,r9,r8<<0x2
80002b98:	fd d8 d0 43 	bfins	lr,r8,0x2,0x3
  pm->pll[pll] = u_avr32_pm_pll.pll;
80002b9c:	f8 0b 09 2e 	st.w	r12[r11<<0x2],lr
}
80002ba0:	d8 02       	popm	pc

80002ba2 <pm_pll_enable>:


void pm_pll_enable(volatile avr32_pm_t *pm,
                  unsigned int pll)
{
  pm->pll[pll] |= AVR32_PM_PLLEN_MASK;
80002ba2:	2f 8b       	sub	r11,-8
80002ba4:	f8 0b 03 28 	ld.w	r8,r12[r11<<0x2]
80002ba8:	a1 a8       	sbr	r8,0x0
80002baa:	f8 0b 09 28 	st.w	r12[r11<<0x2],r8
}
80002bae:	5e fc       	retal	r12

80002bb0 <pm_wait_for_pll0_locked>:
}


void pm_wait_for_pll0_locked(volatile avr32_pm_t *pm)
{
  while (!(pm->poscsr & AVR32_PM_POSCSR_LOCK0_MASK));
80002bb0:	79 58       	ld.w	r8,r12[0x54]
80002bb2:	f1 d8 c0 01 	bfextu	r8,r8,0x0,0x1
80002bb6:	cf d0       	breq	80002bb0 <pm_wait_for_pll0_locked>
}
80002bb8:	5e fc       	retal	r12

80002bba <pm_switch_to_clock>:


void pm_switch_to_clock(volatile avr32_pm_t *pm, unsigned long clock)
{
  // Read
  u_avr32_pm_mcctrl_t u_avr32_pm_mcctrl = {pm->mcctrl};
80002bba:	78 08       	ld.w	r8,r12[0x0]
  // Modify
  u_avr32_pm_mcctrl.MCCTRL.mcsel = clock;
80002bbc:	f1 db d0 02 	bfins	r8,r11,0x0,0x2
  // Write back
  pm->mcctrl = u_avr32_pm_mcctrl.mcctrl;
80002bc0:	99 08       	st.w	r12[0x0],r8
}
80002bc2:	5e fc       	retal	r12

80002bc4 <pm_switch_to_osc0>:


void pm_switch_to_osc0(volatile avr32_pm_t *pm, unsigned int fosc0, unsigned int startup)
{
80002bc4:	eb cd 40 c0 	pushm	r6-r7,lr
80002bc8:	18 97       	mov	r7,r12
80002bca:	14 96       	mov	r6,r10
  pm_enable_osc0_crystal(pm, fosc0);            // Enable the Osc0 in crystal mode
80002bcc:	f0 1f 00 06 	mcall	80002be4 <pm_switch_to_osc0+0x20>
  pm_enable_clk0(pm, startup);                  // Crystal startup time - This parameter is critical and depends on the characteristics of the crystal
80002bd0:	0c 9b       	mov	r11,r6
80002bd2:	0e 9c       	mov	r12,r7
80002bd4:	f0 1f 00 05 	mcall	80002be8 <pm_switch_to_osc0+0x24>
  pm_switch_to_clock(pm, AVR32_PM_MCSEL_OSC0);  // Then switch main clock to Osc0
80002bd8:	30 1b       	mov	r11,1
80002bda:	0e 9c       	mov	r12,r7
80002bdc:	f0 1f 00 04 	mcall	80002bec <pm_switch_to_osc0+0x28>
}
80002be0:	e3 cd 80 c0 	ldm	sp++,r6-r7,pc
80002be4:	80 00       	ld.sh	r0,r0[0x0]
80002be6:	2a ac       	sub	r12,-86
80002be8:	80 00       	ld.sh	r0,r0[0x0]
80002bea:	2b 04       	sub	r4,-80
80002bec:	80 00       	ld.sh	r0,r0[0x0]
80002bee:	2b ba       	sub	r10,-69

80002bf0 <pwm_channel_init>:

int pwm_channel_init( unsigned int channel_id, const avr32_pwm_channel_t *pwm_channel)
{
  volatile avr32_pwm_t *pwm = &AVR32_PWM;

  if (pwm_channel == 0) // Null pointer.
80002bf0:	58 0b       	cp.w	r11,0
80002bf2:	c1 90       	breq	80002c24 <pwm_channel_init+0x34>
    return PWM_INVALID_ARGUMENT;
  if (channel_id > AVR32_PWM_LINES_MSB) // Control input values.
80002bf4:	58 6c       	cp.w	r12,6
80002bf6:	e0 8b 00 17 	brhi	80002c24 <pwm_channel_init+0x34>
    return PWM_INVALID_INPUT;

  pwm->channel[channel_id].cmr= pwm_channel->cmr;   // Channel mode.
80002bfa:	76 0a       	ld.w	r10,r11[0x0]
80002bfc:	fe 78 30 00 	mov	r8,-53248
80002c00:	f8 c9 ff f0 	sub	r9,r12,-16
80002c04:	a5 79       	lsl	r9,0x5
80002c06:	f0 09 00 09 	add	r9,r8,r9
80002c0a:	93 0a       	st.w	r9[0x0],r10
  pwm->channel[channel_id].cdty= pwm_channel->cdty; // Duty cycle, should be < CPRD.
80002c0c:	76 19       	ld.w	r9,r11[0x4]
80002c0e:	a5 7c       	lsl	r12,0x5
80002c10:	f0 0c 00 0c 	add	r12,r8,r12
80002c14:	f8 c8 fd fc 	sub	r8,r12,-516
80002c18:	91 09       	st.w	r8[0x0],r9
  pwm->channel[channel_id].cprd= pwm_channel->cprd; // Channel period.
80002c1a:	76 28       	ld.w	r8,r11[0x8]
80002c1c:	f8 cc fd f8 	sub	r12,r12,-520
80002c20:	99 08       	st.w	r12[0x0],r8
80002c22:	5e fd       	retal	0

  return PWM_SUCCESS;
80002c24:	5e ff       	retal	1

80002c26 <pwm_start_channels>:
}


int pwm_start_channels(unsigned long channels_bitmask)
{
  if (channels_bitmask & ~((1 << (AVR32_PWM_LINES_MSB + 1)) - 1))
80002c26:	18 98       	mov	r8,r12
80002c28:	e0 18 ff 80 	andl	r8,0xff80
80002c2c:	c0 20       	breq	80002c30 <pwm_start_channels+0xa>
80002c2e:	5e ff       	retal	1
    return PWM_INVALID_INPUT;

  AVR32_PWM.ena = channels_bitmask; // Enable channels.
80002c30:	fe 78 30 00 	mov	r8,-53248
80002c34:	91 1c       	st.w	r8[0x4],r12
80002c36:	5e fd       	retal	0

80002c38 <pwm_init>:


int pwm_init(const pwm_opt_t *opt)
{
  volatile avr32_pwm_t *pwm = &AVR32_PWM;
  bool global_interrupt_enabled = Is_global_interrupt_enabled();
80002c38:	e1 b8 00 00 	mfsr	r8,0x0

  if (opt == 0 ) // Null pointer.
80002c3c:	58 0c       	cp.w	r12,0
80002c3e:	c0 21       	brne	80002c42 <pwm_init+0xa>
80002c40:	5e ff       	retal	1
    return PWM_INVALID_INPUT;

  // Disable interrupt.
  if (global_interrupt_enabled) Disable_global_interrupt();
80002c42:	e6 18 00 01 	andh	r8,0x1,COH
80002c46:	c0 91       	brne	80002c58 <pwm_init+0x20>
80002c48:	d3 03       	ssrf	0x10
  pwm->idr = ((1 << (AVR32_PWM_LINES_MSB + 1)) - 1) << AVR32_PWM_IDR_CHID0_OFFSET;
80002c4a:	fe 78 30 00 	mov	r8,-53248
80002c4e:	37 f9       	mov	r9,127
80002c50:	91 59       	st.w	r8[0x14],r9
  pwm->isr;
80002c52:	70 78       	ld.w	r8,r8[0x1c]
  if (global_interrupt_enabled) Enable_global_interrupt();
80002c54:	d5 03       	csrf	0x10
80002c56:	c0 68       	rjmp	80002c62 <pwm_init+0x2a>
  if (opt == 0 ) // Null pointer.
    return PWM_INVALID_INPUT;

  // Disable interrupt.
  if (global_interrupt_enabled) Disable_global_interrupt();
  pwm->idr = ((1 << (AVR32_PWM_LINES_MSB + 1)) - 1) << AVR32_PWM_IDR_CHID0_OFFSET;
80002c58:	fe 78 30 00 	mov	r8,-53248
80002c5c:	37 f9       	mov	r9,127
80002c5e:	91 59       	st.w	r8[0x14],r9
  pwm->isr;
80002c60:	70 78       	ld.w	r8,r8[0x1c]
  if (global_interrupt_enabled) Enable_global_interrupt();

  // Set PWM mode register.
  pwm->mr =
    ((opt->diva)<<AVR32_PWM_DIVA_OFFSET) |
80002c62:	78 08       	ld.w	r8,r12[0x0]
80002c64:	78 39       	ld.w	r9,r12[0xc]
80002c66:	a9 69       	lsl	r9,0x8
80002c68:	f3 e8 11 09 	or	r9,r9,r8<<0x10
80002c6c:	78 18       	ld.w	r8,r12[0x4]
80002c6e:	10 49       	or	r9,r8
80002c70:	78 28       	ld.w	r8,r12[0x8]
80002c72:	f3 e8 11 89 	or	r9,r9,r8<<0x18
  pwm->idr = ((1 << (AVR32_PWM_LINES_MSB + 1)) - 1) << AVR32_PWM_IDR_CHID0_OFFSET;
  pwm->isr;
  if (global_interrupt_enabled) Enable_global_interrupt();

  // Set PWM mode register.
  pwm->mr =
80002c76:	fe 78 30 00 	mov	r8,-53248
80002c7a:	91 09       	st.w	r8[0x0],r9
80002c7c:	5e fd       	retal	0

80002c7e <getBaudDiv>:
xSemaphoreHandle xSPIMutex;
#endif

int16_t getBaudDiv(const uint32_t baudrate, uint32_t pb_hz)
{
	uint32_t baudDiv = div_ceil(pb_hz, baudrate);
80002c7e:	f8 c8 00 01 	sub	r8,r12,1
80002c82:	f0 0b 00 0b 	add	r11,r8,r11
80002c86:	f6 0c 0d 0a 	divu	r10,r11,r12
80002c8a:	14 9c       	mov	r12,r10

	if (baudDiv <= 0 || baudDiv > 255) {
80002c8c:	f4 c8 00 01 	sub	r8,r10,1
80002c90:	e0 48 00 fe 	cp.w	r8,254
80002c94:	e0 88 00 03 	brls	80002c9a <getBaudDiv+0x1c>
80002c98:	5e fe       	retal	-1
		return -1;
	}

	return baudDiv;
80002c9a:	5c 8c       	casts.h	r12
}
80002c9c:	5e fc       	retal	r12

80002c9e <spi_initMaster>:
spi_status_t spi_initMaster(volatile avr32_spi_t *spi,
		const spi_options_t *options)
{
	u_avr32_spi_mr_t u_avr32_spi_mr;

	if (options->modfdis > 1) {
80002c9e:	f7 39 00 0d 	ld.ub	r9,r11[13]
80002ca2:	30 18       	mov	r8,1
80002ca4:	f0 09 18 00 	cp.b	r9,r8
80002ca8:	e0 88 00 04 	brls	80002cb0 <spi_initMaster+0x12>
80002cac:	30 2c       	mov	r12,2
80002cae:	5e fc       	retal	r12
		return SPI_ERROR_ARGUMENT;
	}

	/* Reset. */
	spi->cr = AVR32_SPI_CR_SWRST_MASK;
80002cb0:	e0 68 00 80 	mov	r8,128
80002cb4:	99 08       	st.w	r12[0x0],r8

	/* Master Mode. */
	u_avr32_spi_mr.mr = spi->mr;
80002cb6:	78 18       	ld.w	r8,r12[0x4]
	u_avr32_spi_mr.MR.mstr = 1;
80002cb8:	30 19       	mov	r9,1
80002cba:	f1 d9 d0 01 	bfins	r8,r9,0x0,0x1
	u_avr32_spi_mr.MR.modfdis = options->modfdis;
80002cbe:	f7 39 00 0d 	ld.ub	r9,r11[13]
80002cc2:	f1 d9 d0 81 	bfins	r8,r9,0x4,0x1
	u_avr32_spi_mr.MR.llb = 0;
80002cc6:	30 09       	mov	r9,0
80002cc8:	f1 d9 d0 e1 	bfins	r8,r9,0x7,0x1
	u_avr32_spi_mr.MR.pcs = (1 << AVR32_SPI_MR_PCS_SIZE) - 1;
80002ccc:	30 fa       	mov	r10,15
80002cce:	f1 da d2 04 	bfins	r8,r10,0x10,0x4
	spi->mr = u_avr32_spi_mr.mr;
80002cd2:	99 18       	st.w	r12[0x4],r8
80002cd4:	5e f9       	retal	r9

80002cd6 <spi_selectionMode>:

spi_status_t spi_selectionMode(volatile avr32_spi_t *spi,
		uint8_t variable_ps,
		uint8_t pcs_decode,
		uint8_t delay)
{
80002cd6:	d4 01       	pushm	lr
	u_avr32_spi_mr_t u_avr32_spi_mr;

	if (variable_ps > 1 ||
80002cd8:	30 18       	mov	r8,1
80002cda:	f0 0b 18 00 	cp.b	r11,r8
80002cde:	5f be       	srhi	lr
80002ce0:	f0 0a 18 00 	cp.b	r10,r8
80002ce4:	5f b8       	srhi	r8
80002ce6:	fd e8 10 08 	or	r8,lr,r8
80002cea:	c0 30       	breq	80002cf0 <spi_selectionMode+0x1a>
80002cec:	30 2c       	mov	r12,2
80002cee:	d8 02       	popm	pc
			pcs_decode > 1) {
		return SPI_ERROR_ARGUMENT;
	}

	u_avr32_spi_mr.mr = spi->mr;
80002cf0:	78 18       	ld.w	r8,r12[0x4]
	u_avr32_spi_mr.MR.ps = variable_ps;
80002cf2:	f1 db d0 21 	bfins	r8,r11,0x1,0x1
	u_avr32_spi_mr.MR.pcsdec = pcs_decode;
80002cf6:	f1 da d0 41 	bfins	r8,r10,0x2,0x1
	u_avr32_spi_mr.MR.dlybcs = delay;
80002cfa:	f1 d9 d3 08 	bfins	r8,r9,0x18,0x8
	spi->mr = u_avr32_spi_mr.mr;
80002cfe:	99 18       	st.w	r12[0x4],r8
80002d00:	d8 0a       	popm	pc,r12=0

80002d02 <spi_selectChip>:
	while (pdFALSE == xSemaphoreTake(xSPIMutex, 20)) {
	}
#endif

	/* Assert all lines; no peripheral is selected. */
	spi->mr |= AVR32_SPI_MR_PCS_MASK;
80002d02:	78 18       	ld.w	r8,r12[0x4]
80002d04:	ea 18 00 0f 	orh	r8,0xf
80002d08:	99 18       	st.w	r12[0x4],r8

	if (spi->mr & AVR32_SPI_MR_PCSDEC_MASK) {
80002d0a:	78 18       	ld.w	r8,r12[0x4]
80002d0c:	e2 18 00 04 	andl	r8,0x4,COH
80002d10:	c0 f0       	breq	80002d2e <spi_selectChip+0x2c>
		/* The signal is decoded; allow up to 15 chips. */
		if (chip > 14) {
80002d12:	30 e8       	mov	r8,14
80002d14:	f0 0b 18 00 	cp.b	r11,r8
80002d18:	e0 8b 00 19 	brhi	80002d4a <spi_selectChip+0x48>
			return SPI_ERROR_ARGUMENT;
		}

		spi->mr &= ~AVR32_SPI_MR_PCS_MASK |
80002d1c:	78 18       	ld.w	r8,r12[0x4]
80002d1e:	b1 6b       	lsl	r11,0x10
80002d20:	ea 1b ff f0 	orh	r11,0xfff0
80002d24:	e8 1b ff ff 	orl	r11,0xffff
80002d28:	10 6b       	and	r11,r8
80002d2a:	99 1b       	st.w	r12[0x4],r11
80002d2c:	5e fd       	retal	0
				(chip << AVR32_SPI_MR_PCS_OFFSET);
	} else {
		if (chip > 3) {
80002d2e:	30 38       	mov	r8,3
80002d30:	f0 0b 18 00 	cp.b	r11,r8
80002d34:	e0 8b 00 0b 	brhi	80002d4a <spi_selectChip+0x48>
			return SPI_ERROR_ARGUMENT;
		}

		spi->mr &= ~(1 << (AVR32_SPI_MR_PCS_OFFSET + chip));
80002d38:	78 18       	ld.w	r8,r12[0x4]
80002d3a:	2f 0b       	sub	r11,-16
80002d3c:	30 19       	mov	r9,1
80002d3e:	f2 0b 09 4b 	lsl	r11,r9,r11
80002d42:	5c db       	com	r11
80002d44:	10 6b       	and	r11,r8
80002d46:	99 1b       	st.w	r12[0x4],r11
80002d48:	5e fd       	retal	0
80002d4a:	30 2c       	mov	r12,2
	}

	return SPI_OK;
}
80002d4c:	5e fc       	retal	r12

80002d4e <spi_unselectChip>:

spi_status_t spi_unselectChip(volatile avr32_spi_t *spi, uint8_t chip)
{
80002d4e:	e0 68 3a 98 	mov	r8,15000
	uint32_t timeout = SPI_TIMEOUT;

	while (!(spi->sr & AVR32_SPI_SR_TXEMPTY_MASK)) {
80002d52:	c0 58       	rjmp	80002d5c <spi_unselectChip+0xe>
		if (!timeout--) {
80002d54:	58 08       	cp.w	r8,0
80002d56:	c0 21       	brne	80002d5a <spi_unselectChip+0xc>
80002d58:	5e ff       	retal	1
80002d5a:	20 18       	sub	r8,1

spi_status_t spi_unselectChip(volatile avr32_spi_t *spi, uint8_t chip)
{
	uint32_t timeout = SPI_TIMEOUT;

	while (!(spi->sr & AVR32_SPI_SR_TXEMPTY_MASK)) {
80002d5c:	78 49       	ld.w	r9,r12[0x10]
80002d5e:	e2 19 02 00 	andl	r9,0x200,COH
80002d62:	cf 90       	breq	80002d54 <spi_unselectChip+0x6>
			return SPI_ERROR_TIMEOUT;
		}
	}

	/* Assert all lines; no peripheral is selected. */
	spi->mr |= AVR32_SPI_MR_PCS_MASK;
80002d64:	78 18       	ld.w	r8,r12[0x4]
80002d66:	ea 18 00 0f 	orh	r8,0xf
80002d6a:	99 18       	st.w	r12[0x4],r8

	/* Last transfer, so de-assert the current NPCS if CSAAT is set. */
	spi->cr = AVR32_SPI_CR_LASTXFER_MASK;
80002d6c:	fc 18 01 00 	movh	r8,0x100
80002d70:	99 08       	st.w	r12[0x0],r8
80002d72:	5e fd       	retal	0

80002d74 <spi_setupChipReg>:
}

spi_status_t spi_setupChipReg(volatile avr32_spi_t *spi,
		const spi_options_t *options,
		uint32_t pb_hz)
{
80002d74:	eb cd 40 f8 	pushm	r3-r7,lr
80002d78:	18 95       	mov	r5,r12
80002d7a:	16 97       	mov	r7,r11
	u_avr32_spi_csr_t u_avr32_spi_csr;

	if (options->spi_mode > 3 ||
80002d7c:	f7 36 00 0c 	ld.ub	r6,r11[12]
80002d80:	30 38       	mov	r8,3
80002d82:	f0 06 18 00 	cp.b	r6,r8
80002d86:	e0 8b 00 4d 	brhi	80002e20 <spi_setupChipReg+0xac>
			options->stay_act > 1 ||
80002d8a:	f7 34 00 0b 	ld.ub	r4,r11[11]
		const spi_options_t *options,
		uint32_t pb_hz)
{
	u_avr32_spi_csr_t u_avr32_spi_csr;

	if (options->spi_mode > 3 ||
80002d8e:	30 18       	mov	r8,1
80002d90:	f0 04 18 00 	cp.b	r4,r8
80002d94:	e0 8b 00 46 	brhi	80002e20 <spi_setupChipReg+0xac>
			options->stay_act > 1 ||
			options->bits < 8 || options->bits > 16) {
80002d98:	f7 33 00 08 	ld.ub	r3,r11[8]
		const spi_options_t *options,
		uint32_t pb_hz)
{
	u_avr32_spi_csr_t u_avr32_spi_csr;

	if (options->spi_mode > 3 ||
80002d9c:	30 78       	mov	r8,7
80002d9e:	f0 03 18 00 	cp.b	r3,r8
80002da2:	e0 88 00 3f 	brls	80002e20 <spi_setupChipReg+0xac>
80002da6:	31 08       	mov	r8,16
80002da8:	f0 03 18 00 	cp.b	r3,r8
80002dac:	e0 8b 00 3a 	brhi	80002e20 <spi_setupChipReg+0xac>
			options->stay_act > 1 ||
			options->bits < 8 || options->bits > 16) {
		return SPI_ERROR_ARGUMENT;
	}

	int baudDiv = getBaudDiv(options->baudrate, pb_hz);
80002db0:	14 9b       	mov	r11,r10
80002db2:	6e 1c       	ld.w	r12,r7[0x4]
80002db4:	f0 1f 00 1d 	mcall	80002e28 <spi_setupChipReg+0xb4>

	if (baudDiv < 0) {
80002db8:	c3 45       	brlt	80002e20 <spi_setupChipReg+0xac>
		return SPI_ERROR_ARGUMENT;
	}

	/* Will use CSR0 offsets; these are the same for CSR0 to CSR3. */
	u_avr32_spi_csr.csr = 0;
80002dba:	30 08       	mov	r8,0
	u_avr32_spi_csr.CSR.cpol   = options->spi_mode >> 1;
80002dbc:	ec 09 16 01 	lsr	r9,r6,0x1
80002dc0:	f1 d9 d0 01 	bfins	r8,r9,0x0,0x1
	u_avr32_spi_csr.CSR.ncpha  = (options->spi_mode & 0x1) ^ 0x1;
80002dc4:	ec 16 00 01 	eorl	r6,0x1
80002dc8:	f1 d6 d0 21 	bfins	r8,r6,0x1,0x1
	u_avr32_spi_csr.CSR.csaat  = options->stay_act;
80002dcc:	f1 d4 d0 61 	bfins	r8,r4,0x3,0x1
	u_avr32_spi_csr.CSR.bits   = options->bits - 8;
80002dd0:	20 83       	sub	r3,8
80002dd2:	f1 d3 d0 84 	bfins	r8,r3,0x4,0x4
	u_avr32_spi_csr.CSR.scbr   = baudDiv;
80002dd6:	f1 dc d1 08 	bfins	r8,r12,0x8,0x8
	u_avr32_spi_csr.CSR.dlybs  = options->spck_delay;
80002dda:	ef 39 00 09 	ld.ub	r9,r7[9]
80002dde:	f1 d9 d2 08 	bfins	r8,r9,0x10,0x8
	u_avr32_spi_csr.CSR.dlybct = options->trans_delay;
80002de2:	ef 39 00 0a 	ld.ub	r9,r7[10]
80002de6:	f1 d9 d3 08 	bfins	r8,r9,0x18,0x8

	switch (options->reg) {
80002dea:	0f 89       	ld.ub	r9,r7[0x0]
80002dec:	30 1a       	mov	r10,1
80002dee:	f4 09 18 00 	cp.b	r9,r10
80002df2:	c0 e0       	breq	80002e0e <spi_setupChipReg+0x9a>
80002df4:	c0 a3       	brcs	80002e08 <spi_setupChipReg+0x94>
80002df6:	30 2a       	mov	r10,2
80002df8:	f4 09 18 00 	cp.b	r9,r10
80002dfc:	c0 c0       	breq	80002e14 <spi_setupChipReg+0xa0>
80002dfe:	30 3a       	mov	r10,3
80002e00:	f4 09 18 00 	cp.b	r9,r10
80002e04:	c0 e1       	brne	80002e20 <spi_setupChipReg+0xac>
80002e06:	c0 a8       	rjmp	80002e1a <spi_setupChipReg+0xa6>
	case 0:
		spi->csr0 = u_avr32_spi_csr.csr;
80002e08:	8b c8       	st.w	r5[0x30],r8
80002e0a:	e3 cf 80 f8 	ldm	sp++,r3-r7,pc,r12=0
		break;

	case 1:
		spi->csr1 = u_avr32_spi_csr.csr;
80002e0e:	8b d8       	st.w	r5[0x34],r8
80002e10:	e3 cf 80 f8 	ldm	sp++,r3-r7,pc,r12=0
		break;

	case 2:
		spi->csr2 = u_avr32_spi_csr.csr;
80002e14:	8b e8       	st.w	r5[0x38],r8
80002e16:	e3 cf 80 f8 	ldm	sp++,r3-r7,pc,r12=0
		break;

	case 3:
		spi->csr3 = u_avr32_spi_csr.csr;
80002e1a:	8b f8       	st.w	r5[0x3c],r8
80002e1c:	e3 cf 80 f8 	ldm	sp++,r3-r7,pc,r12=0
		break;
80002e20:	30 2c       	mov	r12,2
		}
	}
#endif

	return SPI_OK;
}
80002e22:	e3 cd 80 f8 	ldm	sp++,r3-r7,pc
80002e26:	00 00       	add	r0,r0
80002e28:	80 00       	ld.sh	r0,r0[0x0]
80002e2a:	2c 7e       	sub	lr,-57

80002e2c <spi_enable>:

void spi_enable(volatile avr32_spi_t *spi)
{
	spi->cr = AVR32_SPI_CR_SPIEN_MASK;
80002e2c:	30 18       	mov	r8,1
80002e2e:	99 08       	st.w	r12[0x0],r8
}
80002e30:	5e fc       	retal	r12

80002e32 <spi_write>:
{
	return ((spi->sr & AVR32_SPI_SR_TDRE_MASK) != 0);
}

spi_status_t spi_write(volatile avr32_spi_t *spi, uint16_t data)
{
80002e32:	e0 68 3a 98 	mov	r8,15000
	uint32_t timeout = SPI_TIMEOUT;

	while (!(spi->sr & AVR32_SPI_SR_TDRE_MASK)) {
80002e36:	c0 58       	rjmp	80002e40 <spi_write+0xe>
		if (!timeout--) {
80002e38:	58 08       	cp.w	r8,0
80002e3a:	c0 21       	brne	80002e3e <spi_write+0xc>
80002e3c:	5e ff       	retal	1
80002e3e:	20 18       	sub	r8,1

spi_status_t spi_write(volatile avr32_spi_t *spi, uint16_t data)
{
	uint32_t timeout = SPI_TIMEOUT;

	while (!(spi->sr & AVR32_SPI_SR_TDRE_MASK)) {
80002e40:	78 49       	ld.w	r9,r12[0x10]
80002e42:	e2 19 00 02 	andl	r9,0x2,COH
80002e46:	cf 90       	breq	80002e38 <spi_write+0x6>
		if (!timeout--) {
			return SPI_ERROR_TIMEOUT;
		}
	}

	spi->tdr = data << AVR32_SPI_TDR_TD_OFFSET;
80002e48:	5c 7b       	castu.h	r11
80002e4a:	99 3b       	st.w	r12[0xc],r11
80002e4c:	5e fd       	retal	0

80002e4e <spi_read>:
{
	return ((spi->sr & AVR32_SPI_SR_RDRF_MASK) != 0);
}

spi_status_t spi_read(volatile avr32_spi_t *spi, uint16_t *data)
{
80002e4e:	e0 68 3a 98 	mov	r8,15000
	unsigned int timeout = SPI_TIMEOUT;

	while ((spi->sr &
80002e52:	c0 58       	rjmp	80002e5c <spi_read+0xe>
			(AVR32_SPI_SR_RDRF_MASK | AVR32_SPI_SR_TXEMPTY_MASK)) !=
			(AVR32_SPI_SR_RDRF_MASK | AVR32_SPI_SR_TXEMPTY_MASK)) {
		if (!timeout--) {
80002e54:	58 08       	cp.w	r8,0
80002e56:	c0 21       	brne	80002e5a <spi_read+0xc>
80002e58:	5e ff       	retal	1
80002e5a:	20 18       	sub	r8,1

spi_status_t spi_read(volatile avr32_spi_t *spi, uint16_t *data)
{
	unsigned int timeout = SPI_TIMEOUT;

	while ((spi->sr &
80002e5c:	78 49       	ld.w	r9,r12[0x10]
80002e5e:	e2 19 02 01 	andl	r9,0x201,COH
80002e62:	e0 49 02 01 	cp.w	r9,513
80002e66:	cf 71       	brne	80002e54 <spi_read+0x6>
		if (!timeout--) {
			return SPI_ERROR_TIMEOUT;
		}
	}

	*data = spi->rdr >> AVR32_SPI_RDR_RD_OFFSET;
80002e68:	78 28       	ld.w	r8,r12[0x8]
80002e6a:	b6 08       	st.h	r11[0x0],r8
80002e6c:	5e fd       	retal	0
80002e6e:	d7 03       	nop

80002e70 <_stext>:

  .global _stext
  .type _stext, @function
_stext:
  // Set initial stack pointer.
  lda.w   sp, _estack
80002e70:	e0 7d 00 00 	mov	sp,65536

  // Set up EVBA so interrupts can be enabled.
  lda.w   r0, _evba
  mtsr    AVR32_EVBA, r0
80002e74:	fe c0 dc 74 	sub	r0,pc,-9100

  // Enable the exception processing.
  csrf    AVR32_SR_EM_OFFSET
80002e78:	e3 b0 00 01 	mtsr	0x4,r0

  // Load initialized data having a global lifetime from the data LMA.
  lda.w   r0, _data
  lda.w   r1, _edata
80002e7c:	d5 53       	csrf	0x15
  cp      r0, r1
80002e7e:	30 40       	mov	r0,4
  brhs    idata_load_loop_end
80002e80:	34 01       	mov	r1,64
  lda.w   r2, _data_lma
80002e82:	02 30       	cp.w	r0,r1
idata_load_loop:
  ld.d    r4, r2++
80002e84:	c0 72       	brcc	80002e92 <idata_load_loop_end>
  st.d    r0++, r4
80002e86:	fe c2 a5 de 	sub	r2,pc,-23074

80002e8a <idata_load_loop>:
  cp      r0, r1
  brlo    idata_load_loop
80002e8a:	a5 05       	ld.d	r4,r2++
idata_load_loop_end:

  // Clear uninitialized data having a global lifetime in the blank static storage section.
  lda.w   r0, __bss_start
80002e8c:	a1 24       	st.d	r0++,r4
  lda.w   r1, _end
80002e8e:	02 30       	cp.w	r0,r1
  cp      r0, r1
80002e90:	cf d3       	brcs	80002e8a <idata_load_loop>

80002e92 <idata_load_loop_end>:
  brhs    udata_clear_loop_end
80002e92:	34 00       	mov	r0,64
  mov     r2, 0
80002e94:	e0 61 13 a0 	mov	r1,5024
  mov     r3, 0
udata_clear_loop:
  st.d    r0++, r2
80002e98:	02 30       	cp.w	r0,r1
  cp      r0, r1
80002e9a:	c0 62       	brcc	80002ea6 <udata_clear_loop_end>
  brlo    udata_clear_loop
80002e9c:	30 02       	mov	r2,0
  // Safety: Set the default "return" @ to the exit routine address.
  lda.w   lr, exit
#endif

  // Start the show.
  lda.w   pc, main
80002e9e:	30 03       	mov	r3,0

80002ea0 <udata_clear_loop>:
80002ea0:	a1 22       	st.d	r0++,r2
80002ea2:	02 30       	cp.w	r0,r1
80002ea4:	cf e3       	brcs	80002ea0 <udata_clear_loop>

80002ea6 <udata_clear_loop_end>:
80002ea6:	fe cf df d6 	sub	pc,pc,-8234
80002eaa:	d7 03       	nop

80002eac <gfx_BeginNewTerminal>:
			}
		}
	}
}

void gfx_BeginNewTerminal(Vector2 topLeft){
80002eac:	eb cd 00 10 	pushm	r4
80002eb0:	fa c4 ff fc 	sub	r4,sp,-4
80002eb4:	88 09       	ld.sh	r9,r4[0x0]
	newLinePosition = topLeft;
80002eb6:	48 48       	lddpc	r8,80002ec4 <gfx_BeginNewTerminal+0x18>
80002eb8:	09 aa       	ld.ub	r10,r4[0x2]
80002eba:	b0 aa       	st.b	r8[0x2],r10
80002ebc:	b0 09       	st.h	r8[0x0],r9
}
80002ebe:	e3 cd 00 10 	ldm	sp++,r4
80002ec2:	5e fc       	retal	r12
80002ec4:	00 00       	add	r0,r0
80002ec6:	01 34       	ld.ub	r4,r0++

80002ec8 <gfx_DrawCircle>:

void gfx_DrawPixel(Vector2 position, Color color){
	screen_SetPixel(position,color);
}

void gfx_DrawCircle(Vector2 center, uint16_t radius, uint8_t width, Color color){
80002ec8:	d4 31       	pushm	r0-r7,lr
80002eca:	fa cd 00 80 	sub	sp,sp,128
80002ece:	fa c4 ff 5c 	sub	r4,sp,-164
80002ed2:	50 7c       	stdsp	sp[0x1c],r12
80002ed4:	50 3b       	stdsp	sp[0xc],r11
80002ed6:	88 0a       	ld.sh	r10,r4[0x0]
80002ed8:	50 4a       	stdsp	sp[0x10],r10
80002eda:	09 a5       	ld.ub	r5,r4[0x2]
	int16_t x, y, e;
	x = 0;
	y = radius;
80002edc:	18 97       	mov	r7,r12
80002ede:	5c 87       	casts.h	r7
	e = 1 - radius;
80002ee0:	f8 00 11 01 	rsub	r0,r12,1
80002ee4:	5c 80       	casts.h	r0
80002ee6:	14 91       	mov	r1,r10
80002ee8:	5c 81       	casts.h	r1
80002eea:	50 21       	stdsp	sp[0x8],r1
80002eec:	30 06       	mov	r6,0
	
	do
	{
		if(width == radius)
80002eee:	50 6b       	stdsp	sp[0x18],r11
80002ef0:	40 38       	lddsp	r8,sp[0xc]
80002ef2:	40 7a       	lddsp	r10,sp[0x1c]
80002ef4:	f4 08 19 00 	cp.h	r8,r10
80002ef8:	c5 d1       	brne	80002fb2 <gfx_DrawCircle+0xea>
		{
			screen_SetPixels(Rect(center.x -x, center.y +y, center.x+x, center.y +y),color);
80002efa:	40 22       	lddsp	r2,sp[0x8]
80002efc:	5c 72       	castu.h	r2
80002efe:	0e 93       	mov	r3,r7
80002f00:	e6 05 00 0a 	add	r10,r3,r5
80002f04:	5c 5a       	castu.b	r10
80002f06:	f3 d1 c0 10 	bfextu	r9,r1,0x0,0x10
80002f0a:	50 09       	stdsp	sp[0x0],r9
80002f0c:	14 98       	mov	r8,r10
80002f0e:	04 99       	mov	r9,r2
80002f10:	40 0b       	lddsp	r11,sp[0x0]
80002f12:	fa cc ff e0 	sub	r12,sp,-32
80002f16:	f0 1f 00 93 	mcall	80003160 <gfx_DrawCircle+0x298>
80002f1a:	68 18       	ld.w	r8,r4[0x4]
80002f1c:	1a d8       	st.w	--sp,r8
80002f1e:	fa e8 00 24 	ld.d	r8,sp[36]
80002f22:	bb 29       	st.d	--sp,r8
80002f24:	f0 1f 00 90 	mcall	80003164 <gfx_DrawCircle+0x29c>
			screen_SetPixels(Rect(center.x -x, center.y -y, center.x+x, center.y -y),color);
80002f28:	ea 03 01 03 	sub	r3,r5,r3
80002f2c:	f5 d3 c0 08 	bfextu	r10,r3,0x0,0x8
80002f30:	14 98       	mov	r8,r10
80002f32:	04 99       	mov	r9,r2
80002f34:	40 3b       	lddsp	r11,sp[0xc]
80002f36:	fa cc ff cc 	sub	r12,sp,-52
80002f3a:	f0 1f 00 8a 	mcall	80003160 <gfx_DrawCircle+0x298>
80002f3e:	68 18       	ld.w	r8,r4[0x4]
80002f40:	1a d8       	st.w	--sp,r8
80002f42:	fa e8 00 38 	ld.d	r8,sp[56]
80002f46:	bb 29       	st.d	--sp,r8
80002f48:	f0 1f 00 87 	mcall	80003164 <gfx_DrawCircle+0x29c>
			screen_SetPixels(Rect(center.x -y, center.y +x, center.x+y, center.y +x),color);
80002f4c:	0e 92       	mov	r2,r7
80002f4e:	fb 08 00 2a 	ld.sh	r8,sp[42]
80002f52:	10 02       	add	r2,r8
80002f54:	5c 72       	castu.h	r2

void gfx_DrawPixel(Vector2 position, Color color){
	screen_SetPixel(position,color);
}

void gfx_DrawCircle(Vector2 center, uint16_t radius, uint8_t width, Color color){
80002f56:	e7 d6 c0 08 	bfextu	r3,r6,0x0,0x8
	{
		if(width == radius)
		{
			screen_SetPixels(Rect(center.x -x, center.y +y, center.x+x, center.y +y),color);
			screen_SetPixels(Rect(center.x -x, center.y -y, center.x+x, center.y -y),color);
			screen_SetPixels(Rect(center.x -y, center.y +x, center.x+y, center.y +x),color);
80002f5a:	e6 05 00 0a 	add	r10,r3,r5
80002f5e:	5c 5a       	castu.b	r10
80002f60:	fb 08 00 2a 	ld.sh	r8,sp[42]
80002f64:	0e 99       	mov	r9,r7
80002f66:	12 18       	sub	r8,r9
80002f68:	5c 78       	castu.h	r8
80002f6a:	50 68       	stdsp	sp[0x18],r8
80002f6c:	14 98       	mov	r8,r10
80002f6e:	04 99       	mov	r9,r2
80002f70:	40 6b       	lddsp	r11,sp[0x18]
80002f72:	fa cc ff b8 	sub	r12,sp,-72
80002f76:	f0 1f 00 7b 	mcall	80003160 <gfx_DrawCircle+0x298>
80002f7a:	68 18       	ld.w	r8,r4[0x4]
80002f7c:	1a d8       	st.w	--sp,r8
80002f7e:	fa e8 00 4c 	ld.d	r8,sp[76]
80002f82:	bb 29       	st.d	--sp,r8
80002f84:	f0 1f 00 78 	mcall	80003164 <gfx_DrawCircle+0x29c>
			screen_SetPixels(Rect(center.x -y, center.y -x, center.x+y, center.y -x),color);
80002f88:	ea 03 01 03 	sub	r3,r5,r3
80002f8c:	f5 d3 c0 08 	bfextu	r10,r3,0x0,0x8
80002f90:	2f 7d       	sub	sp,-36
80002f92:	14 98       	mov	r8,r10
80002f94:	04 99       	mov	r9,r2
80002f96:	40 0b       	lddsp	r11,sp[0x0]
80002f98:	fa cc ff c8 	sub	r12,sp,-56
80002f9c:	f0 1f 00 71 	mcall	80003160 <gfx_DrawCircle+0x298>
80002fa0:	68 18       	ld.w	r8,r4[0x4]
80002fa2:	1a d8       	st.w	--sp,r8
80002fa4:	fa e8 00 3c 	ld.d	r8,sp[60]
80002fa8:	bb 29       	st.d	--sp,r8
80002faa:	f0 1f 00 6f 	mcall	80003164 <gfx_DrawCircle+0x29c>
80002fae:	2f dd       	sub	sp,-12
80002fb0:	cb 78       	rjmp	8000311e <gfx_DrawCircle+0x256>
			Screen_SetPixel(Vector2_Add((Vector2){ y, x },center),color);
			Screen_SetPixel(Vector2_Add((Vector2){-y, x },center),color);
			Screen_SetPixel(Vector2_Add((Vector2){ y, -x},center),color);
			Screen_SetPixel(Vector2_Add((Vector2){-y, -x},center),color);*/
				
			screen_SetPixels(Rect(center.x + x, center.y + y - width, center.x + x, center.y + y),color);
80002fb2:	0e 98       	mov	r8,r7
80002fb4:	5c 58       	castu.b	r8
80002fb6:	50 08       	stdsp	sp[0x0],r8
80002fb8:	10 92       	mov	r2,r8
80002fba:	0a 02       	add	r2,r5
80002fbc:	5c 52       	castu.b	r2
80002fbe:	40 3a       	lddsp	r10,sp[0xc]
80002fc0:	e4 0a 01 08 	sub	r8,r2,r10
80002fc4:	5c 58       	castu.b	r8
80002fc6:	50 58       	stdsp	sp[0x14],r8
80002fc8:	40 23       	lddsp	r3,sp[0x8]
80002fca:	5c 73       	castu.h	r3
80002fcc:	04 98       	mov	r8,r2
80002fce:	06 99       	mov	r9,r3
80002fd0:	40 5a       	lddsp	r10,sp[0x14]
80002fd2:	06 9b       	mov	r11,r3
80002fd4:	fa cc ff c0 	sub	r12,sp,-64
80002fd8:	f0 1f 00 62 	mcall	80003160 <gfx_DrawCircle+0x298>
80002fdc:	68 18       	ld.w	r8,r4[0x4]
80002fde:	1a d8       	st.w	--sp,r8
80002fe0:	fa e8 00 44 	ld.d	r8,sp[68]
80002fe4:	bb 29       	st.d	--sp,r8
80002fe6:	f0 1f 00 60 	mcall	80003164 <gfx_DrawCircle+0x29c>
			screen_SetPixels(Rect(center.x + x, center.y - y, center.x + x, center.y - y + width),color);
80002fea:	fb 39 00 0f 	ld.ub	r9,sp[15]
80002fee:	ea 09 01 08 	sub	r8,r5,r9
80002ff2:	5c 58       	castu.b	r8
80002ff4:	50 38       	stdsp	sp[0xc],r8
80002ff6:	fb 38 00 0f 	ld.ub	r8,sp[15]
80002ffa:	fb 3a 00 1b 	ld.ub	r10,sp[27]
80002ffe:	14 08       	add	r8,r10
80003000:	5c 58       	castu.b	r8
80003002:	50 48       	stdsp	sp[0x10],r8
80003004:	06 99       	mov	r9,r3
80003006:	40 3a       	lddsp	r10,sp[0xc]
80003008:	06 9b       	mov	r11,r3
8000300a:	fa cc ff ac 	sub	r12,sp,-84
8000300e:	f0 1f 00 55 	mcall	80003160 <gfx_DrawCircle+0x298>
80003012:	68 18       	ld.w	r8,r4[0x4]
80003014:	1a d8       	st.w	--sp,r8
80003016:	fa e8 00 58 	ld.d	r8,sp[88]
8000301a:	bb 29       	st.d	--sp,r8
8000301c:	f0 1f 00 52 	mcall	80003164 <gfx_DrawCircle+0x29c>
			screen_SetPixels(Rect(center.x - x, center.y + y - width, center.x - x, center.y + y),color);
80003020:	e7 d1 c0 10 	bfextu	r3,r1,0x0,0x10
80003024:	04 98       	mov	r8,r2
80003026:	06 99       	mov	r9,r3
80003028:	40 ba       	lddsp	r10,sp[0x2c]
8000302a:	06 9b       	mov	r11,r3
8000302c:	fa cc ff 98 	sub	r12,sp,-104
80003030:	f0 1f 00 4c 	mcall	80003160 <gfx_DrawCircle+0x298>
80003034:	68 18       	ld.w	r8,r4[0x4]
80003036:	1a d8       	st.w	--sp,r8
80003038:	fa e8 00 6c 	ld.d	r8,sp[108]
8000303c:	bb 29       	st.d	--sp,r8
8000303e:	f0 1f 00 4a 	mcall	80003164 <gfx_DrawCircle+0x29c>
			screen_SetPixels(Rect(center.x - x, center.y - y, center.x - x, center.y - y + width),color);
80003042:	2f 7d       	sub	sp,-36
80003044:	40 18       	lddsp	r8,sp[0x4]
80003046:	06 99       	mov	r9,r3
80003048:	40 0a       	lddsp	r10,sp[0x0]
8000304a:	06 9b       	mov	r11,r3
8000304c:	fa cc ff a8 	sub	r12,sp,-88
80003050:	f0 1f 00 44 	mcall	80003160 <gfx_DrawCircle+0x298>
80003054:	68 18       	ld.w	r8,r4[0x4]
80003056:	1a d8       	st.w	--sp,r8
80003058:	fa e8 00 5c 	ld.d	r8,sp[92]
8000305c:	bb 29       	st.d	--sp,r8
8000305e:	f0 1f 00 42 	mcall	80003164 <gfx_DrawCircle+0x29c>
			
			screen_SetPixels(Rect(center.x + y - width, center.y + x, center.x + y, center.y + x),color);
80003062:	0e 98       	mov	r8,r7
80003064:	fb 09 00 1e 	ld.sh	r9,sp[30]
80003068:	12 08       	add	r8,r9
8000306a:	f5 d8 c0 10 	bfextu	r10,r8,0x0,0x10
8000306e:	50 3a       	stdsp	sp[0xc],r10

void gfx_DrawPixel(Vector2 position, Color color){
	screen_SetPixel(position,color);
}

void gfx_DrawCircle(Vector2 center, uint16_t radius, uint8_t width, Color color){
80003070:	e5 d6 c0 08 	bfextu	r2,r6,0x0,0x8
			screen_SetPixels(Rect(center.x + x, center.y + y - width, center.x + x, center.y + y),color);
			screen_SetPixels(Rect(center.x + x, center.y - y, center.x + x, center.y - y + width),color);
			screen_SetPixels(Rect(center.x - x, center.y + y - width, center.x - x, center.y + y),color);
			screen_SetPixels(Rect(center.x - x, center.y - y, center.x - x, center.y - y + width),color);
			
			screen_SetPixels(Rect(center.x + y - width, center.y + x, center.x + y, center.y + x),color);
80003074:	e4 05 00 03 	add	r3,r2,r5
80003078:	5c 53       	castu.b	r3
8000307a:	fb 09 00 26 	ld.sh	r9,sp[38]
8000307e:	12 18       	sub	r8,r9
80003080:	5c 78       	castu.h	r8
80003082:	50 48       	stdsp	sp[0x10],r8
80003084:	06 98       	mov	r8,r3
80003086:	14 99       	mov	r9,r10
80003088:	06 9a       	mov	r10,r3
8000308a:	40 4b       	lddsp	r11,sp[0x10]
8000308c:	fa cc ff 94 	sub	r12,sp,-108
80003090:	f0 1f 00 34 	mcall	80003160 <gfx_DrawCircle+0x298>
80003094:	68 18       	ld.w	r8,r4[0x4]
80003096:	1a d8       	st.w	--sp,r8
80003098:	fa e8 00 70 	ld.d	r8,sp[112]
8000309c:	bb 29       	st.d	--sp,r8
8000309e:	f0 1f 00 32 	mcall	80003164 <gfx_DrawCircle+0x29c>
			screen_SetPixels(Rect(center.x + y - width, center.y - x, center.x + y, center.y - x),color);
800030a2:	ea 02 01 02 	sub	r2,r5,r2
800030a6:	5c 52       	castu.b	r2
800030a8:	04 98       	mov	r8,r2
800030aa:	40 69       	lddsp	r9,sp[0x18]
800030ac:	04 9a       	mov	r10,r2
800030ae:	40 7b       	lddsp	r11,sp[0x1c]
800030b0:	fa cc ff 80 	sub	r12,sp,-128
800030b4:	f0 1f 00 2b 	mcall	80003160 <gfx_DrawCircle+0x298>
800030b8:	68 18       	ld.w	r8,r4[0x4]
800030ba:	1a d8       	st.w	--sp,r8
800030bc:	fa e8 00 84 	ld.d	r8,sp[132]
800030c0:	bb 29       	st.d	--sp,r8
800030c2:	f0 1f 00 29 	mcall	80003164 <gfx_DrawCircle+0x29c>
			screen_SetPixels(Rect(center.x - y, center.y + x, center.x - y + width, center.y + x),color);
800030c6:	fb 08 00 36 	ld.sh	r8,sp[54]
800030ca:	0e 9a       	mov	r10,r7
800030cc:	14 18       	sub	r8,r10
800030ce:	fb 0a 00 3e 	ld.sh	r10,sp[62]
800030d2:	f0 0a 00 09 	add	r9,r8,r10
800030d6:	5c 79       	castu.h	r9
800030d8:	50 a9       	stdsp	sp[0x28],r9
800030da:	5c 78       	castu.h	r8
800030dc:	50 98       	stdsp	sp[0x24],r8
800030de:	2f 7d       	sub	sp,-36
800030e0:	06 98       	mov	r8,r3
800030e2:	40 19       	lddsp	r9,sp[0x4]
800030e4:	06 9a       	mov	r10,r3
800030e6:	40 0b       	lddsp	r11,sp[0x0]
800030e8:	fa cc ff 90 	sub	r12,sp,-112
800030ec:	f0 1f 00 1d 	mcall	80003160 <gfx_DrawCircle+0x298>
800030f0:	68 18       	ld.w	r8,r4[0x4]
800030f2:	1a d8       	st.w	--sp,r8
800030f4:	fa e8 00 74 	ld.d	r8,sp[116]
800030f8:	bb 29       	st.d	--sp,r8
800030fa:	f0 1f 00 1b 	mcall	80003164 <gfx_DrawCircle+0x29c>
			screen_SetPixels(Rect(center.x - y, center.y - x, center.x - y + width, center.y - x),color);
800030fe:	04 98       	mov	r8,r2
80003100:	40 49       	lddsp	r9,sp[0x10]
80003102:	04 9a       	mov	r10,r2
80003104:	40 3b       	lddsp	r11,sp[0xc]
80003106:	fa cc ff 7c 	sub	r12,sp,-132
8000310a:	f0 1f 00 16 	mcall	80003160 <gfx_DrawCircle+0x298>
8000310e:	68 18       	ld.w	r8,r4[0x4]
80003110:	1a d8       	st.w	--sp,r8
80003112:	fa e8 00 88 	ld.d	r8,sp[136]
80003116:	bb 29       	st.d	--sp,r8
80003118:	f0 1f 00 13 	mcall	80003164 <gfx_DrawCircle+0x29c>
8000311c:	2f ad       	sub	sp,-24
		}

		if(e < 0)
8000311e:	30 08       	mov	r8,0
80003120:	f0 00 19 00 	cp.h	r0,r8
80003124:	c0 74       	brge	80003132 <gfx_DrawCircle+0x26a>
			e += 3 + 2 * x;
80003126:	ec 08 15 01 	lsl	r8,r6,0x1
8000312a:	2f d0       	sub	r0,-3
8000312c:	10 00       	add	r0,r8
8000312e:	5c 80       	casts.h	r0
80003130:	c0 98       	rjmp	80003142 <gfx_DrawCircle+0x27a>
		else
			e += 5 + 2 * (x - y--);
80003132:	2f b0       	sub	r0,-5
80003134:	ec 07 01 08 	sub	r8,r6,r7
80003138:	a1 78       	lsl	r8,0x1
8000313a:	10 00       	add	r0,r8
8000313c:	5c 80       	casts.h	r0
8000313e:	20 17       	sub	r7,1
80003140:	5c 87       	casts.h	r7
		x++;
80003142:	2f f6       	sub	r6,-1
80003144:	5c 86       	casts.h	r6
80003146:	40 28       	lddsp	r8,sp[0x8]
80003148:	2f f8       	sub	r8,-1
8000314a:	5c 88       	casts.h	r8
8000314c:	50 28       	stdsp	sp[0x8],r8
8000314e:	20 11       	sub	r1,1
80003150:	5c 81       	casts.h	r1
	} while(x  <= y);
80003152:	ec 07 19 00 	cp.h	r7,r6
80003156:	fe 94 fe cd 	brge	80002ef0 <gfx_DrawCircle+0x28>
}
8000315a:	2e 0d       	sub	sp,-128
8000315c:	d8 32       	popm	r0-r7,pc
8000315e:	00 00       	add	r0,r0
80003160:	80 00       	ld.sh	r0,r0[0x0]
80003162:	42 04       	lddsp	r4,sp[0x80]
80003164:	80 00       	ld.sh	r0,r0[0x0]
80003166:	43 78       	lddsp	r8,sp[0xdc]

80003168 <gfx_Label>:
void gfx_FillScreen(Color color){


}

void gfx_Label(Vector2 position, char *content, uint8_t contentSize,TextSize textSize, Color color){
80003168:	d4 31       	pushm	r0-r7,lr
8000316a:	20 cd       	sub	sp,48
8000316c:	fa c1 ff ac 	sub	r1,sp,-84
80003170:	18 90       	mov	r0,r12
80003172:	50 7b       	stdsp	sp[0x1c],r11
80003174:	50 0a       	stdsp	sp[0x0],r10
	if(*content == '\0' || contentSize == 0)
80003176:	19 89       	ld.ub	r9,r12[0x0]
80003178:	30 08       	mov	r8,0
8000317a:	f0 09 18 00 	cp.b	r9,r8
8000317e:	5f 09       	sreq	r9
80003180:	f0 0b 18 00 	cp.b	r11,r8
80003184:	5f 0a       	sreq	r10
80003186:	f3 ea 10 0a 	or	r10,r9,r10
8000318a:	f0 0a 18 00 	cp.b	r10,r8
8000318e:	e0 81 00 a3 	brne	800032d4 <gfx_Label+0x16c>
		return;
	Vector2 fontSize = {8,8};
	if(textSize == Medium){
80003192:	40 0a       	lddsp	r10,sp[0x0]
80003194:	58 1a       	cp.w	r10,1
80003196:	f9 b8 00 14 	moveq	r8,20
8000319a:	fb f8 0a 02 	st.weq	sp[0x8],r8
8000319e:	f9 b2 00 10 	moveq	r2,16
800031a2:	f9 b2 01 08 	movne	r2,8
800031a6:	58 12       	cp.w	r2,1
800031a8:	fb f2 1a 02 	st.wne	sp[0x8],r2
		fontSize.x = 20;
		fontSize.y = 16;
	}
		
	for(uint8_t n = 0; n < contentSize; n++, content++){
800031ac:	40 78       	lddsp	r8,sp[0x1c]
800031ae:	58 08       	cp.w	r8,0
800031b0:	e0 80 00 92 	breq	800032d4 <gfx_Label+0x16c>
		if(*content == '\0')
800031b4:	58 09       	cp.w	r9,0
800031b6:	e0 81 00 8f 	brne	800032d4 <gfx_Label+0x16c>
800031ba:	30 8a       	mov	r10,8
800031bc:	50 5a       	stdsp	sp[0x14],r10
800031be:	31 09       	mov	r9,16
800031c0:	50 39       	stdsp	sp[0xc],r9
800031c2:	30 08       	mov	r8,0
800031c4:	50 68       	stdsp	sp[0x18],r8
800031c6:	c0 f8       	rjmp	800031e4 <gfx_Label+0x7c>
	if(textSize == Medium){
		fontSize.x = 20;
		fontSize.y = 16;
	}
		
	for(uint8_t n = 0; n < contentSize; n++, content++){
800031c8:	2f f0       	sub	r0,-1
800031ca:	40 38       	lddsp	r8,sp[0xc]
800031cc:	2f 28       	sub	r8,-14
800031ce:	5c 88       	casts.h	r8
800031d0:	50 38       	stdsp	sp[0xc],r8
800031d2:	40 58       	lddsp	r8,sp[0x14]
800031d4:	2f 68       	sub	r8,-10
800031d6:	5c 88       	casts.h	r8
800031d8:	50 58       	stdsp	sp[0x14],r8
		if(*content == '\0')
800031da:	01 89       	ld.ub	r9,r0[0x0]
800031dc:	30 08       	mov	r8,0
800031de:	f0 09 18 00 	cp.b	r9,r8
800031e2:	c7 90       	breq	800032d4 <gfx_Label+0x16c>
			break;
		
		for(uint8_t x = 0; x < fontSize.x; x++){
800031e4:	40 2a       	lddsp	r10,sp[0x8]
800031e6:	58 0a       	cp.w	r10,0
800031e8:	c6 d0       	breq	800032c2 <gfx_Label+0x15a>
800031ea:	30 03       	mov	r3,0
			uint16_t mask = 1;
			for(uint8_t y = 0; y < fontSize.y; y++){
800031ec:	40 59       	lddsp	r9,sp[0x14]
800031ee:	5c 89       	casts.h	r9
800031f0:	50 49       	stdsp	sp[0x10],r9
800031f2:	c5 a8       	rjmp	800032a6 <gfx_Label+0x13e>
						screen_SetPixel(vector2_Add(position,(Vector2){n * 14 + 16 - y, 12 - x}), color);
				}else{
					if(FONT8x8[*content - 31][x] & (1<<y))
						screen_SetPixel(vector2_Add(position,(Vector2){n * 10 + 8 - y, 8 - x}), color);
				}
				mask <<= 1;
800031f4:	a1 74       	lsl	r4,0x1
800031f6:	5c 84       	casts.h	r4
			break;
		
		for(uint8_t x = 0; x < fontSize.x; x++){
			uint16_t mask = 1;
			for(uint8_t y = 0; y < fontSize.y; y++){
				if(textSize == Medium){
800031f8:	40 08       	lddsp	r8,sp[0x0]
800031fa:	58 18       	cp.w	r8,1
800031fc:	c2 61       	brne	80003248 <gfx_Label+0xe0>
					if(FONT16x12[*content - 31][x] & mask)
800031fe:	01 88       	ld.ub	r8,r0[0x0]
80003200:	f0 08 00 28 	add	r8,r8,r8<<0x2
80003204:	e6 08 00 28 	add	r8,r3,r8<<0x2
80003208:	f0 c8 02 6c 	sub	r8,r8,620
8000320c:	4b 3a       	lddpc	r10,800032d8 <gfx_Label+0x170>
8000320e:	f4 08 04 18 	ld.sh	r8,r10[r8<<0x1]
80003212:	e9 e8 00 08 	and	r8,r4,r8
80003216:	30 09       	mov	r9,0
80003218:	f2 08 19 00 	cp.h	r8,r9
8000321c:	c3 60       	breq	80003288 <gfx_Label+0x120>
						screen_SetPixel(vector2_Add(position,(Vector2){n * 14 + 16 - y, 12 - x}), color);
8000321e:	fb 55 00 20 	st.h	sp[32],r5
80003222:	1b f8       	ld.ub	r8,sp[0x7]
80003224:	fb 68 00 22 	st.b	sp[34],r8
80003228:	40 88       	lddsp	r8,sp[0x20]
8000322a:	1a d8       	st.w	--sp,r8
8000322c:	62 08       	ld.w	r8,r1[0x0]
8000322e:	1a d8       	st.w	--sp,r8
80003230:	fa cc ff d4 	sub	r12,sp,-44
80003234:	f0 1f 00 2a 	mcall	800032dc <gfx_Label+0x174>
80003238:	62 18       	ld.w	r8,r1[0x4]
8000323a:	1a d8       	st.w	--sp,r8
8000323c:	40 c8       	lddsp	r8,sp[0x30]
8000323e:	1a d8       	st.w	--sp,r8
80003240:	f0 1f 00 28 	mcall	800032e0 <gfx_Label+0x178>
80003244:	2f cd       	sub	sp,-16
80003246:	c2 18       	rjmp	80003288 <gfx_Label+0x120>
				}else{
					if(FONT8x8[*content - 31][x] & (1<<y))
80003248:	01 88       	ld.ub	r8,r0[0x0]
8000324a:	21 f8       	sub	r8,31
8000324c:	e6 08 00 38 	add	r8,r3,r8<<0x3
80003250:	4a 5a       	lddpc	r10,800032e4 <gfx_Label+0x17c>
80003252:	f4 08 07 08 	ld.ub	r8,r10[r8]
80003256:	f0 07 08 48 	asr	r8,r8,r7
8000325a:	f1 d8 c0 01 	bfextu	r8,r8,0x0,0x1
8000325e:	c1 50       	breq	80003288 <gfx_Label+0x120>
						screen_SetPixel(vector2_Add(position,(Vector2){n * 10 + 8 - y, 8 - x}), color);
80003260:	fb 56 00 28 	st.h	sp[40],r6
80003264:	1b e9       	ld.ub	r9,sp[0x6]
80003266:	fb 69 00 2a 	st.b	sp[42],r9
8000326a:	40 a8       	lddsp	r8,sp[0x28]
8000326c:	1a d8       	st.w	--sp,r8
8000326e:	62 08       	ld.w	r8,r1[0x0]
80003270:	1a d8       	st.w	--sp,r8
80003272:	fa cc ff cc 	sub	r12,sp,-52
80003276:	f0 1f 00 1a 	mcall	800032dc <gfx_Label+0x174>
8000327a:	62 18       	ld.w	r8,r1[0x4]
8000327c:	1a d8       	st.w	--sp,r8
8000327e:	40 e8       	lddsp	r8,sp[0x38]
80003280:	1a d8       	st.w	--sp,r8
80003282:	f0 1f 00 18 	mcall	800032e0 <gfx_Label+0x178>
80003286:	2f cd       	sub	sp,-16
80003288:	2f f7       	sub	r7,-1
8000328a:	20 15       	sub	r5,1
8000328c:	5c 85       	casts.h	r5
8000328e:	20 16       	sub	r6,1
80003290:	5c 86       	casts.h	r6
		if(*content == '\0')
			break;
		
		for(uint8_t x = 0; x < fontSize.x; x++){
			uint16_t mask = 1;
			for(uint8_t y = 0; y < fontSize.y; y++){
80003292:	ee 02 18 00 	cp.b	r2,r7
80003296:	fe 9b ff af 	brhi	800031f4 <gfx_Label+0x8c>
		
	for(uint8_t n = 0; n < contentSize; n++, content++){
		if(*content == '\0')
			break;
		
		for(uint8_t x = 0; x < fontSize.x; x++){
8000329a:	2f f3       	sub	r3,-1
8000329c:	5c 53       	castu.b	r3
8000329e:	40 2a       	lddsp	r10,sp[0x8]
800032a0:	f4 03 19 00 	cp.h	r3,r10
800032a4:	c0 f2       	brcc	800032c2 <gfx_Label+0x15a>
			uint16_t mask = 1;
			for(uint8_t y = 0; y < fontSize.y; y++){
800032a6:	58 02       	cp.w	r2,0
800032a8:	cf 90       	breq	8000329a <gfx_Label+0x132>
800032aa:	40 46       	lddsp	r6,sp[0x10]
800032ac:	40 35       	lddsp	r5,sp[0xc]
800032ae:	5c 85       	casts.h	r5
800032b0:	30 07       	mov	r7,0
800032b2:	30 14       	mov	r4,1
				if(textSize == Medium){
					if(FONT16x12[*content - 31][x] & mask)
						screen_SetPixel(vector2_Add(position,(Vector2){n * 14 + 16 - y, 12 - x}), color);
				}else{
					if(FONT8x8[*content - 31][x] & (1<<y))
						screen_SetPixel(vector2_Add(position,(Vector2){n * 10 + 8 - y, 8 - x}), color);
800032b4:	e6 09 11 08 	rsub	r9,r3,8
800032b8:	ba e9       	st.b	sp[0x6],r9
		for(uint8_t x = 0; x < fontSize.x; x++){
			uint16_t mask = 1;
			for(uint8_t y = 0; y < fontSize.y; y++){
				if(textSize == Medium){
					if(FONT16x12[*content - 31][x] & mask)
						screen_SetPixel(vector2_Add(position,(Vector2){n * 14 + 16 - y, 12 - x}), color);
800032ba:	e6 08 11 0c 	rsub	r8,r3,12
800032be:	ba f8       	st.b	sp[0x7],r8
800032c0:	c9 cb       	rjmp	800031f8 <gfx_Label+0x90>
	if(textSize == Medium){
		fontSize.x = 20;
		fontSize.y = 16;
	}
		
	for(uint8_t n = 0; n < contentSize; n++, content++){
800032c2:	40 68       	lddsp	r8,sp[0x18]
800032c4:	2f f8       	sub	r8,-1
800032c6:	5c 58       	castu.b	r8
800032c8:	50 68       	stdsp	sp[0x18],r8
800032ca:	40 7a       	lddsp	r10,sp[0x1c]
800032cc:	f0 0a 18 00 	cp.b	r10,r8
800032d0:	fe 9b ff 7c 	brhi	800031c8 <gfx_Label+0x60>
				}
				mask <<= 1;
			}
		}
	}
}
800032d4:	2f 4d       	sub	sp,-48
800032d6:	d8 32       	popm	r0-r7,pc
800032d8:	80 00       	ld.sh	r0,r0[0x0]
800032da:	57 a8       	stdsp	sp[0x1e8],r8
800032dc:	80 00       	ld.sh	r0,r0[0x0]
800032de:	48 30       	lddpc	r0,800032e8 <gfx_cmdLine>
800032e0:	80 00       	ld.sh	r0,r0[0x0]
800032e2:	44 18       	lddsp	r8,sp[0x104]
800032e4:	80 00       	ld.sh	r0,r0[0x0]
800032e6:	54 a0       	stdsp	sp[0x128],r0

800032e8 <gfx_cmdLine>:
	gfx_Label(position,shortcut, 1, Small, (Color){BLACK});
	position.x += 10;
	gfx_Label(position,description, 7, Small, color);
}

void gfx_cmdLine(char *content, uint8_t contentSize, Color color, bool firstDraw){
800032e8:	d4 21       	pushm	r4-r7,lr
800032ea:	20 5d       	sub	sp,20
800032ec:	fa c4 ff d8 	sub	r4,sp,-40
800032f0:	18 96       	mov	r6,r12
800032f2:	16 97       	mov	r7,r11
	static uint32_t counter = 0;
	counter ++;
800032f4:	4a 69       	lddpc	r9,8000338c <gfx_cmdLine+0xa4>
800032f6:	72 08       	ld.w	r8,r9[0x0]
800032f8:	2f f8       	sub	r8,-1
800032fa:	93 08       	st.w	r9[0x0],r8
	
	if(firstDraw){
800032fc:	58 0a       	cp.w	r10,0
800032fe:	c1 30       	breq	80003324 <gfx_cmdLine+0x3c>
		counter = 0;
80003300:	30 05       	mov	r5,0
80003302:	93 05       	st.w	r9[0x0],r5
		gfx_Label((Vector2){20,40}, content, contentSize, Small, color);
80003304:	30 4a       	mov	r10,4
80003306:	4a 3b       	lddpc	r11,80003390 <gfx_cmdLine+0xa8>
80003308:	1a 9c       	mov	r12,sp
8000330a:	f0 1f 00 23 	mcall	80003394 <gfx_cmdLine+0xac>
8000330e:	68 08       	ld.w	r8,r4[0x0]
80003310:	1a d8       	st.w	--sp,r8
80003312:	40 18       	lddsp	r8,sp[0x4]
80003314:	1a d8       	st.w	--sp,r8
80003316:	0a 9a       	mov	r10,r5
80003318:	0e 9b       	mov	r11,r7
8000331a:	0c 9c       	mov	r12,r6
8000331c:	f0 1f 00 1f 	mcall	80003398 <gfx_cmdLine+0xb0>
80003320:	2f ed       	sub	sp,-8
80003322:	c3 38       	rjmp	80003388 <gfx_cmdLine+0xa0>
	}
	else if(counter == 128){
80003324:	e0 48 00 80 	cp.w	r8,128
80003328:	c1 21       	brne	8000334c <gfx_cmdLine+0x64>
		gfx_Label((Vector2){20 + contentSize * 10, 40}, "|", 2, Small, color);
8000332a:	f6 07 10 0a 	mul	r7,r11,10
8000332e:	2e c7       	sub	r7,-20
80003330:	ba 27       	st.h	sp[0x4],r7
80003332:	32 88       	mov	r8,40
80003334:	ba e8       	st.b	sp[0x6],r8
80003336:	68 08       	ld.w	r8,r4[0x0]
80003338:	1a d8       	st.w	--sp,r8
8000333a:	40 28       	lddsp	r8,sp[0x8]
8000333c:	1a d8       	st.w	--sp,r8
8000333e:	30 0a       	mov	r10,0
80003340:	30 2b       	mov	r11,2
80003342:	49 7c       	lddpc	r12,8000339c <gfx_cmdLine+0xb4>
80003344:	f0 1f 00 15 	mcall	80003398 <gfx_cmdLine+0xb0>
80003348:	2f ed       	sub	sp,-8
8000334a:	c1 f8       	rjmp	80003388 <gfx_cmdLine+0xa0>
	}
	else if (counter == 256){
8000334c:	e0 48 01 00 	cp.w	r8,256
80003350:	c1 c1       	brne	80003388 <gfx_cmdLine+0xa0>
		screen_SetPixels(Rect((contentSize) * 10 + 20,40,(contentSize + 2) * 10 + 20,50),(Color){BLACK});
80003352:	30 06       	mov	r6,0
80003354:	50 26       	stdsp	sp[0x8],r6
80003356:	f6 0b 10 0a 	mul	r11,r11,10
8000335a:	f6 c9 ff d8 	sub	r9,r11,-40
8000335e:	2e cb       	sub	r11,-20
80003360:	33 28       	mov	r8,50
80003362:	e2 19 ff fe 	andl	r9,0xfffe,COH
80003366:	32 8a       	mov	r10,40
80003368:	e2 1b ff fe 	andl	r11,0xfffe,COH
8000336c:	fa cc ff f4 	sub	r12,sp,-12
80003370:	f0 1f 00 0c 	mcall	800033a0 <gfx_cmdLine+0xb8>
80003374:	40 28       	lddsp	r8,sp[0x8]
80003376:	1a d8       	st.w	--sp,r8
80003378:	fa e8 00 10 	ld.d	r8,sp[16]
8000337c:	bb 29       	st.d	--sp,r8
8000337e:	f0 1f 00 0a 	mcall	800033a4 <gfx_cmdLine+0xbc>
			counter = 0;
80003382:	48 38       	lddpc	r8,8000338c <gfx_cmdLine+0xa4>
80003384:	91 06       	st.w	r8[0x0],r6
80003386:	2f dd       	sub	sp,-12
	}
80003388:	2f bd       	sub	sp,-20
8000338a:	d8 22       	popm	r4-r7,pc
8000338c:	00 00       	add	r0,r0
8000338e:	01 30       	ld.ub	r0,r0++
80003390:	80 00       	ld.sh	r0,r0[0x0]
80003392:	86 88       	ld.uh	r8,r3[0x0]
80003394:	80 00       	ld.sh	r0,r0[0x0]
80003396:	4e dc       	lddpc	r12,80003548 <gfx_AddLineToTerminal+0x34>
80003398:	80 00       	ld.sh	r0,r0[0x0]
8000339a:	31 68       	mov	r8,22
8000339c:	80 00       	ld.sh	r0,r0[0x0]
8000339e:	86 8c       	ld.uh	r12,r3[0x0]
800033a0:	80 00       	ld.sh	r0,r0[0x0]
800033a2:	42 04       	lddsp	r4,sp[0x80]
800033a4:	80 00       	ld.sh	r0,r0[0x0]
800033a6:	43 78       	lddsp	r8,sp[0xdc]

800033a8 <gfx_DrawTerminalButton>:
		//for animations purpose only
		cpu_delay_ms(100,BOARD_OSC0_HZ);
	}
}

void gfx_DrawTerminalButton(Vector2 position, char* shortcut, char *description, uint8_t size, Color color){
800033a8:	eb cd 40 fc 	pushm	r2-r7,lr
800033ac:	20 3d       	sub	sp,12
800033ae:	fa c4 ff d8 	sub	r4,sp,-40
800033b2:	18 93       	mov	r3,r12
800033b4:	16 92       	mov	r2,r11
800033b6:	09 a7       	ld.ub	r7,r4[0x2]
800033b8:	88 06       	ld.sh	r6,r4[0x0]
	
	screen_SetPixels(Rect(position.x,position.y-2,position.x+8,position.y+10),color);
800033ba:	0e 98       	mov	r8,r7
800033bc:	2f 68       	sub	r8,-10
800033be:	ec c9 ff f8 	sub	r9,r6,-8
800033c2:	0e 9a       	mov	r10,r7
800033c4:	20 2a       	sub	r10,2
800033c6:	5c 58       	castu.b	r8
800033c8:	5c 79       	castu.h	r9
800033ca:	5c 5a       	castu.b	r10
800033cc:	f7 d6 c0 10 	bfextu	r11,r6,0x0,0x10
800033d0:	1a 9c       	mov	r12,sp
800033d2:	f0 1f 00 13 	mcall	8000341c <gfx_DrawTerminalButton+0x74>
800033d6:	68 18       	ld.w	r8,r4[0x4]
800033d8:	1a d8       	st.w	--sp,r8
800033da:	fa e8 00 04 	ld.d	r8,sp[4]
800033de:	bb 29       	st.d	--sp,r8
800033e0:	f0 1f 00 10 	mcall	80003420 <gfx_DrawTerminalButton+0x78>
	gfx_Label(position,shortcut, 1, Small, (Color){BLACK});
800033e4:	30 05       	mov	r5,0
800033e6:	50 55       	stdsp	sp[0x14],r5
800033e8:	a8 a7       	st.b	r4[0x2],r7
800033ea:	a8 06       	st.h	r4[0x0],r6
800033ec:	1a d5       	st.w	--sp,r5
800033ee:	68 08       	ld.w	r8,r4[0x0]
800033f0:	1a d8       	st.w	--sp,r8
800033f2:	0a 9a       	mov	r10,r5
800033f4:	30 1b       	mov	r11,1
800033f6:	06 9c       	mov	r12,r3
800033f8:	f0 1f 00 0b 	mcall	80003424 <gfx_DrawTerminalButton+0x7c>
	position.x += 10;
	gfx_Label(position,description, 7, Small, color);
800033fc:	a8 a7       	st.b	r4[0x2],r7
800033fe:	2f 66       	sub	r6,-10
80003400:	a8 06       	st.h	r4[0x0],r6
80003402:	68 18       	ld.w	r8,r4[0x4]
80003404:	1a d8       	st.w	--sp,r8
80003406:	68 08       	ld.w	r8,r4[0x0]
80003408:	1a d8       	st.w	--sp,r8
8000340a:	0a 9a       	mov	r10,r5
8000340c:	30 7b       	mov	r11,7
8000340e:	04 9c       	mov	r12,r2
80003410:	f0 1f 00 05 	mcall	80003424 <gfx_DrawTerminalButton+0x7c>
80003414:	2f 9d       	sub	sp,-28
}
80003416:	2f dd       	sub	sp,-12
80003418:	e3 cd 80 fc 	ldm	sp++,r2-r7,pc
8000341c:	80 00       	ld.sh	r0,r0[0x0]
8000341e:	42 04       	lddsp	r4,sp[0x80]
80003420:	80 00       	ld.sh	r0,r0[0x0]
80003422:	43 78       	lddsp	r8,sp[0xdc]
80003424:	80 00       	ld.sh	r0,r0[0x0]
80003426:	31 68       	mov	r8,22

80003428 <gfx_AddOptionToTerminal>:
		//for animations purpose only
		cpu_delay_ms(100,BOARD_OSC0_HZ);
	}
}

void gfx_AddOptionToTerminal(char *content, uint8_t contentSize, Color color, bool isSelected, bool firstDraw, bool isDelayed){
80003428:	eb cd 40 f8 	pushm	r3-r7,lr
8000342c:	20 3d       	sub	sp,12
8000342e:	fa c4 ff dc 	sub	r4,sp,-36
80003432:	18 93       	mov	r3,r12
80003434:	16 95       	mov	r5,r11
80003436:	12 97       	mov	r7,r9
80003438:	10 96       	mov	r6,r8
	if(isSelected){
8000343a:	58 0a       	cp.w	r10,0
8000343c:	c1 00       	breq	8000345c <gfx_AddOptionToTerminal+0x34>
		gfx_Label(newLinePosition, ">", 1, Small, color);
8000343e:	68 08       	ld.w	r8,r4[0x0]
80003440:	1a d8       	st.w	--sp,r8
80003442:	20 1d       	sub	sp,4
80003444:	30 4a       	mov	r10,4
80003446:	4a eb       	lddpc	r11,800034fc <gfx_AddOptionToTerminal+0xd4>
80003448:	1a 9c       	mov	r12,sp
8000344a:	f0 1f 00 2e 	mcall	80003500 <gfx_AddOptionToTerminal+0xd8>
8000344e:	30 0a       	mov	r10,0
80003450:	30 1b       	mov	r11,1
80003452:	4a dc       	lddpc	r12,80003504 <gfx_AddOptionToTerminal+0xdc>
80003454:	f0 1f 00 2d 	mcall	80003508 <gfx_AddOptionToTerminal+0xe0>
80003458:	2f ed       	sub	sp,-8
8000345a:	c1 98       	rjmp	8000348c <gfx_AddOptionToTerminal+0x64>
	}
	else{
		screen_SetPixels(Rect(newLinePosition.x,newLinePosition.y, newLinePosition.x + 8, newLinePosition.y + 8), (Color){BLACK});
8000345c:	30 08       	mov	r8,0
8000345e:	50 08       	stdsp	sp[0x0],r8
80003460:	4a 78       	lddpc	r8,800034fc <gfx_AddOptionToTerminal+0xd4>
80003462:	11 aa       	ld.ub	r10,r8[0x2]
80003464:	90 0b       	ld.sh	r11,r8[0x0]
80003466:	f4 c8 ff f8 	sub	r8,r10,-8
8000346a:	f6 c9 ff f8 	sub	r9,r11,-8
8000346e:	5c 58       	castu.b	r8
80003470:	5c 79       	castu.h	r9
80003472:	5c 7b       	castu.h	r11
80003474:	fa cc ff fc 	sub	r12,sp,-4
80003478:	f0 1f 00 25 	mcall	8000350c <gfx_AddOptionToTerminal+0xe4>
8000347c:	40 08       	lddsp	r8,sp[0x0]
8000347e:	1a d8       	st.w	--sp,r8
80003480:	fa e8 00 08 	ld.d	r8,sp[8]
80003484:	bb 29       	st.d	--sp,r8
80003486:	f0 1f 00 23 	mcall	80003510 <gfx_AddOptionToTerminal+0xe8>
8000348a:	2f dd       	sub	sp,-12
	}
	
	if(firstDraw){
8000348c:	58 07       	cp.w	r7,0
8000348e:	c1 60       	breq	800034ba <gfx_AddOptionToTerminal+0x92>
		newLinePosition.x += 20;
80003490:	49 b7       	lddpc	r7,800034fc <gfx_AddOptionToTerminal+0xd4>
80003492:	8e 08       	ld.sh	r8,r7[0x0]
80003494:	2e c8       	sub	r8,-20
80003496:	ae 08       	st.h	r7[0x0],r8
		gfx_Label(newLinePosition, content, contentSize, Small, color);
80003498:	68 08       	ld.w	r8,r4[0x0]
8000349a:	1a d8       	st.w	--sp,r8
8000349c:	20 1d       	sub	sp,4
8000349e:	30 4a       	mov	r10,4
800034a0:	0e 9b       	mov	r11,r7
800034a2:	1a 9c       	mov	r12,sp
800034a4:	f0 1f 00 17 	mcall	80003500 <gfx_AddOptionToTerminal+0xd8>
800034a8:	30 0a       	mov	r10,0
800034aa:	0a 9b       	mov	r11,r5
800034ac:	06 9c       	mov	r12,r3
800034ae:	f0 1f 00 17 	mcall	80003508 <gfx_AddOptionToTerminal+0xe0>
		newLinePosition.x -= 20;
800034b2:	8e 08       	ld.sh	r8,r7[0x0]
800034b4:	21 48       	sub	r8,20
800034b6:	ae 08       	st.h	r7[0x0],r8
800034b8:	2f ed       	sub	sp,-8
	}
	
	newLinePosition.y -= 20;
800034ba:	49 18       	lddpc	r8,800034fc <gfx_AddOptionToTerminal+0xd4>
800034bc:	11 a9       	ld.ub	r9,r8[0x2]
800034be:	21 49       	sub	r9,20
800034c0:	b0 a9       	st.b	r8[0x2],r9
	if(isDelayed){
800034c2:	58 06       	cp.w	r6,0
800034c4:	c1 90       	breq	800034f6 <gfx_AddOptionToTerminal+0xce>
 * \param  delay:   (input) delay in CPU cycles before timeout.
 * \param  cpu_time: (output) internal information used by the timer API.
 */
__always_inline static void cpu_set_timeout(unsigned long delay, t_cpu_time *cpu_time)
{
  cpu_time->delay_start_cycle = Get_system_register(AVR32_COUNT);
800034c6:	e1 b8 00 42 	mfsr	r8,0x108
  cpu_time->delay_end_cycle   = cpu_time->delay_start_cycle + delay;
800034ca:	e0 6a a8 00 	mov	r10,43008
800034ce:	ea 1a 00 61 	orh	r10,0x61
800034d2:	f0 0a 00 0a 	add	r10,r8,r10
 *
 * \return true if timeout occurred, otherwise false.
 */
__always_inline static unsigned long cpu_is_timeout(t_cpu_time *cpu_time)
{
  unsigned long current_cycle_count = Get_system_register(AVR32_COUNT);
800034d6:	e1 b9 00 42 	mfsr	r9,0x108
  // Test if the timeout as already occurred.
  else if (cpu_time->timer_state == CPU_TIMER_STATE_REACHED)
    return true;

  // If the ending cycle count of this timeout is wrapped, ...
  else if (cpu_time->delay_start_cycle > cpu_time->delay_end_cycle)
800034da:	14 38       	cp.w	r8,r10
800034dc:	e0 88 00 08 	brls	800034ec <gfx_AddOptionToTerminal+0xc4>
  {
    if (current_cycle_count < cpu_time->delay_start_cycle && current_cycle_count > cpu_time->delay_end_cycle)
800034e0:	12 38       	cp.w	r8,r9
800034e2:	fe 98 ff fa 	brls	800034d6 <gfx_AddOptionToTerminal+0xae>
800034e6:	12 3a       	cp.w	r10,r9
800034e8:	c0 73       	brcs	800034f6 <gfx_AddOptionToTerminal+0xce>
800034ea:	cf 6b       	rjmp	800034d6 <gfx_AddOptionToTerminal+0xae>
    }
    return false;
  }
  else
  {
    if (current_cycle_count < cpu_time->delay_start_cycle || current_cycle_count > cpu_time->delay_end_cycle)
800034ec:	12 38       	cp.w	r8,r9
800034ee:	e0 8b 00 04 	brhi	800034f6 <gfx_AddOptionToTerminal+0xce>
800034f2:	12 3a       	cp.w	r10,r9
800034f4:	cf 12       	brcc	800034d6 <gfx_AddOptionToTerminal+0xae>
		//for animations purpose only
		cpu_delay_ms(100,BOARD_OSC0_HZ);
	}
}
800034f6:	2f dd       	sub	sp,-12
800034f8:	e3 cd 80 f8 	ldm	sp++,r3-r7,pc
800034fc:	00 00       	add	r0,r0
800034fe:	01 34       	ld.ub	r4,r0++
80003500:	80 00       	ld.sh	r0,r0[0x0]
80003502:	4e dc       	lddpc	r12,800036b4 <gfx_DrawLine+0x130>
80003504:	80 00       	ld.sh	r0,r0[0x0]
80003506:	86 90       	ld.uh	r0,r3[0x2]
80003508:	80 00       	ld.sh	r0,r0[0x0]
8000350a:	31 68       	mov	r8,22
8000350c:	80 00       	ld.sh	r0,r0[0x0]
8000350e:	42 04       	lddsp	r4,sp[0x80]
80003510:	80 00       	ld.sh	r0,r0[0x0]
80003512:	43 78       	lddsp	r8,sp[0xdc]

80003514 <gfx_AddLineToTerminal>:

void gfx_BeginNewTerminal(Vector2 topLeft){
	newLinePosition = topLeft;
}

void gfx_AddLineToTerminal(char *content, uint8_t contentSize, Color color, bool isDelayed){
80003514:	d4 21       	pushm	r4-r7,lr
80003516:	18 95       	mov	r5,r12
80003518:	16 96       	mov	r6,r11
8000351a:	14 94       	mov	r4,r10
	gfx_Label(newLinePosition, content, contentSize, Small, color);
8000351c:	40 58       	lddsp	r8,sp[0x14]
8000351e:	1a d8       	st.w	--sp,r8
80003520:	49 67       	lddpc	r7,80003578 <gfx_AddLineToTerminal+0x64>
80003522:	20 1d       	sub	sp,4
80003524:	30 4a       	mov	r10,4
80003526:	0e 9b       	mov	r11,r7
80003528:	1a 9c       	mov	r12,sp
8000352a:	f0 1f 00 15 	mcall	8000357c <gfx_AddLineToTerminal+0x68>
8000352e:	30 0a       	mov	r10,0
80003530:	0c 9b       	mov	r11,r6
80003532:	0a 9c       	mov	r12,r5
80003534:	f0 1f 00 13 	mcall	80003580 <gfx_AddLineToTerminal+0x6c>
	newLinePosition.y -= 20;
80003538:	0f a8       	ld.ub	r8,r7[0x2]
8000353a:	21 48       	sub	r8,20
8000353c:	ae a8       	st.b	r7[0x2],r8
	if(isDelayed){
8000353e:	2f ed       	sub	sp,-8
80003540:	58 04       	cp.w	r4,0
80003542:	c1 90       	breq	80003574 <gfx_AddLineToTerminal+0x60>
 * \param  delay:   (input) delay in CPU cycles before timeout.
 * \param  cpu_time: (output) internal information used by the timer API.
 */
__always_inline static void cpu_set_timeout(unsigned long delay, t_cpu_time *cpu_time)
{
  cpu_time->delay_start_cycle = Get_system_register(AVR32_COUNT);
80003544:	e1 b8 00 42 	mfsr	r8,0x108
  cpu_time->delay_end_cycle   = cpu_time->delay_start_cycle + delay;
80003548:	e0 6a a8 00 	mov	r10,43008
8000354c:	ea 1a 00 61 	orh	r10,0x61
80003550:	f0 0a 00 0a 	add	r10,r8,r10
 *
 * \return true if timeout occurred, otherwise false.
 */
__always_inline static unsigned long cpu_is_timeout(t_cpu_time *cpu_time)
{
  unsigned long current_cycle_count = Get_system_register(AVR32_COUNT);
80003554:	e1 b9 00 42 	mfsr	r9,0x108
  // Test if the timeout as already occurred.
  else if (cpu_time->timer_state == CPU_TIMER_STATE_REACHED)
    return true;

  // If the ending cycle count of this timeout is wrapped, ...
  else if (cpu_time->delay_start_cycle > cpu_time->delay_end_cycle)
80003558:	14 38       	cp.w	r8,r10
8000355a:	e0 88 00 08 	brls	8000356a <gfx_AddLineToTerminal+0x56>
  {
    if (current_cycle_count < cpu_time->delay_start_cycle && current_cycle_count > cpu_time->delay_end_cycle)
8000355e:	12 38       	cp.w	r8,r9
80003560:	fe 98 ff fa 	brls	80003554 <gfx_AddLineToTerminal+0x40>
80003564:	12 3a       	cp.w	r10,r9
80003566:	c0 73       	brcs	80003574 <gfx_AddLineToTerminal+0x60>
80003568:	cf 6b       	rjmp	80003554 <gfx_AddLineToTerminal+0x40>
    }
    return false;
  }
  else
  {
    if (current_cycle_count < cpu_time->delay_start_cycle || current_cycle_count > cpu_time->delay_end_cycle)
8000356a:	12 38       	cp.w	r8,r9
8000356c:	e0 8b 00 04 	brhi	80003574 <gfx_AddLineToTerminal+0x60>
80003570:	12 3a       	cp.w	r10,r9
80003572:	cf 12       	brcc	80003554 <gfx_AddLineToTerminal+0x40>
80003574:	d8 22       	popm	r4-r7,pc
80003576:	00 00       	add	r0,r0
80003578:	00 00       	add	r0,r0
8000357a:	01 34       	ld.ub	r4,r0++
8000357c:	80 00       	ld.sh	r0,r0[0x0]
8000357e:	4e dc       	lddpc	r12,80003730 <_musicInput+0x10>
80003580:	80 00       	ld.sh	r0,r0[0x0]
80003582:	31 68       	mov	r8,22

80003584 <gfx_DrawLine>:
#include "fonts.h"
#include <string.h>

static Vector2 newLinePosition = {0,0};

void gfx_DrawLine(Vector2 start, Vector2 end, Color color, uint8_t width){
80003584:	d4 31       	pushm	r0-r7,lr
80003586:	20 bd       	sub	sp,44
80003588:	fa c4 ff b0 	sub	r4,sp,-80
8000358c:	50 0c       	stdsp	sp[0x0],r12
8000358e:	88 05       	ld.sh	r5,r4[0x0]
80003590:	09 a8       	ld.ub	r8,r4[0x2]
80003592:	09 e9       	ld.ub	r9,r4[0x6]
	// Compute deltas, ie. "width" and "height" of line, then
	// compute x and y direction, and make deltas positive for later use.
	S16 xinc = 1; // Start off assuming direction is positive, ie. right.
	S16 dx = end.x - start.x;
80003594:	88 20       	ld.sh	r0,r4[0x4]
80003596:	0a 10       	sub	r0,r5
80003598:	5c 80       	casts.h	r0
	if (dx < 0){xinc = -1; dx = -dx; }
8000359a:	30 0a       	mov	r10,0
8000359c:	f4 00 19 00 	cp.h	r0,r10
800035a0:	c0 45       	brlt	800035a8 <gfx_DrawLine+0x24>
800035a2:	30 1a       	mov	r10,1
800035a4:	50 5a       	stdsp	sp[0x14],r10
800035a6:	c0 58       	rjmp	800035b0 <gfx_DrawLine+0x2c>
800035a8:	5c 30       	neg	r0
800035aa:	5c 80       	casts.h	r0
800035ac:	3f fa       	mov	r10,-1
800035ae:	50 5a       	stdsp	sp[0x14],r10

	S16 yinc = 1; // Start off assuming direction is positive, ie. down.
	S16 dy = end.y - start.y;
800035b0:	10 96       	mov	r6,r8
800035b2:	f2 08 01 08 	sub	r8,r9,r8
800035b6:	50 38       	stdsp	sp[0xc],r8
	if (dy < 0){yinc = -1; dy = -dy; }
800035b8:	30 08       	mov	r8,0
800035ba:	40 39       	lddsp	r9,sp[0xc]
800035bc:	f0 09 19 00 	cp.h	r9,r8
800035c0:	c0 45       	brlt	800035c8 <gfx_DrawLine+0x44>
800035c2:	30 18       	mov	r8,1
800035c4:	50 48       	stdsp	sp[0x10],r8
800035c6:	c0 78       	rjmp	800035d4 <gfx_DrawLine+0x50>
800035c8:	40 38       	lddsp	r8,sp[0xc]
800035ca:	5c 38       	neg	r8
800035cc:	5c 88       	casts.h	r8
800035ce:	50 38       	stdsp	sp[0xc],r8
800035d0:	3f fa       	mov	r10,-1
800035d2:	50 4a       	stdsp	sp[0x10],r10
	uint16_t x = start.x;
	uint16_t y = start.y;
	uint16_t i, j, k;

	// A "flat" line (dx>dy) is handled differently from a "steep" line (dx<dy).
	if (dx > dy) {
800035d4:	40 39       	lddsp	r9,sp[0xc]
800035d6:	f2 00 19 00 	cp.h	r0,r9
800035da:	e0 8a 00 53 	brle	80003680 <gfx_DrawLine+0xfc>
		// Walk along X, draw pixel, and step Y when required.
		S16 e = dx >> 1;
		for ( i = 0; i <= dx; ++i) {
800035de:	50 10       	stdsp	sp[0x4],r0
800035e0:	58 00       	cp.w	r0,0
800035e2:	e0 85 00 9b 	brlt	80003718 <gfx_DrawLine+0x194>
	uint16_t i, j, k;

	// A "flat" line (dx>dy) is handled differently from a "steep" line (dx<dy).
	if (dx > dy) {
		// Walk along X, draw pixel, and step Y when required.
		S16 e = dx >> 1;
800035e6:	e0 02 14 01 	asr	r2,r0,0x1
800035ea:	5c 85       	casts.h	r5
800035ec:	30 01       	mov	r1,0
		for ( i = 0; i <= dx; ++i) {
			for (j=width ; j>0 ; j--)
800035ee:	40 08       	lddsp	r8,sp[0x0]
800035f0:	50 28       	stdsp	sp[0x8],r8
				k = (U16) (j / 2);
				if ((j & 0x0001)) { screen_SetPixel((Vector2){x,y+k},color); }
				else { screen_SetPixel((Vector2){x,y-k},color); }
			}
			// Sub-pixel "error" overflowed, so we step Y and reset the "error".
			if (e <= 0){
800035f2:	0c 93       	mov	r3,r6
800035f4:	50 60       	stdsp	sp[0x18],r0
800035f6:	40 50       	lddsp	r0,sp[0x14]
	// A "flat" line (dx>dy) is handled differently from a "steep" line (dx<dy).
	if (dx > dy) {
		// Walk along X, draw pixel, and step Y when required.
		S16 e = dx >> 1;
		for ( i = 0; i <= dx; ++i) {
			for (j=width ; j>0 ; j--)
800035f8:	40 27       	lddsp	r7,sp[0x8]
800035fa:	40 0a       	lddsp	r10,sp[0x0]
800035fc:	58 0a       	cp.w	r10,0
800035fe:	c2 70       	breq	8000364c <gfx_DrawLine+0xc8>
			{
				k = (U16) (j / 2);
				if ((j & 0x0001)) { screen_SetPixel((Vector2){x,y+k},color); }
80003600:	06 96       	mov	r6,r3
		// Walk along X, draw pixel, and step Y when required.
		S16 e = dx >> 1;
		for ( i = 0; i <= dx; ++i) {
			for (j=width ; j>0 ; j--)
			{
				k = (U16) (j / 2);
80003602:	0e 98       	mov	r8,r7
80003604:	5c 78       	castu.h	r8
80003606:	f0 09 16 01 	lsr	r9,r8,0x1
				if ((j & 0x0001)) { screen_SetPixel((Vector2){x,y+k},color); }
8000360a:	f1 d8 c0 01 	bfextu	r8,r8,0x0,0x1
8000360e:	c0 f0       	breq	8000362c <gfx_DrawLine+0xa8>
80003610:	fb 55 00 1c 	st.h	sp[28],r5
80003614:	ec 09 00 09 	add	r9,r6,r9
80003618:	fb 69 00 1e 	st.b	sp[30],r9
8000361c:	68 28       	ld.w	r8,r4[0x8]
8000361e:	1a d8       	st.w	--sp,r8
80003620:	40 88       	lddsp	r8,sp[0x20]
80003622:	1a d8       	st.w	--sp,r8
80003624:	f0 1f 00 3e 	mcall	8000371c <gfx_DrawLine+0x198>
80003628:	2f ed       	sub	sp,-8
8000362a:	c0 e8       	rjmp	80003646 <gfx_DrawLine+0xc2>
				else { screen_SetPixel((Vector2){x,y-k},color); }
8000362c:	fb 55 00 20 	st.h	sp[32],r5
80003630:	ec 09 01 09 	sub	r9,r6,r9
80003634:	fb 69 00 22 	st.b	sp[34],r9
80003638:	68 28       	ld.w	r8,r4[0x8]
8000363a:	1a d8       	st.w	--sp,r8
8000363c:	40 98       	lddsp	r8,sp[0x24]
8000363e:	1a d8       	st.w	--sp,r8
80003640:	f0 1f 00 37 	mcall	8000371c <gfx_DrawLine+0x198>
80003644:	2f ed       	sub	sp,-8
	// A "flat" line (dx>dy) is handled differently from a "steep" line (dx<dy).
	if (dx > dy) {
		// Walk along X, draw pixel, and step Y when required.
		S16 e = dx >> 1;
		for ( i = 0; i <= dx; ++i) {
			for (j=width ; j>0 ; j--)
80003646:	20 17       	sub	r7,1
80003648:	5c 87       	casts.h	r7
8000364a:	cd c1       	brne	80003602 <gfx_DrawLine+0x7e>
				k = (U16) (j / 2);
				if ((j & 0x0001)) { screen_SetPixel((Vector2){x,y+k},color); }
				else { screen_SetPixel((Vector2){x,y-k},color); }
			}
			// Sub-pixel "error" overflowed, so we step Y and reset the "error".
			if (e <= 0){
8000364c:	30 09       	mov	r9,0
8000364e:	f2 02 19 00 	cp.h	r2,r9
80003652:	e0 89 00 08 	brgt	80003662 <gfx_DrawLine+0xde>
				e += dx;
80003656:	40 68       	lddsp	r8,sp[0x18]
80003658:	10 02       	add	r2,r8
8000365a:	5c 82       	casts.h	r2
				y += yinc;
8000365c:	40 4a       	lddsp	r10,sp[0x10]
8000365e:	14 03       	add	r3,r10
80003660:	5c 83       	casts.h	r3

	// A "flat" line (dx>dy) is handled differently from a "steep" line (dx<dy).
	if (dx > dy) {
		// Walk along X, draw pixel, and step Y when required.
		S16 e = dx >> 1;
		for ( i = 0; i <= dx; ++i) {
80003662:	2f f1       	sub	r1,-1
80003664:	5c 81       	casts.h	r1
80003666:	f1 d1 c0 10 	bfextu	r8,r1,0x0,0x10
8000366a:	40 19       	lddsp	r9,sp[0x4]
8000366c:	12 38       	cp.w	r8,r9
8000366e:	e0 89 00 55 	brgt	80003718 <gfx_DrawLine+0x194>
			if (e <= 0){
				e += dx;
				y += yinc;
			}
			// Walk one step along X.
			e -= dy;
80003672:	40 38       	lddsp	r8,sp[0xc]
80003674:	10 12       	sub	r2,r8
80003676:	5c 82       	casts.h	r2
80003678:	e0 05 00 05 	add	r5,r0,r5
8000367c:	5c 85       	casts.h	r5
8000367e:	cb db       	rjmp	800035f8 <gfx_DrawLine+0x74>
			x += xinc;
		}
		} else {
		// Walk along Y, draw pixel, and step X when required.
		S16 e = dy >> 1;
		for (i = 0; i <= dy; ++i) {
80003680:	40 3a       	lddsp	r10,sp[0xc]
80003682:	50 1a       	stdsp	sp[0x4],r10
80003684:	58 0a       	cp.w	r10,0
80003686:	c4 95       	brlt	80003718 <gfx_DrawLine+0x194>
			e -= dy;
			x += xinc;
		}
		} else {
		// Walk along Y, draw pixel, and step X when required.
		S16 e = dy >> 1;
80003688:	14 93       	mov	r3,r10
8000368a:	a1 53       	asr	r3,0x1
8000368c:	5c 85       	casts.h	r5
8000368e:	30 02       	mov	r2,0
		for (i = 0; i <= dy; ++i) {
			for (j=width ; j>0 ; j--)
80003690:	40 09       	lddsp	r9,sp[0x0]
80003692:	50 29       	stdsp	sp[0x8],r9
				k = (U16) (j / 2);
				if ((j & 0x0001)){ screen_SetPixel((Vector2){x+k,y},color); }
				else { screen_SetPixel((Vector2){x-k,y},color); }
			}
			// Sub-pixel "error" overflowed, so we step X and reset the "error".
			if (e <= 0){
80003694:	30 01       	mov	r1,0
		}
		} else {
		// Walk along Y, draw pixel, and step X when required.
		S16 e = dy >> 1;
		for (i = 0; i <= dy; ++i) {
			for (j=width ; j>0 ; j--)
80003696:	40 27       	lddsp	r7,sp[0x8]
80003698:	40 08       	lddsp	r8,sp[0x0]
8000369a:	58 08       	cp.w	r8,0
8000369c:	c2 50       	breq	800036e6 <gfx_DrawLine+0x162>
			{
				k = (U16) (j / 2);
8000369e:	0e 98       	mov	r8,r7
800036a0:	5c 78       	castu.h	r8
800036a2:	f0 09 16 01 	lsr	r9,r8,0x1
				if ((j & 0x0001)){ screen_SetPixel((Vector2){x+k,y},color); }
800036a6:	f1 d8 c0 01 	bfextu	r8,r8,0x0,0x1
800036aa:	c0 e0       	breq	800036c6 <gfx_DrawLine+0x142>
800036ac:	0a 09       	add	r9,r5
800036ae:	fb 59 00 24 	st.h	sp[36],r9
800036b2:	fb 66 00 26 	st.b	sp[38],r6
800036b6:	68 28       	ld.w	r8,r4[0x8]
800036b8:	1a d8       	st.w	--sp,r8
800036ba:	40 a8       	lddsp	r8,sp[0x28]
800036bc:	1a d8       	st.w	--sp,r8
800036be:	f0 1f 00 18 	mcall	8000371c <gfx_DrawLine+0x198>
800036c2:	2f ed       	sub	sp,-8
800036c4:	c0 e8       	rjmp	800036e0 <gfx_DrawLine+0x15c>
				else { screen_SetPixel((Vector2){x-k,y},color); }
800036c6:	ea 09 01 09 	sub	r9,r5,r9
800036ca:	fb 59 00 28 	st.h	sp[40],r9
800036ce:	fb 66 00 2a 	st.b	sp[42],r6
800036d2:	68 28       	ld.w	r8,r4[0x8]
800036d4:	1a d8       	st.w	--sp,r8
800036d6:	40 b8       	lddsp	r8,sp[0x2c]
800036d8:	1a d8       	st.w	--sp,r8
800036da:	f0 1f 00 11 	mcall	8000371c <gfx_DrawLine+0x198>
800036de:	2f ed       	sub	sp,-8
		}
		} else {
		// Walk along Y, draw pixel, and step X when required.
		S16 e = dy >> 1;
		for (i = 0; i <= dy; ++i) {
			for (j=width ; j>0 ; j--)
800036e0:	20 17       	sub	r7,1
800036e2:	5c 87       	casts.h	r7
800036e4:	cd d1       	brne	8000369e <gfx_DrawLine+0x11a>
				k = (U16) (j / 2);
				if ((j & 0x0001)){ screen_SetPixel((Vector2){x+k,y},color); }
				else { screen_SetPixel((Vector2){x-k,y},color); }
			}
			// Sub-pixel "error" overflowed, so we step X and reset the "error".
			if (e <= 0){
800036e6:	e2 03 19 00 	cp.h	r3,r1
800036ea:	e0 89 00 08 	brgt	800036fa <gfx_DrawLine+0x176>
				e += dy;
800036ee:	40 3a       	lddsp	r10,sp[0xc]
800036f0:	14 03       	add	r3,r10
800036f2:	5c 83       	casts.h	r3
				x += xinc;
800036f4:	40 59       	lddsp	r9,sp[0x14]
800036f6:	12 05       	add	r5,r9
800036f8:	5c 85       	casts.h	r5
			x += xinc;
		}
		} else {
		// Walk along Y, draw pixel, and step X when required.
		S16 e = dy >> 1;
		for (i = 0; i <= dy; ++i) {
800036fa:	2f f2       	sub	r2,-1
800036fc:	5c 82       	casts.h	r2
800036fe:	f1 d2 c0 10 	bfextu	r8,r2,0x0,0x10
80003702:	40 1a       	lddsp	r10,sp[0x4]
80003704:	14 38       	cp.w	r8,r10
80003706:	e0 89 00 09 	brgt	80003718 <gfx_DrawLine+0x194>
			if (e <= 0){
				e += dy;
				x += xinc;
			}
			// Walk one step along Y.
			e -= dx;
8000370a:	00 13       	sub	r3,r0
8000370c:	5c 83       	casts.h	r3
8000370e:	40 49       	lddsp	r9,sp[0x10]
80003710:	f2 06 00 06 	add	r6,r9,r6
80003714:	5c 86       	casts.h	r6
80003716:	cc 0b       	rjmp	80003696 <gfx_DrawLine+0x112>
			y += yinc;
		}
	}
}
80003718:	2f 5d       	sub	sp,-44
8000371a:	d8 32       	popm	r0-r7,pc
8000371c:	80 00       	ld.sh	r0,r0[0x0]
8000371e:	44 18       	lddsp	r8,sp[0x104]

80003720 <_musicInput>:
 *
 * Created 20.11.17 QVT
 * Last modified 20.11.17 QVT
 */
void _musicInput(){
	if(switchState == 1){
80003720:	48 98       	lddpc	r8,80003744 <_musicInput+0x24>
80003722:	11 89       	ld.ub	r9,r8[0x0]
80003724:	30 18       	mov	r8,1
80003726:	f0 09 18 00 	cp.b	r9,r8
8000372a:	5e 1c       	retne	r12
		currentMenuId = MAIN;
8000372c:	30 08       	mov	r8,0
8000372e:	48 79       	lddpc	r9,80003748 <_musicInput+0x28>
80003730:	b2 88       	st.b	r9[0x0],r8
		menuChanged = true;
80003732:	30 19       	mov	r9,1
80003734:	48 6a       	lddpc	r10,8000374c <_musicInput+0x2c>
80003736:	b4 89       	st.b	r10[0x0],r9
		commandChanged = true;
80003738:	48 6a       	lddpc	r10,80003750 <_musicInput+0x30>
8000373a:	b4 89       	st.b	r10[0x0],r9
		switchState = 0;
8000373c:	48 29       	lddpc	r9,80003744 <_musicInput+0x24>
8000373e:	b2 88       	st.b	r9[0x0],r8
80003740:	5e fc       	retal	r12
80003742:	00 00       	add	r0,r0
80003744:	00 00       	add	r0,r0
80003746:	01 3a       	ld.ub	r10,r0++
80003748:	00 00       	add	r0,r0
8000374a:	01 3b       	ld.ub	r11,r0++
8000374c:	00 00       	add	r0,r0
8000374e:	01 38       	ld.ub	r8,r0++
80003750:	00 00       	add	r0,r0
80003752:	00 28       	rsub	r8,r0

80003754 <_settingsInput>:
 *
 * Created 20.11.17 QVT
 * Last modified 20.11.17 QVT
 */
void _settingsInput(){
	if(switchState == 1){
80003754:	48 98       	lddpc	r8,80003778 <_settingsInput+0x24>
80003756:	11 89       	ld.ub	r9,r8[0x0]
80003758:	30 18       	mov	r8,1
8000375a:	f0 09 18 00 	cp.b	r9,r8
8000375e:	5e 1c       	retne	r12
		currentMenuId = MAIN;
80003760:	30 08       	mov	r8,0
80003762:	48 79       	lddpc	r9,8000377c <_settingsInput+0x28>
80003764:	b2 88       	st.b	r9[0x0],r8
		menuChanged = true;
80003766:	30 19       	mov	r9,1
80003768:	48 6a       	lddpc	r10,80003780 <_settingsInput+0x2c>
8000376a:	b4 89       	st.b	r10[0x0],r9
		commandChanged = true;
8000376c:	48 6a       	lddpc	r10,80003784 <_settingsInput+0x30>
8000376e:	b4 89       	st.b	r10[0x0],r9
		switchState = 0;
80003770:	48 29       	lddpc	r9,80003778 <_settingsInput+0x24>
80003772:	b2 88       	st.b	r9[0x0],r8
80003774:	5e fc       	retal	r12
80003776:	00 00       	add	r0,r0
80003778:	00 00       	add	r0,r0
8000377a:	01 3a       	ld.ub	r10,r0++
8000377c:	00 00       	add	r0,r0
8000377e:	01 3b       	ld.ub	r11,r0++
80003780:	00 00       	add	r0,r0
80003782:	01 38       	ld.ub	r8,r0++
80003784:	00 00       	add	r0,r0
80003786:	00 28       	rsub	r8,r0

80003788 <_alarmInput>:
 *
 * Created 20.11.17 QVT
 * Last modified 20.11.17 QVT
 */
void _alarmInput(){
	if(switchState == 1){
80003788:	49 d8       	lddpc	r8,800037fc <_alarmInput+0x74>
8000378a:	11 88       	ld.ub	r8,r8[0x0]
8000378c:	30 19       	mov	r9,1
8000378e:	f2 08 18 00 	cp.b	r8,r9
80003792:	c0 c1       	brne	800037aa <_alarmInput+0x22>
		currentMenuId = MAIN;
80003794:	30 08       	mov	r8,0
80003796:	49 b9       	lddpc	r9,80003800 <_alarmInput+0x78>
80003798:	b2 88       	st.b	r9[0x0],r8
		menuChanged = true;
8000379a:	30 19       	mov	r9,1
8000379c:	49 aa       	lddpc	r10,80003804 <_alarmInput+0x7c>
8000379e:	b4 89       	st.b	r10[0x0],r9
		commandChanged = true;
800037a0:	49 aa       	lddpc	r10,80003808 <_alarmInput+0x80>
800037a2:	b4 89       	st.b	r10[0x0],r9
		switchState = 0;
800037a4:	49 69       	lddpc	r9,800037fc <_alarmInput+0x74>
800037a6:	b2 88       	st.b	r9[0x0],r8
800037a8:	5e fc       	retal	r12
	}
	else if(switchState == 2){
800037aa:	30 29       	mov	r9,2
800037ac:	f2 08 18 00 	cp.b	r8,r9
800037b0:	c1 11       	brne	800037d2 <_alarmInput+0x4a>
		(selectedOption &(1<<0))?(selectedOption = (1<<3)):(selectedOption>>=1);
800037b2:	49 78       	lddpc	r8,8000380c <_alarmInput+0x84>
800037b4:	11 88       	ld.ub	r8,r8[0x0]
800037b6:	f3 d8 c0 01 	bfextu	r9,r8,0x0,0x1
800037ba:	c0 50       	breq	800037c4 <_alarmInput+0x3c>
800037bc:	30 89       	mov	r9,8
800037be:	49 48       	lddpc	r8,8000380c <_alarmInput+0x84>
800037c0:	b0 89       	st.b	r8[0x0],r9
800037c2:	c0 48       	rjmp	800037ca <_alarmInput+0x42>
800037c4:	a1 98       	lsr	r8,0x1
800037c6:	49 29       	lddpc	r9,8000380c <_alarmInput+0x84>
800037c8:	b2 88       	st.b	r9[0x0],r8
		switchState = 0;
800037ca:	30 09       	mov	r9,0
800037cc:	48 c8       	lddpc	r8,800037fc <_alarmInput+0x74>
800037ce:	b0 89       	st.b	r8[0x0],r9
800037d0:	5e fc       	retal	r12
	}
	else if (switchState == 3){
800037d2:	30 39       	mov	r9,3
800037d4:	f2 08 18 00 	cp.b	r8,r9
800037d8:	5e 1c       	retne	r12
		(selectedOption &(1<<3))?(selectedOption = (1<<0)):(selectedOption<<=1);
800037da:	48 d8       	lddpc	r8,8000380c <_alarmInput+0x84>
800037dc:	11 88       	ld.ub	r8,r8[0x0]
800037de:	10 99       	mov	r9,r8
800037e0:	e2 19 00 08 	andl	r9,0x8,COH
800037e4:	c0 50       	breq	800037ee <_alarmInput+0x66>
800037e6:	30 19       	mov	r9,1
800037e8:	48 98       	lddpc	r8,8000380c <_alarmInput+0x84>
800037ea:	b0 89       	st.b	r8[0x0],r9
800037ec:	c0 48       	rjmp	800037f4 <_alarmInput+0x6c>
800037ee:	a1 78       	lsl	r8,0x1
800037f0:	48 79       	lddpc	r9,8000380c <_alarmInput+0x84>
800037f2:	b2 88       	st.b	r9[0x0],r8
		switchState = 0;
800037f4:	30 09       	mov	r9,0
800037f6:	48 28       	lddpc	r8,800037fc <_alarmInput+0x74>
800037f8:	b0 89       	st.b	r8[0x0],r9
800037fa:	5e fc       	retal	r12
800037fc:	00 00       	add	r0,r0
800037fe:	01 3a       	ld.ub	r10,r0++
80003800:	00 00       	add	r0,r0
80003802:	01 3b       	ld.ub	r11,r0++
80003804:	00 00       	add	r0,r0
80003806:	01 38       	ld.ub	r8,r0++
80003808:	00 00       	add	r0,r0
8000380a:	00 28       	rsub	r8,r0
8000380c:	00 00       	add	r0,r0
8000380e:	00 04       	add	r4,r0

80003810 <switchISR>:
	}
}

__attribute__((__interrupt__)) void switchISR(void){
80003810:	d4 01       	pushm	lr
	if 	(gpio_get_pin_interrupt_flag(PIN_SWITCH0))	{
80003812:	33 8c       	mov	r12,56
80003814:	f0 1f 00 15 	mcall	80003868 <switchISR+0x58>
80003818:	c0 50       	breq	80003822 <switchISR+0x12>
		switchState = 1;
8000381a:	30 19       	mov	r9,1
8000381c:	49 48       	lddpc	r8,8000386c <switchISR+0x5c>
8000381e:	b0 89       	st.b	r8[0x0],r9
80003820:	c1 88       	rjmp	80003850 <switchISR+0x40>
	}
	else if (gpio_get_pin_interrupt_flag(PIN_SWITCH1)){
80003822:	33 9c       	mov	r12,57
80003824:	f0 1f 00 11 	mcall	80003868 <switchISR+0x58>
80003828:	c0 50       	breq	80003832 <switchISR+0x22>
		switchState = 2;
8000382a:	30 29       	mov	r9,2
8000382c:	49 08       	lddpc	r8,8000386c <switchISR+0x5c>
8000382e:	b0 89       	st.b	r8[0x0],r9
80003830:	c1 08       	rjmp	80003850 <switchISR+0x40>
	}
	else if (gpio_get_pin_interrupt_flag(PIN_SWITCH2)){
80003832:	33 ac       	mov	r12,58
80003834:	f0 1f 00 0d 	mcall	80003868 <switchISR+0x58>
80003838:	c0 50       	breq	80003842 <switchISR+0x32>
		switchState = 3;
8000383a:	30 39       	mov	r9,3
8000383c:	48 c8       	lddpc	r8,8000386c <switchISR+0x5c>
8000383e:	b0 89       	st.b	r8[0x0],r9
80003840:	c0 88       	rjmp	80003850 <switchISR+0x40>
	}
	else if (gpio_get_pin_interrupt_flag(PIN_SWITCH3)){
80003842:	33 bc       	mov	r12,59
80003844:	f0 1f 00 09 	mcall	80003868 <switchISR+0x58>
80003848:	c0 40       	breq	80003850 <switchISR+0x40>
		switchState = 4;
8000384a:	30 49       	mov	r9,4
8000384c:	48 88       	lddpc	r8,8000386c <switchISR+0x5c>
8000384e:	b0 89       	st.b	r8[0x0],r9
	}
	AVR32_GPIO.port[1].ifrc = 0xFF000000;
80003850:	fc 19 ff 00 	movh	r9,0xff00
80003854:	fe 78 10 00 	mov	r8,-61440
80003858:	f1 49 01 d8 	st.w	r8[472],r9
	needRepaint = true;
8000385c:	30 19       	mov	r9,1
8000385e:	48 58       	lddpc	r8,80003870 <switchISR+0x60>
80003860:	b0 89       	st.b	r8[0x0],r9
80003862:	d4 02       	popm	lr
80003864:	d6 03       	rete
80003866:	00 00       	add	r0,r0
80003868:	80 00       	ld.sh	r0,r0[0x0]
8000386a:	29 7a       	sub	r10,-105
8000386c:	00 00       	add	r0,r0
8000386e:	01 3a       	ld.ub	r10,r0++
80003870:	00 00       	add	r0,r0
80003872:	01 3c       	ld.ub	r12,r0++

80003874 <_mainInput>:
 * Handle input for the main menu
 *
 * Created 20.11.17 QVT
 * Last modified 20.11.17 QVT
 */
void _mainInput(){
80003874:	eb cd 40 80 	pushm	r7,lr
80003878:	20 6d       	sub	sp,24
	if(switchState == 4){
8000387a:	4b 88       	lddpc	r8,80003958 <_mainInput+0xe4>
8000387c:	11 88       	ld.ub	r8,r8[0x0]
8000387e:	30 49       	mov	r9,4
80003880:	f2 08 18 00 	cp.b	r8,r9
80003884:	c1 b1       	brne	800038ba <_mainInput+0x46>
		if(selectedCommand == 0)
80003886:	4b 68       	lddpc	r8,8000395c <_mainInput+0xe8>
80003888:	11 88       	ld.ub	r8,r8[0x0]
8000388a:	58 08       	cp.w	r8,0
8000388c:	c0 51       	brne	80003896 <_mainInput+0x22>
			currentMenuId = MUSIC;
8000388e:	30 19       	mov	r9,1
80003890:	4b 48       	lddpc	r8,80003960 <_mainInput+0xec>
80003892:	b0 89       	st.b	r8[0x0],r9
80003894:	c0 c8       	rjmp	800038ac <_mainInput+0x38>
		else if(selectedCommand == 1)
80003896:	30 19       	mov	r9,1
80003898:	f2 08 18 00 	cp.b	r8,r9
8000389c:	c0 51       	brne	800038a6 <_mainInput+0x32>
			currentMenuId = SETTINGS;
8000389e:	30 29       	mov	r9,2
800038a0:	4b 08       	lddpc	r8,80003960 <_mainInput+0xec>
800038a2:	b0 89       	st.b	r8[0x0],r9
800038a4:	c0 48       	rjmp	800038ac <_mainInput+0x38>
		else
			currentMenuId = ALARM;
800038a6:	30 39       	mov	r9,3
800038a8:	4a e8       	lddpc	r8,80003960 <_mainInput+0xec>
800038aa:	b0 89       	st.b	r8[0x0],r9
			
		menuChanged = true;
800038ac:	30 19       	mov	r9,1
800038ae:	4a e8       	lddpc	r8,80003964 <_mainInput+0xf0>
800038b0:	b0 89       	st.b	r8[0x0],r9
		switchState = 0;
800038b2:	30 09       	mov	r9,0
800038b4:	4a 98       	lddpc	r8,80003958 <_mainInput+0xe4>
800038b6:	b0 89       	st.b	r8[0x0],r9
800038b8:	c4 d8       	rjmp	80003952 <_mainInput+0xde>
	}
	else if(switchState == 2){
800038ba:	30 29       	mov	r9,2
800038bc:	f2 08 18 00 	cp.b	r8,r9
800038c0:	c2 41       	brne	80003908 <_mainInput+0x94>
		selectedCommand = (selectedCommand == NBR_OF_MENU - 1)?(0):(selectedCommand+1);
800038c2:	4a 78       	lddpc	r8,8000395c <_mainInput+0xe8>
800038c4:	11 88       	ld.ub	r8,r8[0x0]
800038c6:	f2 08 18 00 	cp.b	r8,r9
800038ca:	c0 31       	brne	800038d0 <_mainInput+0x5c>
800038cc:	30 08       	mov	r8,0
800038ce:	c0 28       	rjmp	800038d2 <_mainInput+0x5e>
800038d0:	2f f8       	sub	r8,-1
800038d2:	4a 39       	lddpc	r9,8000395c <_mainInput+0xe8>
800038d4:	b2 88       	st.b	r9[0x0],r8
		commandChanged = true;
800038d6:	30 19       	mov	r9,1
800038d8:	4a 48       	lddpc	r8,80003968 <_mainInput+0xf4>
800038da:	b0 89       	st.b	r8[0x0],r9
		screen_SetPixels(Rect(0,40,320,50),(Color){BLACK});
800038dc:	30 07       	mov	r7,0
800038de:	50 07       	stdsp	sp[0x0],r7
800038e0:	33 28       	mov	r8,50
800038e2:	e0 69 01 40 	mov	r9,320
800038e6:	32 8a       	mov	r10,40
800038e8:	0e 9b       	mov	r11,r7
800038ea:	fa cc ff fc 	sub	r12,sp,-4
800038ee:	f0 1f 00 20 	mcall	8000396c <_mainInput+0xf8>
800038f2:	40 08       	lddsp	r8,sp[0x0]
800038f4:	1a d8       	st.w	--sp,r8
800038f6:	fa e8 00 08 	ld.d	r8,sp[8]
800038fa:	bb 29       	st.d	--sp,r8
800038fc:	f0 1f 00 1d 	mcall	80003970 <_mainInput+0xfc>
		switchState = 0;
80003900:	49 68       	lddpc	r8,80003958 <_mainInput+0xe4>
80003902:	b0 87       	st.b	r8[0x0],r7
80003904:	2f dd       	sub	sp,-12
80003906:	c2 68       	rjmp	80003952 <_mainInput+0xde>
	}
	else if(switchState == 3){
80003908:	30 39       	mov	r9,3
8000390a:	f2 08 18 00 	cp.b	r8,r9
8000390e:	c2 21       	brne	80003952 <_mainInput+0xde>
		selectedCommand = (selectedCommand == 0)?(NBR_OF_MENU - 1):(selectedCommand-1);
80003910:	49 38       	lddpc	r8,8000395c <_mainInput+0xe8>
80003912:	11 88       	ld.ub	r8,r8[0x0]
80003914:	58 08       	cp.w	r8,0
80003916:	c0 31       	brne	8000391c <_mainInput+0xa8>
80003918:	30 28       	mov	r8,2
8000391a:	c0 28       	rjmp	8000391e <_mainInput+0xaa>
8000391c:	20 18       	sub	r8,1
8000391e:	49 09       	lddpc	r9,8000395c <_mainInput+0xe8>
80003920:	b2 88       	st.b	r9[0x0],r8
		commandChanged = true;
80003922:	30 19       	mov	r9,1
80003924:	49 18       	lddpc	r8,80003968 <_mainInput+0xf4>
80003926:	b0 89       	st.b	r8[0x0],r9
		screen_SetPixels(Rect(0,40,320,50),(Color){BLACK});
80003928:	30 07       	mov	r7,0
8000392a:	50 37       	stdsp	sp[0xc],r7
8000392c:	33 28       	mov	r8,50
8000392e:	e0 69 01 40 	mov	r9,320
80003932:	32 8a       	mov	r10,40
80003934:	0e 9b       	mov	r11,r7
80003936:	fa cc ff f0 	sub	r12,sp,-16
8000393a:	f0 1f 00 0d 	mcall	8000396c <_mainInput+0xf8>
8000393e:	40 38       	lddsp	r8,sp[0xc]
80003940:	1a d8       	st.w	--sp,r8
80003942:	fa e8 00 14 	ld.d	r8,sp[20]
80003946:	bb 29       	st.d	--sp,r8
80003948:	f0 1f 00 0a 	mcall	80003970 <_mainInput+0xfc>
		switchState = 0;
8000394c:	48 38       	lddpc	r8,80003958 <_mainInput+0xe4>
8000394e:	b0 87       	st.b	r8[0x0],r7
80003950:	2f dd       	sub	sp,-12
	}
}
80003952:	2f ad       	sub	sp,-24
80003954:	e3 cd 80 80 	ldm	sp++,r7,pc
80003958:	00 00       	add	r0,r0
8000395a:	01 3a       	ld.ub	r10,r0++
8000395c:	00 00       	add	r0,r0
8000395e:	01 39       	ld.ub	r9,r0++
80003960:	00 00       	add	r0,r0
80003962:	01 3b       	ld.ub	r11,r0++
80003964:	00 00       	add	r0,r0
80003966:	01 38       	ld.ub	r8,r0++
80003968:	00 00       	add	r0,r0
8000396a:	00 28       	rsub	r8,r0
8000396c:	80 00       	ld.sh	r0,r0[0x0]
8000396e:	42 04       	lddsp	r4,sp[0x80]
80003970:	80 00       	ld.sh	r0,r0[0x0]
80003972:	43 78       	lddsp	r8,sp[0xdc]

80003974 <_drawButton>:
	gfx_DrawLine((Vector2){99,99}, (Vector2){150, 186}, (Color){WHITE}, 15);
	char text[] = "LogoRetro.pixel";
	gfx_Label((Vector2){40,40}, text, sizeof(text)/sizeof(*text), Small, (Color){WHITE});
}

void _drawButton(void){
80003974:	eb cd 40 c0 	pushm	r6-r7,lr
80003978:	20 4d       	sub	sp,16
	gfx_DrawTerminalButton((Vector2){4,4},"<","Back",4,textColor);
8000397a:	30 47       	mov	r7,4
8000397c:	0e 9a       	mov	r10,r7
8000397e:	4a 8b       	lddpc	r11,80003a1c <_drawButton+0xa8>
80003980:	1a 9c       	mov	r12,sp
80003982:	f0 1f 00 28 	mcall	80003a20 <_drawButton+0xac>
80003986:	4a 86       	lddpc	r6,80003a24 <_drawButton+0xb0>
80003988:	20 1d       	sub	sp,4
8000398a:	0e 9a       	mov	r10,r7
8000398c:	0c 9b       	mov	r11,r6
8000398e:	1a 9c       	mov	r12,sp
80003990:	f0 1f 00 24 	mcall	80003a20 <_drawButton+0xac>
80003994:	40 18       	lddsp	r8,sp[0x4]
80003996:	1a d8       	st.w	--sp,r8
80003998:	0e 9a       	mov	r10,r7
8000399a:	4a 4b       	lddpc	r11,80003a28 <_drawButton+0xb4>
8000399c:	4a 4c       	lddpc	r12,80003a2c <_drawButton+0xb8>
8000399e:	f0 1f 00 25 	mcall	80003a30 <_drawButton+0xbc>
	gfx_DrawTerminalButton((Vector2){82,4},"^","Up",4,textColor);
800039a2:	0e 9a       	mov	r10,r7
800039a4:	4a 4b       	lddpc	r11,80003a34 <_drawButton+0xc0>
800039a6:	fa cc ff f4 	sub	r12,sp,-12
800039aa:	f0 1f 00 1e 	mcall	80003a20 <_drawButton+0xac>
800039ae:	20 1d       	sub	sp,4
800039b0:	0e 9a       	mov	r10,r7
800039b2:	0c 9b       	mov	r11,r6
800039b4:	1a 9c       	mov	r12,sp
800039b6:	f0 1f 00 1b 	mcall	80003a20 <_drawButton+0xac>
800039ba:	40 48       	lddsp	r8,sp[0x10]
800039bc:	1a d8       	st.w	--sp,r8
800039be:	0e 9a       	mov	r10,r7
800039c0:	49 eb       	lddpc	r11,80003a38 <_drawButton+0xc4>
800039c2:	49 fc       	lddpc	r12,80003a3c <_drawButton+0xc8>
800039c4:	f0 1f 00 1b 	mcall	80003a30 <_drawButton+0xbc>
	gfx_DrawTerminalButton((Vector2){160,4},"v","Down",4,textColor);
800039c8:	0e 9a       	mov	r10,r7
800039ca:	49 eb       	lddpc	r11,80003a40 <_drawButton+0xcc>
800039cc:	fa cc ff e8 	sub	r12,sp,-24
800039d0:	f0 1f 00 14 	mcall	80003a20 <_drawButton+0xac>
800039d4:	20 1d       	sub	sp,4
800039d6:	0e 9a       	mov	r10,r7
800039d8:	0c 9b       	mov	r11,r6
800039da:	1a 9c       	mov	r12,sp
800039dc:	f0 1f 00 11 	mcall	80003a20 <_drawButton+0xac>
800039e0:	40 78       	lddsp	r8,sp[0x1c]
800039e2:	1a d8       	st.w	--sp,r8
800039e4:	0e 9a       	mov	r10,r7
800039e6:	49 8b       	lddpc	r11,80003a44 <_drawButton+0xd0>
800039e8:	49 8c       	lddpc	r12,80003a48 <_drawButton+0xd4>
800039ea:	f0 1f 00 12 	mcall	80003a30 <_drawButton+0xbc>
	gfx_DrawTerminalButton((Vector2){238,4},">","Ok",4,textColor);
800039ee:	0e 9a       	mov	r10,r7
800039f0:	49 7b       	lddpc	r11,80003a4c <_drawButton+0xd8>
800039f2:	fa cc ff dc 	sub	r12,sp,-36
800039f6:	f0 1f 00 0b 	mcall	80003a20 <_drawButton+0xac>
800039fa:	20 1d       	sub	sp,4
800039fc:	0e 9a       	mov	r10,r7
800039fe:	0c 9b       	mov	r11,r6
80003a00:	1a 9c       	mov	r12,sp
80003a02:	f0 1f 00 08 	mcall	80003a20 <_drawButton+0xac>
80003a06:	40 a8       	lddsp	r8,sp[0x28]
80003a08:	1a d8       	st.w	--sp,r8
80003a0a:	0e 9a       	mov	r10,r7
80003a0c:	49 1b       	lddpc	r11,80003a50 <_drawButton+0xdc>
80003a0e:	49 2c       	lddpc	r12,80003a54 <_drawButton+0xe0>
80003a10:	f0 1f 00 08 	mcall	80003a30 <_drawButton+0xbc>
80003a14:	2f 8d       	sub	sp,-32
}
80003a16:	2f cd       	sub	sp,-16
80003a18:	e3 cd 80 c0 	ldm	sp++,r6-r7,pc
80003a1c:	80 00       	ld.sh	r0,r0[0x0]
80003a1e:	88 44       	ld.sh	r4,r4[0x8]
80003a20:	80 00       	ld.sh	r0,r0[0x0]
80003a22:	4e dc       	lddpc	r12,80003bd4 <_settingsMenu+0x2c>
80003a24:	00 00       	add	r0,r0
80003a26:	00 2a       	rsub	r10,r0
80003a28:	80 00       	ld.sh	r0,r0[0x0]
80003a2a:	86 c4       	ld.uh	r4,r3[0x8]
80003a2c:	80 00       	ld.sh	r0,r0[0x0]
80003a2e:	86 cc       	ld.uh	r12,r3[0x8]
80003a30:	80 00       	ld.sh	r0,r0[0x0]
80003a32:	33 a8       	mov	r8,58
80003a34:	80 00       	ld.sh	r0,r0[0x0]
80003a36:	88 54       	ld.sh	r4,r4[0xa]
80003a38:	80 00       	ld.sh	r0,r0[0x0]
80003a3a:	86 d0       	ld.uh	r0,r3[0xa]
80003a3c:	80 00       	ld.sh	r0,r0[0x0]
80003a3e:	86 d4       	ld.uh	r4,r3[0xa]
80003a40:	80 00       	ld.sh	r0,r0[0x0]
80003a42:	88 30       	ld.sh	r0,r4[0x6]
80003a44:	80 00       	ld.sh	r0,r0[0x0]
80003a46:	86 d8       	ld.uh	r8,r3[0xa]
80003a48:	80 00       	ld.sh	r0,r0[0x0]
80003a4a:	86 e0       	ld.uh	r0,r3[0xc]
80003a4c:	80 00       	ld.sh	r0,r0[0x0]
80003a4e:	86 aa       	ld.uh	r10,r3[0x4]
80003a50:	80 00       	ld.sh	r0,r0[0x0]
80003a52:	86 e4       	ld.uh	r4,r3[0xc]
80003a54:	80 00       	ld.sh	r0,r0[0x0]
80003a56:	86 90       	ld.uh	r0,r3[0x2]

80003a58 <_alarmMenu>:
		gfx_AddLineToTerminal("> Heure : 10h 30m", 18, textColor, firstDraw);
		gfx_AddLineToTerminal("> Date : 09h 35m", 17, textColor, firstDraw);
	}
}

void _alarmMenu(bool firstDraw){
80003a58:	eb cd 40 f8 	pushm	r3-r7,lr
80003a5c:	20 5d       	sub	sp,20
80003a5e:	18 97       	mov	r7,r12
	if(firstDraw){
80003a60:	58 0c       	cp.w	r12,0
80003a62:	c2 f0       	breq	80003ac0 <_alarmMenu+0x68>
		screen_SetPixels(Rect(0,0,320,240),(Color){BLACK});
80003a64:	30 06       	mov	r6,0
80003a66:	50 06       	stdsp	sp[0x0],r6
80003a68:	e0 68 00 f0 	mov	r8,240
80003a6c:	e0 69 01 40 	mov	r9,320
80003a70:	0c 9a       	mov	r10,r6
80003a72:	0c 9b       	mov	r11,r6
80003a74:	fa cc ff fc 	sub	r12,sp,-4
80003a78:	f0 1f 00 3b 	mcall	80003b64 <_alarmMenu+0x10c>
80003a7c:	40 08       	lddsp	r8,sp[0x0]
80003a7e:	1a d8       	st.w	--sp,r8
80003a80:	fa e8 00 08 	ld.d	r8,sp[8]
80003a84:	bb 29       	st.d	--sp,r8
80003a86:	f0 1f 00 39 	mcall	80003b68 <_alarmMenu+0x110>
		
		_drawButton();
80003a8a:	f0 1f 00 39 	mcall	80003b6c <_alarmMenu+0x114>
		menuChanged = false;
80003a8e:	4b 98       	lddpc	r8,80003b70 <_alarmMenu+0x118>
80003a90:	b0 86       	st.b	r8[0x0],r6
		
		gfx_BeginNewTerminal((Vector2){20,220});
80003a92:	30 46       	mov	r6,4
80003a94:	0c 9a       	mov	r10,r6
80003a96:	4b 8b       	lddpc	r11,80003b74 <_alarmMenu+0x11c>
80003a98:	fa cc ff e8 	sub	r12,sp,-24
80003a9c:	f0 1f 00 37 	mcall	80003b78 <_alarmMenu+0x120>
80003aa0:	40 68       	lddsp	r8,sp[0x18]
80003aa2:	1a d8       	st.w	--sp,r8
80003aa4:	f0 1f 00 36 	mcall	80003b7c <_alarmMenu+0x124>
		gfx_AddLineToTerminal("alarme -info", 12, textColor, firstDraw);
80003aa8:	20 1d       	sub	sp,4
80003aaa:	0c 9a       	mov	r10,r6
80003aac:	4b 5b       	lddpc	r11,80003b80 <_alarmMenu+0x128>
80003aae:	1a 9c       	mov	r12,sp
80003ab0:	f0 1f 00 32 	mcall	80003b78 <_alarmMenu+0x120>
80003ab4:	30 1a       	mov	r10,1
80003ab6:	30 cb       	mov	r11,12
80003ab8:	4b 3c       	lddpc	r12,80003b84 <_alarmMenu+0x12c>
80003aba:	f0 1f 00 34 	mcall	80003b88 <_alarmMenu+0x130>
80003abe:	2f bd       	sub	sp,-20
		
	}

	gfx_BeginNewTerminal((Vector2){20,200});
80003ac0:	30 45       	mov	r5,4
80003ac2:	0a 9a       	mov	r10,r5
80003ac4:	4b 2b       	lddpc	r11,80003b8c <_alarmMenu+0x134>
80003ac6:	fa cc ff f0 	sub	r12,sp,-16
80003aca:	f0 1f 00 2c 	mcall	80003b78 <_alarmMenu+0x120>
80003ace:	40 48       	lddsp	r8,sp[0x10]
80003ad0:	1a d8       	st.w	--sp,r8
80003ad2:	f0 1f 00 2b 	mcall	80003b7c <_alarmMenu+0x124>
	gfx_AddOptionToTerminal("Alarme 1 : 18h 00m", 18,textColor, selectedOption & (1<<0), firstDraw, firstDraw);
80003ad6:	4a f4       	lddpc	r4,80003b90 <_alarmMenu+0x138>
80003ad8:	09 86       	ld.ub	r6,r4[0x0]
80003ada:	ed d6 c0 01 	bfextu	r6,r6,0x0,0x1
80003ade:	4a 93       	lddpc	r3,80003b80 <_alarmMenu+0x128>
80003ae0:	20 1d       	sub	sp,4
80003ae2:	0a 9a       	mov	r10,r5
80003ae4:	06 9b       	mov	r11,r3
80003ae6:	1a 9c       	mov	r12,sp
80003ae8:	f0 1f 00 24 	mcall	80003b78 <_alarmMenu+0x120>
80003aec:	0e 98       	mov	r8,r7
80003aee:	0e 99       	mov	r9,r7
80003af0:	0c 9a       	mov	r10,r6
80003af2:	31 2b       	mov	r11,18
80003af4:	4a 8c       	lddpc	r12,80003b94 <_alarmMenu+0x13c>
80003af6:	f0 1f 00 29 	mcall	80003b98 <_alarmMenu+0x140>
	gfx_AddOptionToTerminal("Alarme 2 : 09h 35m", 18,textColor, selectedOption & (1<<1), firstDraw, firstDraw);
80003afa:	09 86       	ld.ub	r6,r4[0x0]
80003afc:	ed d6 c0 21 	bfextu	r6,r6,0x1,0x1
80003b00:	20 1d       	sub	sp,4
80003b02:	0a 9a       	mov	r10,r5
80003b04:	06 9b       	mov	r11,r3
80003b06:	1a 9c       	mov	r12,sp
80003b08:	f0 1f 00 1c 	mcall	80003b78 <_alarmMenu+0x120>
80003b0c:	0e 98       	mov	r8,r7
80003b0e:	0e 99       	mov	r9,r7
80003b10:	0c 9a       	mov	r10,r6
80003b12:	31 2b       	mov	r11,18
80003b14:	4a 2c       	lddpc	r12,80003b9c <_alarmMenu+0x144>
80003b16:	f0 1f 00 21 	mcall	80003b98 <_alarmMenu+0x140>
	gfx_AddOptionToTerminal("Alarme 3 : 12h 00m", 18,textColor, selectedOption & (1<<2), firstDraw, firstDraw);
80003b1a:	09 86       	ld.ub	r6,r4[0x0]
80003b1c:	ed d6 c0 41 	bfextu	r6,r6,0x2,0x1
80003b20:	20 1d       	sub	sp,4
80003b22:	0a 9a       	mov	r10,r5
80003b24:	06 9b       	mov	r11,r3
80003b26:	1a 9c       	mov	r12,sp
80003b28:	f0 1f 00 14 	mcall	80003b78 <_alarmMenu+0x120>
80003b2c:	0e 98       	mov	r8,r7
80003b2e:	0e 99       	mov	r9,r7
80003b30:	0c 9a       	mov	r10,r6
80003b32:	31 2b       	mov	r11,18
80003b34:	49 bc       	lddpc	r12,80003ba0 <_alarmMenu+0x148>
80003b36:	f0 1f 00 19 	mcall	80003b98 <_alarmMenu+0x140>
	gfx_AddOptionToTerminal("Alarme 4 : 06h 18m", 18,textColor, selectedOption & (1<<3), firstDraw, firstDraw);
80003b3a:	09 86       	ld.ub	r6,r4[0x0]
80003b3c:	ed d6 c0 61 	bfextu	r6,r6,0x3,0x1
80003b40:	20 1d       	sub	sp,4
80003b42:	0a 9a       	mov	r10,r5
80003b44:	06 9b       	mov	r11,r3
80003b46:	1a 9c       	mov	r12,sp
80003b48:	f0 1f 00 0c 	mcall	80003b78 <_alarmMenu+0x120>
80003b4c:	0e 98       	mov	r8,r7
80003b4e:	0e 99       	mov	r9,r7
80003b50:	0c 9a       	mov	r10,r6
80003b52:	31 2b       	mov	r11,18
80003b54:	49 4c       	lddpc	r12,80003ba4 <_alarmMenu+0x14c>
80003b56:	f0 1f 00 11 	mcall	80003b98 <_alarmMenu+0x140>
80003b5a:	2f bd       	sub	sp,-20
}
80003b5c:	2f bd       	sub	sp,-20
80003b5e:	e3 cd 80 f8 	ldm	sp++,r3-r7,pc
80003b62:	00 00       	add	r0,r0
80003b64:	80 00       	ld.sh	r0,r0[0x0]
80003b66:	42 04       	lddsp	r4,sp[0x80]
80003b68:	80 00       	ld.sh	r0,r0[0x0]
80003b6a:	43 78       	lddsp	r8,sp[0xdc]
80003b6c:	80 00       	ld.sh	r0,r0[0x0]
80003b6e:	39 74       	mov	r4,-105
80003b70:	00 00       	add	r0,r0
80003b72:	01 38       	ld.ub	r8,r0++
80003b74:	80 00       	ld.sh	r0,r0[0x0]
80003b76:	86 92       	ld.uh	r2,r3[0x2]
80003b78:	80 00       	ld.sh	r0,r0[0x0]
80003b7a:	4e dc       	lddpc	r12,80003d2c <_musicMenu+0xa0>
80003b7c:	80 00       	ld.sh	r0,r0[0x0]
80003b7e:	2e ac       	sub	r12,-22
80003b80:	00 00       	add	r0,r0
80003b82:	00 2a       	rsub	r10,r0
80003b84:	80 00       	ld.sh	r0,r0[0x0]
80003b86:	86 e8       	ld.uh	r8,r3[0xc]
80003b88:	80 00       	ld.sh	r0,r0[0x0]
80003b8a:	35 14       	mov	r4,81
80003b8c:	80 00       	ld.sh	r0,r0[0x0]
80003b8e:	86 ae       	ld.uh	lr,r3[0x4]
80003b90:	00 00       	add	r0,r0
80003b92:	00 04       	add	r4,r0
80003b94:	80 00       	ld.sh	r0,r0[0x0]
80003b96:	86 f8       	ld.uh	r8,r3[0xe]
80003b98:	80 00       	ld.sh	r0,r0[0x0]
80003b9a:	34 28       	mov	r8,66
80003b9c:	80 00       	ld.sh	r0,r0[0x0]
80003b9e:	87 0c       	st.w	r3[0x0],r12
80003ba0:	80 00       	ld.sh	r0,r0[0x0]
80003ba2:	87 20       	st.w	r3[0x8],r0
80003ba4:	80 00       	ld.sh	r0,r0[0x0]
80003ba6:	87 34       	st.w	r3[0xc],r4

80003ba8 <_settingsMenu>:
	else{
		gfx_AddLineToTerminal("> No results",12,(Color){RED}, firstDraw);
	}
}

void _settingsMenu(bool firstDraw){
80003ba8:	eb cd 40 c0 	pushm	r6-r7,lr
80003bac:	20 4d       	sub	sp,16
	if(firstDraw){
80003bae:	58 0c       	cp.w	r12,0
80003bb0:	c5 10       	breq	80003c52 <_settingsMenu+0xaa>
		screen_SetPixels(Rect(0,0,320,240),(Color){BLACK});
80003bb2:	30 07       	mov	r7,0
80003bb4:	50 07       	stdsp	sp[0x0],r7
80003bb6:	e0 68 00 f0 	mov	r8,240
80003bba:	e0 69 01 40 	mov	r9,320
80003bbe:	0e 9a       	mov	r10,r7
80003bc0:	0e 9b       	mov	r11,r7
80003bc2:	fa cc ff fc 	sub	r12,sp,-4
80003bc6:	f0 1f 00 25 	mcall	80003c58 <_settingsMenu+0xb0>
80003bca:	40 08       	lddsp	r8,sp[0x0]
80003bcc:	1a d8       	st.w	--sp,r8
80003bce:	fa e8 00 08 	ld.d	r8,sp[8]
80003bd2:	bb 29       	st.d	--sp,r8
80003bd4:	f0 1f 00 22 	mcall	80003c5c <_settingsMenu+0xb4>
		
		_drawButton();
80003bd8:	f0 1f 00 22 	mcall	80003c60 <_settingsMenu+0xb8>
		menuChanged = false;
80003bdc:	4a 28       	lddpc	r8,80003c64 <_settingsMenu+0xbc>
80003bde:	b0 87       	st.b	r8[0x0],r7
		
		gfx_BeginNewTerminal((Vector2){20,220});
80003be0:	30 47       	mov	r7,4
80003be2:	0e 9a       	mov	r10,r7
80003be4:	4a 1b       	lddpc	r11,80003c68 <_settingsMenu+0xc0>
80003be6:	fa cc ff e8 	sub	r12,sp,-24
80003bea:	f0 1f 00 21 	mcall	80003c6c <_settingsMenu+0xc4>
80003bee:	40 68       	lddsp	r8,sp[0x18]
80003bf0:	1a d8       	st.w	--sp,r8
80003bf2:	f0 1f 00 20 	mcall	80003c70 <_settingsMenu+0xc8>
		gfx_AddLineToTerminal("sudo settings -h", 16, textColor, firstDraw);
80003bf6:	4a 06       	lddpc	r6,80003c74 <_settingsMenu+0xcc>
80003bf8:	20 1d       	sub	sp,4
80003bfa:	0e 9a       	mov	r10,r7
80003bfc:	0c 9b       	mov	r11,r6
80003bfe:	1a 9c       	mov	r12,sp
80003c00:	f0 1f 00 1b 	mcall	80003c6c <_settingsMenu+0xc4>
80003c04:	30 1a       	mov	r10,1
80003c06:	31 0b       	mov	r11,16
80003c08:	49 cc       	lddpc	r12,80003c78 <_settingsMenu+0xd0>
80003c0a:	f0 1f 00 1d 	mcall	80003c7c <_settingsMenu+0xd4>
		gfx_AddLineToTerminal("> textColor = Green", 20, textColor, firstDraw);
80003c0e:	20 1d       	sub	sp,4
80003c10:	0e 9a       	mov	r10,r7
80003c12:	0c 9b       	mov	r11,r6
80003c14:	1a 9c       	mov	r12,sp
80003c16:	f0 1f 00 16 	mcall	80003c6c <_settingsMenu+0xc4>
80003c1a:	30 1a       	mov	r10,1
80003c1c:	31 4b       	mov	r11,20
80003c1e:	49 9c       	lddpc	r12,80003c80 <_settingsMenu+0xd8>
80003c20:	f0 1f 00 17 	mcall	80003c7c <_settingsMenu+0xd4>
		gfx_AddLineToTerminal("> Heure : 10h 30m", 18, textColor, firstDraw);
80003c24:	20 1d       	sub	sp,4
80003c26:	0e 9a       	mov	r10,r7
80003c28:	0c 9b       	mov	r11,r6
80003c2a:	1a 9c       	mov	r12,sp
80003c2c:	f0 1f 00 10 	mcall	80003c6c <_settingsMenu+0xc4>
80003c30:	30 1a       	mov	r10,1
80003c32:	31 2b       	mov	r11,18
80003c34:	49 4c       	lddpc	r12,80003c84 <_settingsMenu+0xdc>
80003c36:	f0 1f 00 12 	mcall	80003c7c <_settingsMenu+0xd4>
		gfx_AddLineToTerminal("> Date : 09h 35m", 17, textColor, firstDraw);
80003c3a:	20 1d       	sub	sp,4
80003c3c:	0e 9a       	mov	r10,r7
80003c3e:	0c 9b       	mov	r11,r6
80003c40:	1a 9c       	mov	r12,sp
80003c42:	f0 1f 00 0b 	mcall	80003c6c <_settingsMenu+0xc4>
80003c46:	30 1a       	mov	r10,1
80003c48:	31 1b       	mov	r11,17
80003c4a:	49 0c       	lddpc	r12,80003c88 <_settingsMenu+0xe0>
80003c4c:	f0 1f 00 0c 	mcall	80003c7c <_settingsMenu+0xd4>
80003c50:	2f 8d       	sub	sp,-32
	}
}
80003c52:	2f cd       	sub	sp,-16
80003c54:	e3 cd 80 c0 	ldm	sp++,r6-r7,pc
80003c58:	80 00       	ld.sh	r0,r0[0x0]
80003c5a:	42 04       	lddsp	r4,sp[0x80]
80003c5c:	80 00       	ld.sh	r0,r0[0x0]
80003c5e:	43 78       	lddsp	r8,sp[0xdc]
80003c60:	80 00       	ld.sh	r0,r0[0x0]
80003c62:	39 74       	mov	r4,-105
80003c64:	00 00       	add	r0,r0
80003c66:	01 38       	ld.ub	r8,r0++
80003c68:	80 00       	ld.sh	r0,r0[0x0]
80003c6a:	88 40       	ld.sh	r0,r4[0x8]
80003c6c:	80 00       	ld.sh	r0,r0[0x0]
80003c6e:	4e dc       	lddpc	r12,80003e20 <_mainMenu+0x9c>
80003c70:	80 00       	ld.sh	r0,r0[0x0]
80003c72:	2e ac       	sub	r12,-22
80003c74:	00 00       	add	r0,r0
80003c76:	00 2a       	rsub	r10,r0
80003c78:	80 00       	ld.sh	r0,r0[0x0]
80003c7a:	87 48       	st.w	r3[0x10],r8
80003c7c:	80 00       	ld.sh	r0,r0[0x0]
80003c7e:	35 14       	mov	r4,81
80003c80:	80 00       	ld.sh	r0,r0[0x0]
80003c82:	87 5c       	st.w	r3[0x14],r12
80003c84:	80 00       	ld.sh	r0,r0[0x0]
80003c86:	87 70       	st.w	r3[0x1c],r0
80003c88:	80 00       	ld.sh	r0,r0[0x0]
80003c8a:	87 84       	st.w	r3[0x20],r4

80003c8c <_musicMenu>:
 * otherwise only dynamic part are drawn
 *
 * Created 13.11.17 QVT
 * Last modified 13.11.17 QVT
 */
void _musicMenu(bool firstDraw){
80003c8c:	eb cd 40 fe 	pushm	r1-r7,lr
80003c90:	20 5d       	sub	sp,20
80003c92:	18 95       	mov	r5,r12
	if(firstDraw){
80003c94:	58 0c       	cp.w	r12,0
80003c96:	c1 90       	breq	80003cc8 <_musicMenu+0x3c>
		screen_SetPixels(Rect(0,0,320,240),(Color){BLACK});
80003c98:	30 07       	mov	r7,0
80003c9a:	50 07       	stdsp	sp[0x0],r7
80003c9c:	e0 68 00 f0 	mov	r8,240
80003ca0:	e0 69 01 40 	mov	r9,320
80003ca4:	0e 9a       	mov	r10,r7
80003ca6:	0e 9b       	mov	r11,r7
80003ca8:	fa cc ff fc 	sub	r12,sp,-4
80003cac:	f0 1f 00 29 	mcall	80003d50 <_musicMenu+0xc4>
80003cb0:	40 08       	lddsp	r8,sp[0x0]
80003cb2:	1a d8       	st.w	--sp,r8
80003cb4:	fa e8 00 08 	ld.d	r8,sp[8]
80003cb8:	bb 29       	st.d	--sp,r8
80003cba:	f0 1f 00 27 	mcall	80003d54 <_musicMenu+0xc8>
	
		_drawButton();
80003cbe:	f0 1f 00 27 	mcall	80003d58 <_musicMenu+0xcc>
		menuChanged = false;
80003cc2:	4a 78       	lddpc	r8,80003d5c <_musicMenu+0xd0>
80003cc4:	b0 87       	st.b	r8[0x0],r7
80003cc6:	2f dd       	sub	sp,-12
	}
	
	gfx_BeginNewTerminal((Vector2){20,220});
80003cc8:	30 47       	mov	r7,4
80003cca:	0e 9a       	mov	r10,r7
80003ccc:	4a 5b       	lddpc	r11,80003d60 <_musicMenu+0xd4>
80003cce:	fa cc ff f4 	sub	r12,sp,-12
80003cd2:	f0 1f 00 25 	mcall	80003d64 <_musicMenu+0xd8>
80003cd6:	40 38       	lddsp	r8,sp[0xc]
80003cd8:	1a d8       	st.w	--sp,r8
80003cda:	f0 1f 00 24 	mcall	80003d68 <_musicMenu+0xdc>
		
	gfx_AddLineToTerminal("ls | grep .wave", 15, textColor, firstDraw);
80003cde:	20 1d       	sub	sp,4
80003ce0:	0e 9a       	mov	r10,r7
80003ce2:	4a 3b       	lddpc	r11,80003d6c <_musicMenu+0xe0>
80003ce4:	1a 9c       	mov	r12,sp
80003ce6:	f0 1f 00 20 	mcall	80003d64 <_musicMenu+0xd8>
80003cea:	0a 9a       	mov	r10,r5
80003cec:	30 fb       	mov	r11,15
80003cee:	4a 1c       	lddpc	r12,80003d70 <_musicMenu+0xe4>
80003cf0:	f0 1f 00 21 	mcall	80003d74 <_musicMenu+0xe8>
	
	if(sdcard_checkPresence()){
80003cf4:	f0 1f 00 21 	mcall	80003d78 <_musicMenu+0xec>
80003cf8:	2f ed       	sub	sp,-8
80003cfa:	58 0c       	cp.w	r12,0
80003cfc:	c1 a0       	breq	80003d30 <_musicMenu+0xa4>
80003cfe:	30 07       	mov	r7,0
		for(uint8_t i = 0; i < 6; i++){
			gfx_AddLineToTerminal((char*)(files[i].name),25,textColor, firstDraw);
80003d00:	49 f4       	lddpc	r4,80003d7c <_musicMenu+0xf0>
80003d02:	49 b3       	lddpc	r3,80003d6c <_musicMenu+0xe0>
80003d04:	30 42       	mov	r2,4
80003d06:	31 91       	mov	r1,25
80003d08:	ee 07 00 36 	add	r6,r7,r7<<0x3
80003d0c:	e8 06 00 26 	add	r6,r4,r6<<0x2
80003d10:	20 1d       	sub	sp,4
80003d12:	04 9a       	mov	r10,r2
80003d14:	06 9b       	mov	r11,r3
80003d16:	1a 9c       	mov	r12,sp
80003d18:	f0 1f 00 13 	mcall	80003d64 <_musicMenu+0xd8>
80003d1c:	0a 9a       	mov	r10,r5
80003d1e:	02 9b       	mov	r11,r1
80003d20:	0c 9c       	mov	r12,r6
80003d22:	f0 1f 00 15 	mcall	80003d74 <_musicMenu+0xe8>
80003d26:	2f f7       	sub	r7,-1
	gfx_BeginNewTerminal((Vector2){20,220});
		
	gfx_AddLineToTerminal("ls | grep .wave", 15, textColor, firstDraw);
	
	if(sdcard_checkPresence()){
		for(uint8_t i = 0; i < 6; i++){
80003d28:	2f fd       	sub	sp,-4
80003d2a:	58 67       	cp.w	r7,6
80003d2c:	ce e1       	brne	80003d08 <_musicMenu+0x7c>
80003d2e:	c0 e8       	rjmp	80003d4a <_musicMenu+0xbe>
			gfx_AddLineToTerminal((char*)(files[i].name),25,textColor, firstDraw);
		}
	}
	else{
		gfx_AddLineToTerminal("> No results",12,(Color){RED}, firstDraw);
80003d30:	30 08       	mov	r8,0
80003d32:	50 48       	stdsp	sp[0x10],r8
80003d34:	31 f8       	mov	r8,31
80003d36:	fb 58 00 10 	st.h	sp[16],r8
80003d3a:	40 48       	lddsp	r8,sp[0x10]
80003d3c:	1a d8       	st.w	--sp,r8
80003d3e:	0a 9a       	mov	r10,r5
80003d40:	30 cb       	mov	r11,12
80003d42:	49 0c       	lddpc	r12,80003d80 <_musicMenu+0xf4>
80003d44:	f0 1f 00 0c 	mcall	80003d74 <_musicMenu+0xe8>
80003d48:	2f fd       	sub	sp,-4
	}
}
80003d4a:	2f bd       	sub	sp,-20
80003d4c:	e3 cd 80 fe 	ldm	sp++,r1-r7,pc
80003d50:	80 00       	ld.sh	r0,r0[0x0]
80003d52:	42 04       	lddsp	r4,sp[0x80]
80003d54:	80 00       	ld.sh	r0,r0[0x0]
80003d56:	43 78       	lddsp	r8,sp[0xdc]
80003d58:	80 00       	ld.sh	r0,r0[0x0]
80003d5a:	39 74       	mov	r4,-105
80003d5c:	00 00       	add	r0,r0
80003d5e:	01 38       	ld.ub	r8,r0++
80003d60:	80 00       	ld.sh	r0,r0[0x0]
80003d62:	86 b2       	ld.uh	r2,r3[0x6]
80003d64:	80 00       	ld.sh	r0,r0[0x0]
80003d66:	4e dc       	lddpc	r12,80003f18 <_mainMenu+0x194>
80003d68:	80 00       	ld.sh	r0,r0[0x0]
80003d6a:	2e ac       	sub	r12,-22
80003d6c:	00 00       	add	r0,r0
80003d6e:	00 2a       	rsub	r10,r0
80003d70:	80 00       	ld.sh	r0,r0[0x0]
80003d72:	87 98       	st.w	r3[0x24],r8
80003d74:	80 00       	ld.sh	r0,r0[0x0]
80003d76:	35 14       	mov	r4,81
80003d78:	80 00       	ld.sh	r0,r0[0x0]
80003d7a:	4a 38       	lddpc	r8,80003e04 <_mainMenu+0x80>
80003d7c:	00 00       	add	r0,r0
80003d7e:	03 7c       	ld.ub	r12,--r1
80003d80:	80 00       	ld.sh	r0,r0[0x0]
80003d82:	87 a8       	st.w	r3[0x28],r8

80003d84 <_mainMenu>:
 * otherwise only dynamic part are drawn
 *
 * Created 10.11.17 QVT
 * Last modified 10.11.17 QVT
 */
void _mainMenu(bool firstDraw){
80003d84:	eb cd 40 e0 	pushm	r5-r7,lr
80003d88:	20 5d       	sub	sp,20
80003d8a:	18 97       	mov	r7,r12
	if(firstDraw){
80003d8c:	58 0c       	cp.w	r12,0
80003d8e:	c2 f0       	breq	80003dec <_mainMenu+0x68>
		screen_SetPixels(Rect(0,0,320,240),(Color){BLACK});
80003d90:	30 06       	mov	r6,0
80003d92:	50 06       	stdsp	sp[0x0],r6
80003d94:	e0 68 00 f0 	mov	r8,240
80003d98:	e0 69 01 40 	mov	r9,320
80003d9c:	0c 9a       	mov	r10,r6
80003d9e:	0c 9b       	mov	r11,r6
80003da0:	fa cc ff fc 	sub	r12,sp,-4
80003da4:	f0 1f 00 58 	mcall	80003f04 <_mainMenu+0x180>
80003da8:	40 08       	lddsp	r8,sp[0x0]
80003daa:	1a d8       	st.w	--sp,r8
80003dac:	fa e8 00 08 	ld.d	r8,sp[8]
80003db0:	bb 29       	st.d	--sp,r8
80003db2:	f0 1f 00 56 	mcall	80003f08 <_mainMenu+0x184>
	
		_drawButton();
80003db6:	f0 1f 00 56 	mcall	80003f0c <_mainMenu+0x188>
		menuChanged = false;
80003dba:	4d 68       	lddpc	r8,80003f10 <_mainMenu+0x18c>
80003dbc:	b0 86       	st.b	r8[0x0],r6
		
		gfx_BeginNewTerminal((Vector2){20,220});
80003dbe:	30 46       	mov	r6,4
80003dc0:	0c 9a       	mov	r10,r6
80003dc2:	4d 5b       	lddpc	r11,80003f14 <_mainMenu+0x190>
80003dc4:	fa cc ff e8 	sub	r12,sp,-24
80003dc8:	f0 1f 00 54 	mcall	80003f18 <_mainMenu+0x194>
80003dcc:	40 68       	lddsp	r8,sp[0x18]
80003dce:	1a d8       	st.w	--sp,r8
80003dd0:	f0 1f 00 53 	mcall	80003f1c <_mainMenu+0x198>
		
		gfx_AddLineToTerminal("status --complete", 17, textColor, firstDraw);
80003dd4:	20 1d       	sub	sp,4
80003dd6:	0c 9a       	mov	r10,r6
80003dd8:	4d 2b       	lddpc	r11,80003f20 <_mainMenu+0x19c>
80003dda:	1a 9c       	mov	r12,sp
80003ddc:	f0 1f 00 4f 	mcall	80003f18 <_mainMenu+0x194>
80003de0:	30 1a       	mov	r10,1
80003de2:	31 1b       	mov	r11,17
80003de4:	4d 0c       	lddpc	r12,80003f24 <_mainMenu+0x1a0>
80003de6:	f0 1f 00 51 	mcall	80003f28 <_mainMenu+0x1a4>
80003dea:	2f bd       	sub	sp,-20
	}
	
	gfx_BeginNewTerminal((Vector2){20,200});
80003dec:	30 46       	mov	r6,4
80003dee:	0c 9a       	mov	r10,r6
80003df0:	4c fb       	lddpc	r11,80003f2c <_mainMenu+0x1a8>
80003df2:	fa cc ff f0 	sub	r12,sp,-16
80003df6:	f0 1f 00 49 	mcall	80003f18 <_mainMenu+0x194>
80003dfa:	40 48       	lddsp	r8,sp[0x10]
80003dfc:	1a d8       	st.w	--sp,r8
80003dfe:	f0 1f 00 48 	mcall	80003f1c <_mainMenu+0x198>
	gfx_AddOptionToTerminal("Vendredi",8,textColor,false,firstDraw,firstDraw);
80003e02:	4c 85       	lddpc	r5,80003f20 <_mainMenu+0x19c>
80003e04:	20 1d       	sub	sp,4
80003e06:	0c 9a       	mov	r10,r6
80003e08:	0a 9b       	mov	r11,r5
80003e0a:	1a 9c       	mov	r12,sp
80003e0c:	f0 1f 00 43 	mcall	80003f18 <_mainMenu+0x194>
80003e10:	0e 98       	mov	r8,r7
80003e12:	0e 99       	mov	r9,r7
80003e14:	30 0a       	mov	r10,0
80003e16:	30 8b       	mov	r11,8
80003e18:	4c 6c       	lddpc	r12,80003f30 <_mainMenu+0x1ac>
80003e1a:	f0 1f 00 47 	mcall	80003f34 <_mainMenu+0x1b0>
	gfx_AddOptionToTerminal("10/11/17", 8, textColor,false,firstDraw, firstDraw);
80003e1e:	20 1d       	sub	sp,4
80003e20:	0c 9a       	mov	r10,r6
80003e22:	0a 9b       	mov	r11,r5
80003e24:	1a 9c       	mov	r12,sp
80003e26:	f0 1f 00 3d 	mcall	80003f18 <_mainMenu+0x194>
80003e2a:	0e 98       	mov	r8,r7
80003e2c:	0e 99       	mov	r9,r7
80003e2e:	30 0a       	mov	r10,0
80003e30:	30 8b       	mov	r11,8
80003e32:	4c 2c       	lddpc	r12,80003f38 <_mainMenu+0x1b4>
80003e34:	f0 1f 00 40 	mcall	80003f34 <_mainMenu+0x1b0>
	gfx_AddOptionToTerminal("15h 30m" ,  7, textColor,false,firstDraw, firstDraw);
80003e38:	20 1d       	sub	sp,4
80003e3a:	0c 9a       	mov	r10,r6
80003e3c:	0a 9b       	mov	r11,r5
80003e3e:	1a 9c       	mov	r12,sp
80003e40:	f0 1f 00 36 	mcall	80003f18 <_mainMenu+0x194>
80003e44:	0e 98       	mov	r8,r7
80003e46:	0e 99       	mov	r9,r7
80003e48:	30 0a       	mov	r10,0
80003e4a:	30 7b       	mov	r11,7
80003e4c:	4b cc       	lddpc	r12,80003f3c <_mainMenu+0x1b8>
80003e4e:	f0 1f 00 3a 	mcall	80003f34 <_mainMenu+0x1b0>
	gfx_AddOptionToTerminal("Alarme 1 disabled" ,  26, textColor,false,firstDraw, firstDraw);
80003e52:	20 1d       	sub	sp,4
80003e54:	0c 9a       	mov	r10,r6
80003e56:	0a 9b       	mov	r11,r5
80003e58:	1a 9c       	mov	r12,sp
80003e5a:	f0 1f 00 30 	mcall	80003f18 <_mainMenu+0x194>
80003e5e:	0e 98       	mov	r8,r7
80003e60:	0e 99       	mov	r9,r7
80003e62:	30 0a       	mov	r10,0
80003e64:	31 ab       	mov	r11,26
80003e66:	4b 7c       	lddpc	r12,80003f40 <_mainMenu+0x1bc>
80003e68:	f0 1f 00 33 	mcall	80003f34 <_mainMenu+0x1b0>
	gfx_AddOptionToTerminal("Alarme 2 enabled" ,  25, textColor,false,firstDraw, firstDraw);
80003e6c:	20 1d       	sub	sp,4
80003e6e:	0c 9a       	mov	r10,r6
80003e70:	0a 9b       	mov	r11,r5
80003e72:	1a 9c       	mov	r12,sp
80003e74:	f0 1f 00 29 	mcall	80003f18 <_mainMenu+0x194>
80003e78:	0e 98       	mov	r8,r7
80003e7a:	0e 99       	mov	r9,r7
80003e7c:	30 0a       	mov	r10,0
80003e7e:	31 9b       	mov	r11,25
80003e80:	4b 1c       	lddpc	r12,80003f44 <_mainMenu+0x1c0>
80003e82:	f0 1f 00 2d 	mcall	80003f34 <_mainMenu+0x1b0>
	
	if(selectedCommand == 0){
80003e86:	4b 18       	lddpc	r8,80003f48 <_mainMenu+0x1c4>
80003e88:	11 88       	ld.ub	r8,r8[0x0]
80003e8a:	2f ad       	sub	sp,-24
80003e8c:	58 08       	cp.w	r8,0
80003e8e:	c1 21       	brne	80003eb2 <_mainMenu+0x12e>
		gfx_cmdLine("ls | grep .wave", 15, textColor,commandChanged);
80003e90:	4a f7       	lddpc	r7,80003f4c <_mainMenu+0x1c8>
80003e92:	0f 86       	ld.ub	r6,r7[0x0]
80003e94:	20 1d       	sub	sp,4
80003e96:	30 4a       	mov	r10,4
80003e98:	0a 9b       	mov	r11,r5
80003e9a:	1a 9c       	mov	r12,sp
80003e9c:	f0 1f 00 1f 	mcall	80003f18 <_mainMenu+0x194>
80003ea0:	0c 9a       	mov	r10,r6
80003ea2:	30 fb       	mov	r11,15
80003ea4:	4a bc       	lddpc	r12,80003f50 <_mainMenu+0x1cc>
80003ea6:	f0 1f 00 2c 	mcall	80003f54 <_mainMenu+0x1d0>
		commandChanged = false;
80003eaa:	30 08       	mov	r8,0
80003eac:	ae 88       	st.b	r7[0x0],r8
80003eae:	2f fd       	sub	sp,-4
80003eb0:	c2 68       	rjmp	80003efc <_mainMenu+0x178>
	}
	else if(selectedCommand == 1){
80003eb2:	30 19       	mov	r9,1
80003eb4:	f2 08 18 00 	cp.b	r8,r9
80003eb8:	c1 21       	brne	80003edc <_mainMenu+0x158>
		gfx_cmdLine("sudo settings -h", 16, textColor,commandChanged);
80003eba:	4a 57       	lddpc	r7,80003f4c <_mainMenu+0x1c8>
80003ebc:	0f 86       	ld.ub	r6,r7[0x0]
80003ebe:	20 1d       	sub	sp,4
80003ec0:	30 4a       	mov	r10,4
80003ec2:	49 8b       	lddpc	r11,80003f20 <_mainMenu+0x19c>
80003ec4:	1a 9c       	mov	r12,sp
80003ec6:	f0 1f 00 15 	mcall	80003f18 <_mainMenu+0x194>
80003eca:	0c 9a       	mov	r10,r6
80003ecc:	31 0b       	mov	r11,16
80003ece:	4a 3c       	lddpc	r12,80003f58 <_mainMenu+0x1d4>
80003ed0:	f0 1f 00 21 	mcall	80003f54 <_mainMenu+0x1d0>
		commandChanged = false;
80003ed4:	30 08       	mov	r8,0
80003ed6:	ae 88       	st.b	r7[0x0],r8
80003ed8:	2f fd       	sub	sp,-4
80003eda:	c1 18       	rjmp	80003efc <_mainMenu+0x178>
	}
	else {
		gfx_cmdLine("alarm -info", 11, textColor,commandChanged);
80003edc:	49 c7       	lddpc	r7,80003f4c <_mainMenu+0x1c8>
80003ede:	0f 86       	ld.ub	r6,r7[0x0]
80003ee0:	20 1d       	sub	sp,4
80003ee2:	30 4a       	mov	r10,4
80003ee4:	48 fb       	lddpc	r11,80003f20 <_mainMenu+0x19c>
80003ee6:	1a 9c       	mov	r12,sp
80003ee8:	f0 1f 00 0c 	mcall	80003f18 <_mainMenu+0x194>
80003eec:	0c 9a       	mov	r10,r6
80003eee:	30 bb       	mov	r11,11
80003ef0:	49 bc       	lddpc	r12,80003f5c <_mainMenu+0x1d8>
80003ef2:	f0 1f 00 19 	mcall	80003f54 <_mainMenu+0x1d0>
		commandChanged = false;
80003ef6:	30 08       	mov	r8,0
80003ef8:	ae 88       	st.b	r7[0x0],r8
80003efa:	2f fd       	sub	sp,-4
	}
}
80003efc:	2f bd       	sub	sp,-20
80003efe:	e3 cd 80 e0 	ldm	sp++,r5-r7,pc
80003f02:	00 00       	add	r0,r0
80003f04:	80 00       	ld.sh	r0,r0[0x0]
80003f06:	42 04       	lddsp	r4,sp[0x80]
80003f08:	80 00       	ld.sh	r0,r0[0x0]
80003f0a:	43 78       	lddsp	r8,sp[0xdc]
80003f0c:	80 00       	ld.sh	r0,r0[0x0]
80003f0e:	39 74       	mov	r4,-105
80003f10:	00 00       	add	r0,r0
80003f12:	01 38       	ld.ub	r8,r0++
80003f14:	80 00       	ld.sh	r0,r0[0x0]
80003f16:	86 9e       	ld.uh	lr,r3[0x2]
80003f18:	80 00       	ld.sh	r0,r0[0x0]
80003f1a:	4e dc       	lddpc	r12,800040cc <gui_loadingScreen+0x16c>
80003f1c:	80 00       	ld.sh	r0,r0[0x0]
80003f1e:	2e ac       	sub	r12,-22
80003f20:	00 00       	add	r0,r0
80003f22:	00 2a       	rsub	r10,r0
80003f24:	80 00       	ld.sh	r0,r0[0x0]
80003f26:	87 b8       	st.w	r3[0x2c],r8
80003f28:	80 00       	ld.sh	r0,r0[0x0]
80003f2a:	35 14       	mov	r4,81
80003f2c:	80 00       	ld.sh	r0,r0[0x0]
80003f2e:	88 48       	ld.sh	r8,r4[0x8]
80003f30:	80 00       	ld.sh	r0,r0[0x0]
80003f32:	87 cc       	st.w	r3[0x30],r12
80003f34:	80 00       	ld.sh	r0,r0[0x0]
80003f36:	34 28       	mov	r8,66
80003f38:	80 00       	ld.sh	r0,r0[0x0]
80003f3a:	87 d8       	st.w	r3[0x34],r8
80003f3c:	80 00       	ld.sh	r0,r0[0x0]
80003f3e:	87 e4       	st.w	r3[0x38],r4
80003f40:	80 00       	ld.sh	r0,r0[0x0]
80003f42:	87 ec       	st.w	r3[0x38],r12
80003f44:	80 00       	ld.sh	r0,r0[0x0]
80003f46:	88 00       	ld.sh	r0,r4[0x0]
80003f48:	00 00       	add	r0,r0
80003f4a:	01 39       	ld.ub	r9,r0++
80003f4c:	00 00       	add	r0,r0
80003f4e:	00 28       	rsub	r8,r0
80003f50:	80 00       	ld.sh	r0,r0[0x0]
80003f52:	87 98       	st.w	r3[0x24],r8
80003f54:	80 00       	ld.sh	r0,r0[0x0]
80003f56:	32 e8       	mov	r8,46
80003f58:	80 00       	ld.sh	r0,r0[0x0]
80003f5a:	87 48       	st.w	r3[0x10],r8
80003f5c:	80 00       	ld.sh	r0,r0[0x0]
80003f5e:	88 14       	ld.sh	r4,r4[0x2]

80003f60 <gui_loadingScreen>:
	INTC_register_interrupt(&switchISR, AVR32_GPIO_IRQ7, AVR32_INTC_INT0);
	
	
}

void gui_loadingScreen(void){
80003f60:	d4 21       	pushm	r4-r7,lr
80003f62:	21 8d       	sub	sp,96
	screen_SetPixels(Rect(0,0,320,240), textColor);
80003f64:	e0 68 00 f0 	mov	r8,240
80003f68:	e0 69 01 40 	mov	r9,320
80003f6c:	30 0a       	mov	r10,0
80003f6e:	14 9b       	mov	r11,r10
80003f70:	fa cc ff f0 	sub	r12,sp,-16
80003f74:	f0 1f 00 5f 	mcall	800040f0 <gui_loadingScreen+0x190>
80003f78:	4d f4       	lddpc	r4,800040f4 <gui_loadingScreen+0x194>
80003f7a:	20 1d       	sub	sp,4
80003f7c:	30 47       	mov	r7,4
80003f7e:	0e 9a       	mov	r10,r7
80003f80:	08 9b       	mov	r11,r4
80003f82:	1a 9c       	mov	r12,sp
80003f84:	f0 1f 00 5d 	mcall	800040f8 <gui_loadingScreen+0x198>
80003f88:	fa e8 00 14 	ld.d	r8,sp[20]
80003f8c:	bb 29       	st.d	--sp,r8
80003f8e:	f0 1f 00 5c 	mcall	800040fc <gui_loadingScreen+0x19c>
	screen_SetPixels((Rectangle){.bottomLeft={10,10},.topRight={310,230}}, (Color){BLACK});
80003f92:	30 06       	mov	r6,0
80003f94:	50 96       	stdsp	sp[0x24],r6
80003f96:	30 8a       	mov	r10,8
80003f98:	4d ab       	lddpc	r11,80004100 <gui_loadingScreen+0x1a0>
80003f9a:	fa cc ff d8 	sub	r12,sp,-40
80003f9e:	f0 1f 00 57 	mcall	800040f8 <gui_loadingScreen+0x198>
80003fa2:	40 98       	lddsp	r8,sp[0x24]
80003fa4:	1a d8       	st.w	--sp,r8
80003fa6:	fa e8 00 2c 	ld.d	r8,sp[44]
80003faa:	bb 29       	st.d	--sp,r8
80003fac:	f0 1f 00 54 	mcall	800040fc <gui_loadingScreen+0x19c>

	gfx_DrawCircle((Vector2){150,129},58,1,(Color){WHITE});
80003fb0:	50 f6       	stdsp	sp[0x3c],r6
80003fb2:	3f f5       	mov	r5,-1
80003fb4:	fb 55 00 3c 	st.h	sp[60],r5
80003fb8:	0e 9a       	mov	r10,r7
80003fba:	4d 3b       	lddpc	r11,80004104 <gui_loadingScreen+0x1a4>
80003fbc:	fa cc ff c0 	sub	r12,sp,-64
80003fc0:	f0 1f 00 4e 	mcall	800040f8 <gui_loadingScreen+0x198>
80003fc4:	40 f8       	lddsp	r8,sp[0x3c]
80003fc6:	1a d8       	st.w	--sp,r8
80003fc8:	41 18       	lddsp	r8,sp[0x44]
80003fca:	1a d8       	st.w	--sp,r8
80003fcc:	30 1b       	mov	r11,1
80003fce:	33 ac       	mov	r12,58
80003fd0:	f0 1f 00 4e 	mcall	80004108 <gui_loadingScreen+0x1a8>
	gfx_DrawCircle((Vector2){200,100},50,50,textColor);
80003fd4:	2f 8d       	sub	sp,-32
80003fd6:	0e 9a       	mov	r10,r7
80003fd8:	4c db       	lddpc	r11,8000410c <gui_loadingScreen+0x1ac>
80003fda:	fa cc ff d4 	sub	r12,sp,-44
80003fde:	f0 1f 00 47 	mcall	800040f8 <gui_loadingScreen+0x198>
80003fe2:	20 1d       	sub	sp,4
80003fe4:	0e 9a       	mov	r10,r7
80003fe6:	08 9b       	mov	r11,r4
80003fe8:	1a 9c       	mov	r12,sp
80003fea:	f0 1f 00 44 	mcall	800040f8 <gui_loadingScreen+0x198>
80003fee:	40 c8       	lddsp	r8,sp[0x30]
80003ff0:	1a d8       	st.w	--sp,r8
80003ff2:	33 2b       	mov	r11,50
80003ff4:	16 9c       	mov	r12,r11
80003ff6:	f0 1f 00 45 	mcall	80004108 <gui_loadingScreen+0x1a8>
	gfx_DrawLine((Vector2){100,100}, (Vector2){200,100}, (Color){WHITE}, 3);
80003ffa:	50 e6       	stdsp	sp[0x38],r6
80003ffc:	fb 55 00 38 	st.h	sp[56],r5
80004000:	0e 9a       	mov	r10,r7
80004002:	4c 4b       	lddpc	r11,80004110 <gui_loadingScreen+0x1b0>
80004004:	fa cc ff c4 	sub	r12,sp,-60
80004008:	f0 1f 00 3c 	mcall	800040f8 <gui_loadingScreen+0x198>
8000400c:	0e 9a       	mov	r10,r7
8000400e:	4c 2b       	lddpc	r11,80004114 <gui_loadingScreen+0x1b4>
80004010:	fa cc ff c0 	sub	r12,sp,-64
80004014:	f0 1f 00 39 	mcall	800040f8 <gui_loadingScreen+0x198>
80004018:	40 e8       	lddsp	r8,sp[0x38]
8000401a:	1a d8       	st.w	--sp,r8
8000401c:	41 08       	lddsp	r8,sp[0x40]
8000401e:	1a d8       	st.w	--sp,r8
80004020:	41 28       	lddsp	r8,sp[0x48]
80004022:	1a d8       	st.w	--sp,r8
80004024:	30 3c       	mov	r12,3
80004026:	f0 1f 00 3d 	mcall	80004118 <gui_loadingScreen+0x1b8>
	gfx_DrawLine((Vector2){150, 186}, (Vector2){200,100}, (Color){WHITE}, 1);
8000402a:	51 46       	stdsp	sp[0x50],r6
8000402c:	fb 55 00 50 	st.h	sp[80],r5
80004030:	0e 9a       	mov	r10,r7
80004032:	4b bb       	lddpc	r11,8000411c <gui_loadingScreen+0x1bc>
80004034:	fa cc ff ac 	sub	r12,sp,-84
80004038:	f0 1f 00 30 	mcall	800040f8 <gui_loadingScreen+0x198>
8000403c:	0e 9a       	mov	r10,r7
8000403e:	4b 9b       	lddpc	r11,80004120 <gui_loadingScreen+0x1c0>
80004040:	fa cc ff a8 	sub	r12,sp,-88
80004044:	f0 1f 00 2d 	mcall	800040f8 <gui_loadingScreen+0x198>
80004048:	41 48       	lddsp	r8,sp[0x50]
8000404a:	1a d8       	st.w	--sp,r8
8000404c:	41 68       	lddsp	r8,sp[0x58]
8000404e:	1a d8       	st.w	--sp,r8
80004050:	41 88       	lddsp	r8,sp[0x60]
80004052:	1a d8       	st.w	--sp,r8
80004054:	30 1c       	mov	r12,1
80004056:	f0 1f 00 31 	mcall	80004118 <gui_loadingScreen+0x1b8>
	gfx_DrawCircle((Vector2){100,100},40,5,textColor);
8000405a:	2f 8d       	sub	sp,-32
8000405c:	0e 9a       	mov	r10,r7
8000405e:	4b 2b       	lddpc	r11,80004124 <gui_loadingScreen+0x1c4>
80004060:	fa cc ff b8 	sub	r12,sp,-72
80004064:	f0 1f 00 25 	mcall	800040f8 <gui_loadingScreen+0x198>
80004068:	20 1d       	sub	sp,4
8000406a:	0e 9a       	mov	r10,r7
8000406c:	08 9b       	mov	r11,r4
8000406e:	1a 9c       	mov	r12,sp
80004070:	f0 1f 00 22 	mcall	800040f8 <gui_loadingScreen+0x198>
80004074:	41 38       	lddsp	r8,sp[0x4c]
80004076:	1a d8       	st.w	--sp,r8
80004078:	30 5b       	mov	r11,5
8000407a:	32 8c       	mov	r12,40
8000407c:	f0 1f 00 23 	mcall	80004108 <gui_loadingScreen+0x1a8>
	gfx_DrawLine((Vector2){99,99}, (Vector2){150, 186}, (Color){WHITE}, 15);
80004080:	51 56       	stdsp	sp[0x54],r6
80004082:	fb 55 00 54 	st.h	sp[84],r5
80004086:	0e 9a       	mov	r10,r7
80004088:	4a 8b       	lddpc	r11,80004128 <gui_loadingScreen+0x1c8>
8000408a:	fa cc ff a8 	sub	r12,sp,-88
8000408e:	f0 1f 00 1b 	mcall	800040f8 <gui_loadingScreen+0x198>
80004092:	0e 9a       	mov	r10,r7
80004094:	4a 6b       	lddpc	r11,8000412c <gui_loadingScreen+0x1cc>
80004096:	fa cc ff a4 	sub	r12,sp,-92
8000409a:	f0 1f 00 18 	mcall	800040f8 <gui_loadingScreen+0x198>
8000409e:	41 58       	lddsp	r8,sp[0x54]
800040a0:	1a d8       	st.w	--sp,r8
800040a2:	41 78       	lddsp	r8,sp[0x5c]
800040a4:	1a d8       	st.w	--sp,r8
800040a6:	41 98       	lddsp	r8,sp[0x64]
800040a8:	1a d8       	st.w	--sp,r8
800040aa:	30 fc       	mov	r12,15
800040ac:	f0 1f 00 1b 	mcall	80004118 <gui_loadingScreen+0x1b8>
	char text[] = "LogoRetro.pixel";
800040b0:	4a 08       	lddpc	r8,80004130 <gui_loadingScreen+0x1d0>
800040b2:	fa c4 ff ec 	sub	r4,sp,-20
800040b6:	f0 ea 00 00 	ld.d	r10,r8[0]
800040ba:	e8 eb 00 00 	st.d	r4[0],r10
800040be:	f0 e8 00 08 	ld.d	r8,r8[8]
800040c2:	e8 e9 00 08 	st.d	r4[8],r8
	gfx_Label((Vector2){40,40}, text, sizeof(text)/sizeof(*text), Small, (Color){WHITE});
800040c6:	51 b6       	stdsp	sp[0x6c],r6
800040c8:	fb 55 00 6c 	st.h	sp[108],r5
800040cc:	0e 9a       	mov	r10,r7
800040ce:	49 ab       	lddpc	r11,80004134 <gui_loadingScreen+0x1d4>
800040d0:	fa cc ff 90 	sub	r12,sp,-112
800040d4:	f0 1f 00 09 	mcall	800040f8 <gui_loadingScreen+0x198>
800040d8:	41 b8       	lddsp	r8,sp[0x6c]
800040da:	1a d8       	st.w	--sp,r8
800040dc:	41 d8       	lddsp	r8,sp[0x74]
800040de:	1a d8       	st.w	--sp,r8
800040e0:	0c 9a       	mov	r10,r6
800040e2:	31 0b       	mov	r11,16
800040e4:	08 9c       	mov	r12,r4
800040e6:	f0 1f 00 15 	mcall	80004138 <gui_loadingScreen+0x1d8>
800040ea:	2f 9d       	sub	sp,-28
}
800040ec:	2e 8d       	sub	sp,-96
800040ee:	d8 22       	popm	r4-r7,pc
800040f0:	80 00       	ld.sh	r0,r0[0x0]
800040f2:	42 04       	lddsp	r4,sp[0x80]
800040f4:	00 00       	add	r0,r0
800040f6:	00 2a       	rsub	r10,r0
800040f8:	80 00       	ld.sh	r0,r0[0x0]
800040fa:	4e dc       	lddpc	r12,800042ac <_setStart+0x18>
800040fc:	80 00       	ld.sh	r0,r0[0x0]
800040fe:	43 78       	lddsp	r8,sp[0xdc]
80004100:	80 00       	ld.sh	r0,r0[0x0]
80004102:	86 a2       	ld.uh	r2,r3[0x4]
80004104:	80 00       	ld.sh	r0,r0[0x0]
80004106:	86 ba       	ld.uh	r10,r3[0x6]
80004108:	80 00       	ld.sh	r0,r0[0x0]
8000410a:	2e c8       	sub	r8,-20
8000410c:	80 00       	ld.sh	r0,r0[0x0]
8000410e:	88 34       	ld.sh	r4,r4[0x6]
80004110:	80 00       	ld.sh	r0,r0[0x0]
80004112:	86 9a       	ld.uh	r10,r3[0x2]
80004114:	80 00       	ld.sh	r0,r0[0x0]
80004116:	86 b6       	ld.uh	r6,r3[0x6]
80004118:	80 00       	ld.sh	r0,r0[0x0]
8000411a:	35 84       	mov	r4,88
8000411c:	80 00       	ld.sh	r0,r0[0x0]
8000411e:	88 38       	ld.sh	r8,r4[0x6]
80004120:	80 00       	ld.sh	r0,r0[0x0]
80004122:	88 4c       	ld.sh	r12,r4[0x8]
80004124:	80 00       	ld.sh	r0,r0[0x0]
80004126:	86 96       	ld.uh	r6,r3[0x2]
80004128:	80 00       	ld.sh	r0,r0[0x0]
8000412a:	86 be       	ld.uh	lr,r3[0x6]
8000412c:	80 00       	ld.sh	r0,r0[0x0]
8000412e:	88 3c       	ld.sh	r12,r4[0x6]
80004130:	80 00       	ld.sh	r0,r0[0x0]
80004132:	88 20       	ld.sh	r0,r4[0x4]
80004134:	80 00       	ld.sh	r0,r0[0x0]
80004136:	88 50       	ld.sh	r0,r4[0xa]
80004138:	80 00       	ld.sh	r0,r0[0x0]
8000413a:	31 68       	mov	r8,22

8000413c <gui_Init>:

/************************************************************************/
/* FUNCTIONS                                                            */
/************************************************************************/

void gui_Init(void){
8000413c:	d4 01       	pushm	lr
	gpio_enable_pin_glitch_filter(PIN_SWITCH0);
8000413e:	33 8c       	mov	r12,56
80004140:	f0 1f 00 17 	mcall	8000419c <gui_Init+0x60>
	gpio_enable_pin_pull_up(PIN_SWITCH0);
80004144:	33 8c       	mov	r12,56
80004146:	f0 1f 00 17 	mcall	800041a0 <gui_Init+0x64>
	gpio_enable_pin_interrupt(PIN_SWITCH0, GPIO_RISING_EDGE);
8000414a:	30 1b       	mov	r11,1
8000414c:	33 8c       	mov	r12,56
8000414e:	f0 1f 00 16 	mcall	800041a4 <gui_Init+0x68>

	gpio_enable_pin_glitch_filter(PIN_SWITCH1);
80004152:	33 9c       	mov	r12,57
80004154:	f0 1f 00 12 	mcall	8000419c <gui_Init+0x60>
	gpio_enable_pin_pull_up(PIN_SWITCH1);
80004158:	33 9c       	mov	r12,57
8000415a:	f0 1f 00 12 	mcall	800041a0 <gui_Init+0x64>
	gpio_enable_pin_interrupt(PIN_SWITCH1, GPIO_RISING_EDGE);
8000415e:	30 1b       	mov	r11,1
80004160:	33 9c       	mov	r12,57
80004162:	f0 1f 00 11 	mcall	800041a4 <gui_Init+0x68>

	gpio_enable_pin_glitch_filter(PIN_SWITCH2);
80004166:	33 ac       	mov	r12,58
80004168:	f0 1f 00 0d 	mcall	8000419c <gui_Init+0x60>
	gpio_enable_pin_pull_up(PIN_SWITCH2);
8000416c:	33 ac       	mov	r12,58
8000416e:	f0 1f 00 0d 	mcall	800041a0 <gui_Init+0x64>
	gpio_enable_pin_interrupt(PIN_SWITCH2, GPIO_RISING_EDGE);
80004172:	30 1b       	mov	r11,1
80004174:	33 ac       	mov	r12,58
80004176:	f0 1f 00 0c 	mcall	800041a4 <gui_Init+0x68>

	gpio_enable_pin_glitch_filter(PIN_SWITCH3);
8000417a:	33 bc       	mov	r12,59
8000417c:	f0 1f 00 08 	mcall	8000419c <gui_Init+0x60>
	gpio_enable_pin_pull_up(PIN_SWITCH3);
80004180:	33 bc       	mov	r12,59
80004182:	f0 1f 00 08 	mcall	800041a0 <gui_Init+0x64>
	gpio_enable_pin_interrupt(PIN_SWITCH3, GPIO_RISING_EDGE);
80004186:	30 1b       	mov	r11,1
80004188:	33 bc       	mov	r12,59
8000418a:	f0 1f 00 07 	mcall	800041a4 <gui_Init+0x68>
	
	INTC_register_interrupt(&switchISR, AVR32_GPIO_IRQ7, AVR32_INTC_INT0);
8000418e:	30 0a       	mov	r10,0
80004190:	34 7b       	mov	r11,71
80004192:	48 6c       	lddpc	r12,800041a8 <gui_Init+0x6c>
80004194:	f0 1f 00 06 	mcall	800041ac <gui_Init+0x70>
	
	
}
80004198:	d8 02       	popm	pc
8000419a:	00 00       	add	r0,r0
8000419c:	80 00       	ld.sh	r0,r0[0x0]
8000419e:	29 1e       	sub	lr,-111
800041a0:	80 00       	ld.sh	r0,r0[0x0]
800041a2:	28 d0       	sub	r0,-115
800041a4:	80 00       	ld.sh	r0,r0[0x0]
800041a6:	29 34       	sub	r4,-109
800041a8:	80 00       	ld.sh	r0,r0[0x0]
800041aa:	38 10       	mov	r0,-127
800041ac:	80 00       	ld.sh	r0,r0[0x0]
800041ae:	29 94       	sub	r4,-103

800041b0 <rectangle_GetArea>:

uint8_t  rectangle_GetHeight(Rectangle rect){
	return rect.topRight.y - rect.bottomLeft.y;
}

uint32_t rectangle_GetArea(Rectangle rect){
800041b0:	eb cd 00 10 	pushm	r4
800041b4:	20 1d       	sub	sp,4
800041b6:	fa c4 ff f8 	sub	r4,sp,-8
	volatile uint32_t value = (uint32_t)(rect.topRight.x - rect.bottomLeft.x +1)*(uint32_t)(rect.topRight.y - rect.bottomLeft.y +1);
800041ba:	09 e9       	ld.ub	r9,r4[0x6]
800041bc:	2f f9       	sub	r9,-1
800041be:	09 aa       	ld.ub	r10,r4[0x2]
800041c0:	14 19       	sub	r9,r10
800041c2:	88 a8       	ld.uh	r8,r4[0x4]
800041c4:	2f f8       	sub	r8,-1
800041c6:	88 8a       	ld.uh	r10,r4[0x0]
800041c8:	14 18       	sub	r8,r10
800041ca:	f2 08 02 48 	mul	r8,r9,r8
800041ce:	50 08       	stdsp	sp[0x0],r8
	return value;
800041d0:	40 0c       	lddsp	r12,sp[0x0]
}
800041d2:	2f fd       	sub	sp,-4
800041d4:	e3 cd 00 10 	ldm	sp++,r4
800041d8:	5e fc       	retal	r12

800041da <rectangle_VerifySize>:

void rectangle_VerifySize(Rectangle *rect, uint16_t maxWidth, uint8_t maxHeight){
	if(rect->bottomLeft.x > maxWidth)
800041da:	98 08       	ld.sh	r8,r12[0x0]
		rect->bottomLeft.x = maxWidth;
800041dc:	f6 08 19 00 	cp.h	r8,r11
800041e0:	f9 fb bc 00 	st.hhi	r12[0x0],r11

	if(rect->topRight.x > maxWidth)
800041e4:	98 28       	ld.sh	r8,r12[0x4]
		rect->topRight.x = maxWidth;
800041e6:	f6 08 19 00 	cp.h	r8,r11
800041ea:	f9 fb bc 02 	st.hhi	r12[0x4],r11

	if(rect->bottomLeft.y > maxHeight)
800041ee:	19 a8       	ld.ub	r8,r12[0x2]
		rect->bottomLeft.y = maxHeight;
800041f0:	f4 08 18 00 	cp.b	r8,r10
800041f4:	f9 fa be 02 	st.bhi	r12[0x2],r10

	if(rect->topRight.y > maxHeight)
800041f8:	19 e8       	ld.ub	r8,r12[0x6]
		rect->topRight.y = maxHeight;
800041fa:	f4 08 18 00 	cp.b	r8,r10
800041fe:	f9 fa be 06 	st.bhi	r12[0x6],r10
80004202:	5e fc       	retal	r12

80004204 <Rect>:
	//if(rect->topRight.y == rect->bottomLeft.y)
		//rect->topRight.y++;
}


Rectangle Rect(uint16_t x1, uint8_t y1, uint16_t x2, uint8_t y2){
80004204:	d4 01       	pushm	lr
80004206:	18 9e       	mov	lr,r12
	//Vector2 tl = {x1,y1};
	//Vector2 br = {x2, y2};
	//Rectangle r = {tl, br};
	return (Rectangle){{x1,y1},{x2,y2}};
80004208:	b8 0b       	st.h	r12[0x0],r11
8000420a:	b8 aa       	st.b	r12[0x2],r10
8000420c:	b8 29       	st.h	r12[0x4],r9
8000420e:	b8 e8       	st.b	r12[0x6],r8
80004210:	d8 02       	popm	pc
80004212:	d7 03       	nop

80004214 <_writeRegister>:
	spi_unselectChip(SCREEN_SPI, SCREEN_SPI_NPCS);
	
	_setLimits(Rect(0,0,SCREEN_WIDTH,SCREEN_HEIGHT));
}

static void _writeRegister(uint8_t reg, uint16_t data){
80004214:	eb cd 40 c0 	pushm	r6-r7,lr
80004218:	18 96       	mov	r6,r12
8000421a:	16 97       	mov	r7,r11
	spi_selectChip(SCREEN_SPI, SCREEN_SPI_NPCS);		//Chip Select adresse du TFT.
8000421c:	30 0b       	mov	r11,0
8000421e:	fe 7c 24 00 	mov	r12,-56320
80004222:	f0 1f 00 1a 	mcall	80004288 <_writeRegister+0x74>
	spi_write(SCREEN_SPI, LCD_ID_WRITE_INDEX);
80004226:	37 0b       	mov	r11,112
80004228:	fe 7c 24 00 	mov	r12,-56320
8000422c:	f0 1f 00 18 	mcall	8000428c <_writeRegister+0x78>
	spi_write(SCREEN_SPI, 0x00);					// Adresse LSB
80004230:	30 0b       	mov	r11,0
80004232:	fe 7c 24 00 	mov	r12,-56320
80004236:	f0 1f 00 16 	mcall	8000428c <_writeRegister+0x78>
	spi_write(SCREEN_SPI, reg);					// Adresse MSB
8000423a:	0c 9b       	mov	r11,r6
8000423c:	fe 7c 24 00 	mov	r12,-56320
80004240:	f0 1f 00 13 	mcall	8000428c <_writeRegister+0x78>
	spi_unselectChip(SCREEN_SPI, SCREEN_SPI_NPCS);
80004244:	30 0b       	mov	r11,0
80004246:	fe 7c 24 00 	mov	r12,-56320
8000424a:	f0 1f 00 12 	mcall	80004290 <_writeRegister+0x7c>

	spi_selectChip(SCREEN_SPI, SCREEN_SPI_NPCS);		//Chip Select adresse du TFT.
8000424e:	30 0b       	mov	r11,0
80004250:	fe 7c 24 00 	mov	r12,-56320
80004254:	f0 1f 00 0d 	mcall	80004288 <_writeRegister+0x74>
	spi_write(SCREEN_SPI, LCD_ID_WRITE_GRAM);
80004258:	37 2b       	mov	r11,114
8000425a:	fe 7c 24 00 	mov	r12,-56320
8000425e:	f0 1f 00 0c 	mcall	8000428c <_writeRegister+0x78>
	spi_write(SCREEN_SPI, (uint8_t) (data >> 8));
80004262:	f7 d7 c1 08 	bfextu	r11,r7,0x8,0x8
80004266:	fe 7c 24 00 	mov	r12,-56320
8000426a:	f0 1f 00 09 	mcall	8000428c <_writeRegister+0x78>
	spi_write(SCREEN_SPI, (uint8_t) (data & 0x00ff));
8000426e:	0e 9b       	mov	r11,r7
80004270:	5c 5b       	castu.b	r11
80004272:	fe 7c 24 00 	mov	r12,-56320
80004276:	f0 1f 00 06 	mcall	8000428c <_writeRegister+0x78>
	spi_unselectChip(SCREEN_SPI, SCREEN_SPI_NPCS);
8000427a:	30 0b       	mov	r11,0
8000427c:	fe 7c 24 00 	mov	r12,-56320
80004280:	f0 1f 00 04 	mcall	80004290 <_writeRegister+0x7c>
}
80004284:	e3 cd 80 c0 	ldm	sp++,r6-r7,pc
80004288:	80 00       	ld.sh	r0,r0[0x0]
8000428a:	2d 02       	sub	r2,-48
8000428c:	80 00       	ld.sh	r0,r0[0x0]
8000428e:	2e 32       	sub	r2,-29
80004290:	80 00       	ld.sh	r0,r0[0x0]
80004292:	2d 4e       	sub	lr,-44

80004294 <_setStart>:
	spi_write( SCREEN_SPI, (uint8_t)(data >> 8));
	spi_write( SCREEN_SPI, (uint8_t)(data & 0x00ff));
	spi_unselectChip(SCREEN_SPI, SCREEN_SPI_NPCS);
}

static void _setStart(Vector2 position){
80004294:	eb cd 40 10 	pushm	r4,lr
80004298:	fa c4 ff f8 	sub	r4,sp,-8
	_writeRegister(R61580_ADDRESS_HORIZONTAL, position.y);
8000429c:	09 ab       	ld.ub	r11,r4[0x2]
8000429e:	32 0c       	mov	r12,32
800042a0:	f0 1f 00 04 	mcall	800042b0 <_setStart+0x1c>
	_writeRegister(R61580_ADDRESS_VERTICAL	, position.x);
800042a4:	88 8b       	ld.uh	r11,r4[0x0]
800042a6:	32 1c       	mov	r12,33
800042a8:	f0 1f 00 02 	mcall	800042b0 <_setStart+0x1c>
}
800042ac:	e3 cd 80 10 	ldm	sp++,r4,pc
800042b0:	80 00       	ld.sh	r0,r0[0x0]
800042b2:	42 14       	lddsp	r4,sp[0x84]

800042b4 <_setLimits>:

static void _setLimits(Rectangle rect){
800042b4:	eb cd 40 10 	pushm	r4,lr
800042b8:	fa c4 ff f8 	sub	r4,sp,-8
	_writeRegister(R61580_ADD_HSA, rect.bottomLeft.y);
800042bc:	09 ab       	ld.ub	r11,r4[0x2]
800042be:	35 0c       	mov	r12,80
800042c0:	f0 1f 00 08 	mcall	800042e0 <_setLimits+0x2c>
	_writeRegister(R61580_ADD_HEA, rect.topRight.y);
800042c4:	09 eb       	ld.ub	r11,r4[0x6]
800042c6:	35 1c       	mov	r12,81
800042c8:	f0 1f 00 06 	mcall	800042e0 <_setLimits+0x2c>
	_writeRegister(R61580_ADD_VSA, rect.bottomLeft.x);
800042cc:	88 8b       	ld.uh	r11,r4[0x0]
800042ce:	35 2c       	mov	r12,82
800042d0:	f0 1f 00 04 	mcall	800042e0 <_setLimits+0x2c>
	_writeRegister(R61580_ADD_VEA, rect.topRight.x);
800042d4:	88 ab       	ld.uh	r11,r4[0x4]
800042d6:	35 2c       	mov	r12,82
800042d8:	f0 1f 00 02 	mcall	800042e0 <_setLimits+0x2c>
}
800042dc:	e3 cd 80 10 	ldm	sp++,r4,pc
800042e0:	80 00       	ld.sh	r0,r0[0x0]
800042e2:	42 14       	lddsp	r4,sp[0x84]

800042e4 <_selectRegister>:

	data = data_low + (data_high << 8);
	return data;
}

static void _selectRegister(uint8_t address){
800042e4:	eb cd 40 80 	pushm	r7,lr
800042e8:	18 97       	mov	r7,r12
	spi_selectChip(SCREEN_SPI, SCREEN_SPI_NPCS);
800042ea:	30 0b       	mov	r11,0
800042ec:	fe 7c 24 00 	mov	r12,-56320
800042f0:	f0 1f 00 0c 	mcall	80004320 <_selectRegister+0x3c>
	spi_write(SCREEN_SPI, LCD_ID_WRITE_INDEX);
800042f4:	37 0b       	mov	r11,112
800042f6:	fe 7c 24 00 	mov	r12,-56320
800042fa:	f0 1f 00 0b 	mcall	80004324 <_selectRegister+0x40>
	spi_write(SCREEN_SPI, 0x00);
800042fe:	30 0b       	mov	r11,0
80004300:	fe 7c 24 00 	mov	r12,-56320
80004304:	f0 1f 00 08 	mcall	80004324 <_selectRegister+0x40>
	spi_write(SCREEN_SPI, address);
80004308:	0e 9b       	mov	r11,r7
8000430a:	fe 7c 24 00 	mov	r12,-56320
8000430e:	f0 1f 00 06 	mcall	80004324 <_selectRegister+0x40>
	spi_unselectChip(SCREEN_SPI, SCREEN_SPI_NPCS);
80004312:	30 0b       	mov	r11,0
80004314:	fe 7c 24 00 	mov	r12,-56320
80004318:	f0 1f 00 04 	mcall	80004328 <_selectRegister+0x44>
}
8000431c:	e3 cd 80 80 	ldm	sp++,r7,pc
80004320:	80 00       	ld.sh	r0,r0[0x0]
80004322:	2d 02       	sub	r2,-48
80004324:	80 00       	ld.sh	r0,r0[0x0]
80004326:	2e 32       	sub	r2,-29
80004328:	80 00       	ld.sh	r0,r0[0x0]
8000432a:	2d 4e       	sub	lr,-44

8000432c <_writeRAM>:
	_writeRegister(R61580_PANEL_CONTROL3, 0x0701);		// Sets VCOM equalize period
	
	_writeRegister(R61580_DISPLAY_CONTROL1, 0x0100);		//Display Control 1
}

static void _writeRAM(uint16_t data){
8000432c:	eb cd 40 80 	pushm	r7,lr
80004330:	18 97       	mov	r7,r12
	spi_selectChip(SCREEN_SPI, SCREEN_SPI_NPCS);
80004332:	30 0b       	mov	r11,0
80004334:	fe 7c 24 00 	mov	r12,-56320
80004338:	f0 1f 00 0d 	mcall	8000436c <_writeRAM+0x40>
	spi_write( SCREEN_SPI, LCD_ID_WRITE_GRAM);
8000433c:	37 2b       	mov	r11,114
8000433e:	fe 7c 24 00 	mov	r12,-56320
80004342:	f0 1f 00 0c 	mcall	80004370 <_writeRAM+0x44>

	spi_write( SCREEN_SPI, (uint8_t)(data >> 8));
80004346:	f7 d7 c1 08 	bfextu	r11,r7,0x8,0x8
8000434a:	fe 7c 24 00 	mov	r12,-56320
8000434e:	f0 1f 00 09 	mcall	80004370 <_writeRAM+0x44>
	spi_write( SCREEN_SPI, (uint8_t)(data & 0x00ff));
80004352:	0e 9b       	mov	r11,r7
80004354:	5c 5b       	castu.b	r11
80004356:	fe 7c 24 00 	mov	r12,-56320
8000435a:	f0 1f 00 06 	mcall	80004370 <_writeRAM+0x44>
	spi_unselectChip(SCREEN_SPI, SCREEN_SPI_NPCS);
8000435e:	30 0b       	mov	r11,0
80004360:	fe 7c 24 00 	mov	r12,-56320
80004364:	f0 1f 00 04 	mcall	80004374 <_writeRAM+0x48>
}
80004368:	e3 cd 80 80 	ldm	sp++,r7,pc
8000436c:	80 00       	ld.sh	r0,r0[0x0]
8000436e:	2d 02       	sub	r2,-48
80004370:	80 00       	ld.sh	r0,r0[0x0]
80004372:	2e 32       	sub	r2,-29
80004374:	80 00       	ld.sh	r0,r0[0x0]
80004376:	2d 4e       	sub	lr,-44

80004378 <screen_SetPixels>:
	_selectRegister(R61580_DATA_WRITE);
	_writeRAM(color.value);
	spi_unselectChip(SCREEN_SPI,SCREEN_SPI_NPCS);
}

void screen_SetPixels(Rectangle rect, Color color){
80004378:	eb cd 40 d0 	pushm	r4,r6-r7,lr
8000437c:	20 3d       	sub	sp,12
8000437e:	fa c4 ff e4 	sub	r4,sp,-28
	rectangle_VerifySize(&rect, SCREEN_WIDTH, SCREEN_HEIGHT);
80004382:	e0 6a 00 f0 	mov	r10,240
80004386:	e0 6b 01 40 	mov	r11,320
8000438a:	08 9c       	mov	r12,r4
8000438c:	f0 1f 00 1b 	mcall	800043f8 <screen_SetPixels+0x80>

	_setLimits(rect);
80004390:	e8 e8 00 00 	ld.d	r8,r4[0]
80004394:	bb 29       	st.d	--sp,r8
80004396:	f0 1f 00 1a 	mcall	800043fc <screen_SetPixels+0x84>
	_setStart(rect.bottomLeft);
8000439a:	68 08       	ld.w	r8,r4[0x0]
8000439c:	1a d8       	st.w	--sp,r8
8000439e:	f0 1f 00 19 	mcall	80004400 <screen_SetPixels+0x88>

	_selectRegister(R61580_DATA_WRITE);
800043a2:	32 2c       	mov	r12,34
800043a4:	f0 1f 00 18 	mcall	80004404 <screen_SetPixels+0x8c>
	volatile c = rectangle_GetArea(rect);
800043a8:	e8 e8 00 00 	ld.d	r8,r4[0]
800043ac:	bb 29       	st.d	--sp,r8
800043ae:	f0 1f 00 17 	mcall	80004408 <screen_SetPixels+0x90>
800043b2:	50 5c       	stdsp	sp[0x14],r12
	for(uint32_t count = c; count > 0; count--){
800043b4:	40 57       	lddsp	r7,sp[0x14]
800043b6:	2f bd       	sub	sp,-20
800043b8:	58 07       	cp.w	r7,0
800043ba:	c0 70       	breq	800043c8 <screen_SetPixels+0x50>
		_writeRAM(color.value);
800043bc:	88 c6       	ld.uh	r6,r4[0x8]
800043be:	0c 9c       	mov	r12,r6
800043c0:	f0 1f 00 13 	mcall	8000440c <screen_SetPixels+0x94>
	_setLimits(rect);
	_setStart(rect.bottomLeft);

	_selectRegister(R61580_DATA_WRITE);
	volatile c = rectangle_GetArea(rect);
	for(uint32_t count = c; count > 0; count--){
800043c4:	20 17       	sub	r7,1
800043c6:	cf c1       	brne	800043be <screen_SetPixels+0x46>
		_writeRAM(color.value);
	}

	spi_unselectChip(SCREEN_SPI, SCREEN_SPI_NPCS);
800043c8:	30 0b       	mov	r11,0
800043ca:	fe 7c 24 00 	mov	r12,-56320
800043ce:	f0 1f 00 11 	mcall	80004410 <screen_SetPixels+0x98>
	
	_setLimits(Rect(0,0,SCREEN_WIDTH,SCREEN_HEIGHT));
800043d2:	e0 68 00 f0 	mov	r8,240
800043d6:	e0 69 01 40 	mov	r9,320
800043da:	30 0a       	mov	r10,0
800043dc:	14 9b       	mov	r11,r10
800043de:	fa cc ff fc 	sub	r12,sp,-4
800043e2:	f0 1f 00 0d 	mcall	80004414 <screen_SetPixels+0x9c>
800043e6:	fa e8 00 04 	ld.d	r8,sp[4]
800043ea:	bb 29       	st.d	--sp,r8
800043ec:	f0 1f 00 04 	mcall	800043fc <screen_SetPixels+0x84>
800043f0:	2f ed       	sub	sp,-8
}
800043f2:	2f dd       	sub	sp,-12
800043f4:	e3 cd 80 d0 	ldm	sp++,r4,r6-r7,pc
800043f8:	80 00       	ld.sh	r0,r0[0x0]
800043fa:	41 da       	lddsp	r10,sp[0x74]
800043fc:	80 00       	ld.sh	r0,r0[0x0]
800043fe:	42 b4       	lddsp	r4,sp[0xac]
80004400:	80 00       	ld.sh	r0,r0[0x0]
80004402:	42 94       	lddsp	r4,sp[0xa4]
80004404:	80 00       	ld.sh	r0,r0[0x0]
80004406:	42 e4       	lddsp	r4,sp[0xb8]
80004408:	80 00       	ld.sh	r0,r0[0x0]
8000440a:	41 b0       	lddsp	r0,sp[0x6c]
8000440c:	80 00       	ld.sh	r0,r0[0x0]
8000440e:	43 2c       	lddsp	r12,sp[0xc8]
80004410:	80 00       	ld.sh	r0,r0[0x0]
80004412:	2d 4e       	sub	lr,-44
80004414:	80 00       	ld.sh	r0,r0[0x0]
80004416:	42 04       	lddsp	r4,sp[0x80]

80004418 <screen_SetPixel>:
void screen_TouchZone(Rectangle rect, void *callback(void)){


}

void screen_SetPixel(Vector2 position, Color color){
80004418:	eb cd 40 10 	pushm	r4,lr
8000441c:	fa c4 ff f8 	sub	r4,sp,-8
	_setStart(position);
80004420:	68 08       	ld.w	r8,r4[0x0]
80004422:	1a d8       	st.w	--sp,r8
80004424:	f0 1f 00 08 	mcall	80004444 <screen_SetPixel+0x2c>
	_selectRegister(R61580_DATA_WRITE);
80004428:	32 2c       	mov	r12,34
8000442a:	f0 1f 00 08 	mcall	80004448 <screen_SetPixel+0x30>
	_writeRAM(color.value);
8000442e:	88 ac       	ld.uh	r12,r4[0x4]
80004430:	f0 1f 00 07 	mcall	8000444c <screen_SetPixel+0x34>
	spi_unselectChip(SCREEN_SPI,SCREEN_SPI_NPCS);
80004434:	30 0b       	mov	r11,0
80004436:	fe 7c 24 00 	mov	r12,-56320
8000443a:	f0 1f 00 06 	mcall	80004450 <screen_SetPixel+0x38>
8000443e:	2f fd       	sub	sp,-4
}
80004440:	e3 cd 80 10 	ldm	sp++,r4,pc
80004444:	80 00       	ld.sh	r0,r0[0x0]
80004446:	42 94       	lddsp	r4,sp[0xa4]
80004448:	80 00       	ld.sh	r0,r0[0x0]
8000444a:	42 e4       	lddsp	r4,sp[0xb8]
8000444c:	80 00       	ld.sh	r0,r0[0x0]
8000444e:	43 2c       	lddsp	r12,sp[0xc8]
80004450:	80 00       	ld.sh	r0,r0[0x0]
80004452:	2d 4e       	sub	lr,-44

80004454 <screen_Init>:

static void _powerUp();
static void _reset();
static void _setPWM();

void screen_Init(){
80004454:	eb cd 40 80 	pushm	r7,lr
80004458:	21 8d       	sub	sp,96
	{
		{PIN_SCK_SPI0,  FCT_SCK_SPI0 },			// SPI Clock.
		{PIN_MISO_SPI0, FCT_MISO_SPI0},			// MISO.
		{PIN_MOSI_SPI0, FCT_MOSI_SPI0},			// MOSI.
		{PIN_NPCS_TFT,  FCT_NPCS_TFT}			// Chip Select NPCS0 pour l'cran TFT.
	};
8000445a:	fe f8 03 a2 	ld.w	r8,pc[930]
8000445e:	fa cc ff c0 	sub	r12,sp,-64
80004462:	f0 ea 00 00 	ld.d	r10,r8[0]
80004466:	f8 eb 00 00 	st.d	r12[0],r10
8000446a:	f0 ea 00 08 	ld.d	r10,r8[8]
8000446e:	f8 eb 00 08 	st.d	r12[8],r10
80004472:	f0 ea 00 10 	ld.d	r10,r8[16]
80004476:	f8 eb 00 10 	st.d	r12[16],r10
8000447a:	f0 e8 00 18 	ld.d	r8,r8[24]
8000447e:	f8 e9 00 18 	st.d	r12[24],r8
		.spck_delay		= 	1,					// Delay entre CS et SPCK.
		.trans_delay	= 	0,					// Delay entre deux transfert.
		.stay_act		=	1,					// ?
		.spi_mode		= 	3,					// ?
		.modfdis		=	1					// ?
	};
80004482:	fe f8 03 7e 	ld.w	r8,pc[894]
80004486:	fa c7 ff d0 	sub	r7,sp,-48
8000448a:	f0 ea 00 00 	ld.d	r10,r8[0]
8000448e:	ee eb 00 00 	st.d	r7[0],r10
80004492:	f0 e8 00 08 	ld.d	r8,r8[8]
80004496:	ee e9 00 08 	st.d	r7[8],r8

	// Assign I/Os to SPI.
	gpio_enable_module(screenGPIO, sizeof(screenGPIO) / sizeof(screenGPIO[0]));
8000449a:	30 4b       	mov	r11,4
8000449c:	f0 1f 00 da 	mcall	80004804 <screen_Init+0x3b0>
	// Initialize as master.
	spi_initMaster(AVR32_SPI0_ADDRESS, &screenOptions);
800044a0:	0e 9b       	mov	r11,r7
800044a2:	fe 7c 24 00 	mov	r12,-56320
800044a6:	f0 1f 00 d9 	mcall	80004808 <screen_Init+0x3b4>
	// Enable SPI module.
	spi_enable(AVR32_SPI0_ADDRESS);
800044aa:	fe 7c 24 00 	mov	r12,-56320
800044ae:	f0 1f 00 d8 	mcall	8000480c <screen_Init+0x3b8>
	// Initialize SD/MMC driver with SPI clock (PBA).
	spi_setupChipReg(AVR32_SPI0_ADDRESS, &screenOptions, BOARD_OSC0_HZ);
800044b2:	e0 6a 90 00 	mov	r10,36864
800044b6:	ea 1a 03 d0 	orh	r10,0x3d0
800044ba:	0e 9b       	mov	r11,r7
800044bc:	fe 7c 24 00 	mov	r12,-56320
800044c0:	f0 1f 00 d4 	mcall	80004810 <screen_Init+0x3bc>
	_writeRegister(R61580_ADD_VSA, rect.bottomLeft.x);
	_writeRegister(R61580_ADD_VEA, rect.topRight.x);
}

static void _reset(){
	gpio_clr_gpio_pin(PIN_RESET_TFT);
800044c4:	30 ec       	mov	r12,14
800044c6:	f0 1f 00 d4 	mcall	80004814 <screen_Init+0x3c0>
 * \param  delay:   (input) delay in CPU cycles before timeout.
 * \param  cpu_time: (output) internal information used by the timer API.
 */
__always_inline static void cpu_set_timeout(unsigned long delay, t_cpu_time *cpu_time)
{
  cpu_time->delay_start_cycle = Get_system_register(AVR32_COUNT);
800044ca:	e1 b8 00 42 	mfsr	r8,0x108
  cpu_time->delay_end_cycle   = cpu_time->delay_start_cycle + delay;
800044ce:	e0 6a a8 00 	mov	r10,43008
800044d2:	ea 1a 00 61 	orh	r10,0x61
800044d6:	f0 0a 00 0a 	add	r10,r8,r10
 *
 * \return true if timeout occurred, otherwise false.
 */
__always_inline static unsigned long cpu_is_timeout(t_cpu_time *cpu_time)
{
  unsigned long current_cycle_count = Get_system_register(AVR32_COUNT);
800044da:	e1 b9 00 42 	mfsr	r9,0x108
  // Test if the timeout as already occurred.
  else if (cpu_time->timer_state == CPU_TIMER_STATE_REACHED)
    return true;

  // If the ending cycle count of this timeout is wrapped, ...
  else if (cpu_time->delay_start_cycle > cpu_time->delay_end_cycle)
800044de:	14 38       	cp.w	r8,r10
800044e0:	e0 88 00 08 	brls	800044f0 <screen_Init+0x9c>
  {
    if (current_cycle_count < cpu_time->delay_start_cycle && current_cycle_count > cpu_time->delay_end_cycle)
800044e4:	12 38       	cp.w	r8,r9
800044e6:	fe 98 ff fa 	brls	800044da <screen_Init+0x86>
800044ea:	12 3a       	cp.w	r10,r9
800044ec:	c4 e3       	brcs	80004588 <screen_Init+0x134>
800044ee:	cf 6b       	rjmp	800044da <screen_Init+0x86>
    }
    return false;
  }
  else
  {
    if (current_cycle_count < cpu_time->delay_start_cycle || current_cycle_count > cpu_time->delay_end_cycle)
800044f0:	12 38       	cp.w	r8,r9
800044f2:	e0 8b 00 4b 	brhi	80004588 <screen_Init+0x134>
800044f6:	12 3a       	cp.w	r10,r9
800044f8:	c4 83       	brcs	80004588 <screen_Init+0x134>
800044fa:	cf 0b       	rjmp	800044da <screen_Init+0x86>
 *
 * \return true if timeout occurred, otherwise false.
 */
__always_inline static unsigned long cpu_is_timeout(t_cpu_time *cpu_time)
{
  unsigned long current_cycle_count = Get_system_register(AVR32_COUNT);
800044fc:	e1 b9 00 42 	mfsr	r9,0x108
  // Test if the timeout as already occurred.
  else if (cpu_time->timer_state == CPU_TIMER_STATE_REACHED)
    return true;

  // If the ending cycle count of this timeout is wrapped, ...
  else if (cpu_time->delay_start_cycle > cpu_time->delay_end_cycle)
80004500:	14 38       	cp.w	r8,r10
80004502:	e0 88 00 08 	brls	80004512 <screen_Init+0xbe>
  {
    if (current_cycle_count < cpu_time->delay_start_cycle && current_cycle_count > cpu_time->delay_end_cycle)
80004506:	12 38       	cp.w	r8,r9
80004508:	fe 98 ff fa 	brls	800044fc <screen_Init+0xa8>
8000450c:	12 3a       	cp.w	r10,r9
8000450e:	c4 73       	brcs	8000459c <screen_Init+0x148>
80004510:	cf 6b       	rjmp	800044fc <screen_Init+0xa8>
    }
    return false;
  }
  else
  {
    if (current_cycle_count < cpu_time->delay_start_cycle || current_cycle_count > cpu_time->delay_end_cycle)
80004512:	12 38       	cp.w	r8,r9
80004514:	e0 8b 00 44 	brhi	8000459c <screen_Init+0x148>
80004518:	12 3a       	cp.w	r10,r9
8000451a:	c4 13       	brcs	8000459c <screen_Init+0x148>
8000451c:	cf 0b       	rjmp	800044fc <screen_Init+0xa8>
 *
 * \return true if timeout occurred, otherwise false.
 */
__always_inline static unsigned long cpu_is_timeout(t_cpu_time *cpu_time)
{
  unsigned long current_cycle_count = Get_system_register(AVR32_COUNT);
8000451e:	e1 b9 00 42 	mfsr	r9,0x108
  // Test if the timeout as already occurred.
  else if (cpu_time->timer_state == CPU_TIMER_STATE_REACHED)
    return true;

  // If the ending cycle count of this timeout is wrapped, ...
  else if (cpu_time->delay_start_cycle > cpu_time->delay_end_cycle)
80004522:	14 38       	cp.w	r8,r10
80004524:	e0 88 00 08 	brls	80004534 <screen_Init+0xe0>
  {
    if (current_cycle_count < cpu_time->delay_start_cycle && current_cycle_count > cpu_time->delay_end_cycle)
80004528:	12 38       	cp.w	r8,r9
8000452a:	fe 98 ff fa 	brls	8000451e <screen_Init+0xca>
8000452e:	12 3a       	cp.w	r10,r9
80004530:	c4 73       	brcs	800045be <screen_Init+0x16a>
80004532:	cf 6b       	rjmp	8000451e <screen_Init+0xca>
    }
    return false;
  }
  else
  {
    if (current_cycle_count < cpu_time->delay_start_cycle || current_cycle_count > cpu_time->delay_end_cycle)
80004534:	12 38       	cp.w	r8,r9
80004536:	e0 8b 00 44 	brhi	800045be <screen_Init+0x16a>
8000453a:	12 3a       	cp.w	r10,r9
8000453c:	c4 13       	brcs	800045be <screen_Init+0x16a>
8000453e:	cf 0b       	rjmp	8000451e <screen_Init+0xca>
 *
 * \return true if timeout occurred, otherwise false.
 */
__always_inline static unsigned long cpu_is_timeout(t_cpu_time *cpu_time)
{
  unsigned long current_cycle_count = Get_system_register(AVR32_COUNT);
80004540:	e1 b9 00 42 	mfsr	r9,0x108
  // Test if the timeout as already occurred.
  else if (cpu_time->timer_state == CPU_TIMER_STATE_REACHED)
    return true;

  // If the ending cycle count of this timeout is wrapped, ...
  else if (cpu_time->delay_start_cycle > cpu_time->delay_end_cycle)
80004544:	14 38       	cp.w	r8,r10
80004546:	e0 88 00 08 	brls	80004556 <screen_Init+0x102>
  {
    if (current_cycle_count < cpu_time->delay_start_cycle && current_cycle_count > cpu_time->delay_end_cycle)
8000454a:	12 38       	cp.w	r8,r9
8000454c:	fe 98 ff fa 	brls	80004540 <screen_Init+0xec>
80004550:	12 3a       	cp.w	r10,r9
80004552:	c5 43       	brcs	800045fa <screen_Init+0x1a6>
80004554:	cf 6b       	rjmp	80004540 <screen_Init+0xec>
    }
    return false;
  }
  else
  {
    if (current_cycle_count < cpu_time->delay_start_cycle || current_cycle_count > cpu_time->delay_end_cycle)
80004556:	12 38       	cp.w	r8,r9
80004558:	e0 8b 00 51 	brhi	800045fa <screen_Init+0x1a6>
8000455c:	12 3a       	cp.w	r10,r9
8000455e:	c4 e3       	brcs	800045fa <screen_Init+0x1a6>
80004560:	cf 0b       	rjmp	80004540 <screen_Init+0xec>
 *
 * \return true if timeout occurred, otherwise false.
 */
__always_inline static unsigned long cpu_is_timeout(t_cpu_time *cpu_time)
{
  unsigned long current_cycle_count = Get_system_register(AVR32_COUNT);
80004562:	e1 b9 00 42 	mfsr	r9,0x108
  // Test if the timeout as already occurred.
  else if (cpu_time->timer_state == CPU_TIMER_STATE_REACHED)
    return true;

  // If the ending cycle count of this timeout is wrapped, ...
  else if (cpu_time->delay_start_cycle > cpu_time->delay_end_cycle)
80004566:	14 38       	cp.w	r8,r10
80004568:	e0 88 00 09 	brls	8000457a <screen_Init+0x126>
  {
    if (current_cycle_count < cpu_time->delay_start_cycle && current_cycle_count > cpu_time->delay_end_cycle)
8000456c:	12 38       	cp.w	r8,r9
8000456e:	fe 98 ff fa 	brls	80004562 <screen_Init+0x10e>
80004572:	12 3a       	cp.w	r10,r9
80004574:	e0 83 00 a0 	brlo	800046b4 <screen_Init+0x260>
80004578:	cf 5b       	rjmp	80004562 <screen_Init+0x10e>
    }
    return false;
  }
  else
  {
    if (current_cycle_count < cpu_time->delay_start_cycle || current_cycle_count > cpu_time->delay_end_cycle)
8000457a:	12 38       	cp.w	r8,r9
8000457c:	e0 8b 00 9c 	brhi	800046b4 <screen_Init+0x260>
80004580:	12 3a       	cp.w	r10,r9
80004582:	e0 83 00 99 	brlo	800046b4 <screen_Init+0x260>
80004586:	ce eb       	rjmp	80004562 <screen_Init+0x10e>
	// 50us delay
	cpu_delay_ms( 100, BOARD_OSC0_HZ);

	gpio_set_gpio_pin(PIN_RESET_TFT);
80004588:	30 ec       	mov	r12,14
8000458a:	f0 1f 00 a4 	mcall	80004818 <screen_Init+0x3c4>
 * \param  delay:   (input) delay in CPU cycles before timeout.
 * \param  cpu_time: (output) internal information used by the timer API.
 */
__always_inline static void cpu_set_timeout(unsigned long delay, t_cpu_time *cpu_time)
{
  cpu_time->delay_start_cycle = Get_system_register(AVR32_COUNT);
8000458e:	e1 b8 00 42 	mfsr	r8,0x108
  cpu_time->delay_end_cycle   = cpu_time->delay_start_cycle + delay;
80004592:	e4 69 e2 00 	mov	r9,320000
80004596:	f0 09 00 0a 	add	r10,r8,r9
8000459a:	cb 1b       	rjmp	800044fc <screen_Init+0xa8>
	{
		ID = _readRegister(0x00);
	}
	
	// Synchronization after reset
	_writeRegister(R61580_DEVICE_CODE, 0x0000);
8000459c:	30 0b       	mov	r11,0
8000459e:	16 9c       	mov	r12,r11
800045a0:	f0 1f 00 9f 	mcall	8000481c <screen_Init+0x3c8>
	_writeRegister(R61580_DEVICE_CODE, 0x0000);
800045a4:	30 0b       	mov	r11,0
800045a6:	16 9c       	mov	r12,r11
800045a8:	f0 1f 00 9d 	mcall	8000481c <screen_Init+0x3c8>
 * \param  delay:   (input) delay in CPU cycles before timeout.
 * \param  cpu_time: (output) internal information used by the timer API.
 */
__always_inline static void cpu_set_timeout(unsigned long delay, t_cpu_time *cpu_time)
{
  cpu_time->delay_start_cycle = Get_system_register(AVR32_COUNT);
800045ac:	e1 b8 00 42 	mfsr	r8,0x108
  cpu_time->delay_end_cycle   = cpu_time->delay_start_cycle + delay;
800045b0:	e0 6a a8 00 	mov	r10,43008
800045b4:	ea 1a 00 61 	orh	r10,0x61
800045b8:	f0 0a 00 0a 	add	r10,r8,r10
800045bc:	cb 1b       	rjmp	8000451e <screen_Init+0xca>
	cpu_delay_ms(100, BOARD_OSC0_HZ);
	
	_writeRegister(R61580_DEVICE_CODE, 0x0000);
800045be:	30 0b       	mov	r11,0
800045c0:	16 9c       	mov	r12,r11
800045c2:	f0 1f 00 97 	mcall	8000481c <screen_Init+0x3c8>
	_writeRegister(R61580_DEVICE_CODE, 0x0000);
800045c6:	30 0b       	mov	r11,0
800045c8:	16 9c       	mov	r12,r11
800045ca:	f0 1f 00 95 	mcall	8000481c <screen_Init+0x3c8>
	_writeRegister(R61580_DEVICE_CODE, 0x0000);
800045ce:	30 0b       	mov	r11,0
800045d0:	16 9c       	mov	r12,r11
800045d2:	f0 1f 00 93 	mcall	8000481c <screen_Init+0x3c8>
	_writeRegister(R61580_DEVICE_CODE, 0x0000);
800045d6:	30 0b       	mov	r11,0
800045d8:	16 9c       	mov	r12,r11
800045da:	f0 1f 00 91 	mcall	8000481c <screen_Init+0x3c8>
	// Setup display
	_writeRegister(R61580_NVM_CONTROL, (uint16_t) (1 << CALB));	// CALB=1
800045de:	30 1b       	mov	r11,1
800045e0:	e0 6c 00 a4 	mov	r12,164
800045e4:	f0 1f 00 8e 	mcall	8000481c <screen_Init+0x3c8>
 * \param  delay:   (input) delay in CPU cycles before timeout.
 * \param  cpu_time: (output) internal information used by the timer API.
 */
__always_inline static void cpu_set_timeout(unsigned long delay, t_cpu_time *cpu_time)
{
  cpu_time->delay_start_cycle = Get_system_register(AVR32_COUNT);
800045e8:	e1 b8 00 42 	mfsr	r8,0x108
  cpu_time->delay_end_cycle   = cpu_time->delay_start_cycle + delay;
800045ec:	e0 6a a8 00 	mov	r10,43008
800045f0:	ea 1a 00 61 	orh	r10,0x61
800045f4:	f0 0a 00 0a 	add	r10,r8,r10
800045f8:	ca 4b       	rjmp	80004540 <screen_Init+0xec>
	
	cpu_delay_ms(100, BOARD_OSC0_HZ);
	_writeRegister(R61580_DRIVER_OUTPUT, 0xA700);		// Driver Output Control
800045fa:	e0 6b a7 00 	mov	r11,42752
800045fe:	36 0c       	mov	r12,96
80004600:	f0 1f 00 87 	mcall	8000481c <screen_Init+0x3c8>
	_writeRegister(R61580_DISPLAY_CONTROL2, 0x0808);		// Display Control BP=8, FP=8
80004604:	e0 6b 08 08 	mov	r11,2056
80004608:	30 8c       	mov	r12,8
8000460a:	f0 1f 00 85 	mcall	8000481c <screen_Init+0x3c8>
	
	//Gamma Setting:
	_writeRegister(R61580_Y_CONTROL0, 0x0203);		// y control
8000460e:	e0 6b 02 03 	mov	r11,515
80004612:	33 0c       	mov	r12,48
80004614:	f0 1f 00 82 	mcall	8000481c <screen_Init+0x3c8>
	_writeRegister(R61580_Y_CONTROL1, 0x080F);		// y control
80004618:	e0 6b 08 0f 	mov	r11,2063
8000461c:	33 1c       	mov	r12,49
8000461e:	f0 1f 00 80 	mcall	8000481c <screen_Init+0x3c8>
	_writeRegister(R61580_Y_CONTROL2, 0x0401);		// y control
80004622:	e0 6b 04 01 	mov	r11,1025
80004626:	33 2c       	mov	r12,50
80004628:	f0 1f 00 7d 	mcall	8000481c <screen_Init+0x3c8>
	_writeRegister(R61580_Y_CONTROL3, 0x050B);		// y control
8000462c:	e0 6b 05 0b 	mov	r11,1291
80004630:	33 3c       	mov	r12,51
80004632:	f0 1f 00 7b 	mcall	8000481c <screen_Init+0x3c8>
	_writeRegister(R61580_Y_CONTROL4, 0x3330);		// y control
80004636:	e0 6b 33 30 	mov	r11,13104
8000463a:	33 4c       	mov	r12,52
8000463c:	f0 1f 00 78 	mcall	8000481c <screen_Init+0x3c8>
	_writeRegister(R61580_Y_CONTROL5, 0x0B05);		// y control
80004640:	e0 6b 0b 05 	mov	r11,2821
80004644:	33 5c       	mov	r12,53
80004646:	f0 1f 00 76 	mcall	8000481c <screen_Init+0x3c8>
	_writeRegister(R61580_Y_CONTROL6, 0x0005);		// y control
8000464a:	30 5b       	mov	r11,5
8000464c:	33 6c       	mov	r12,54
8000464e:	f0 1f 00 74 	mcall	8000481c <screen_Init+0x3c8>
	_writeRegister(R61580_Y_CONTROL7, 0x0F08);		// y control
80004652:	e0 6b 0f 08 	mov	r11,3848
80004656:	33 7c       	mov	r12,55
80004658:	f0 1f 00 71 	mcall	8000481c <screen_Init+0x3c8>
	_writeRegister(R61580_Y_CONTROL8, 0x0302);		// y control
8000465c:	e0 6b 03 02 	mov	r11,770
80004660:	33 8c       	mov	r12,56
80004662:	f0 1f 00 6f 	mcall	8000481c <screen_Init+0x3c8>
	_writeRegister(R61580_Y_CONTROL9, 0x3033);		// y control
80004666:	e0 6b 30 33 	mov	r11,12339
8000466a:	33 9c       	mov	r12,57
8000466c:	f0 1f 00 6c 	mcall	8000481c <screen_Init+0x3c8>
	
	//Power Setting:
	
	_writeRegister(R61580_PANEL_CONTROL1, 0x0018);	// 80Hz
80004670:	31 8b       	mov	r11,24
80004672:	e0 6c 00 90 	mov	r12,144
80004676:	f0 1f 00 6a 	mcall	8000481c <screen_Init+0x3c8>
	_writeRegister(R61580_POWER_CONTROL1, 0x0530);	// Power Control
8000467a:	e0 6b 05 30 	mov	r11,1328
8000467e:	31 0c       	mov	r12,16
80004680:	f0 1f 00 67 	mcall	8000481c <screen_Init+0x3c8>
	_writeRegister(R61580_POWER_CONTROL2, 0x0237);
80004684:	e0 6b 02 37 	mov	r11,567
80004688:	31 1c       	mov	r12,17
8000468a:	f0 1f 00 65 	mcall	8000481c <screen_Init+0x3c8>
	_writeRegister(R61580_POWER_CONTROL3, 0x01BF);
8000468e:	e0 6b 01 bf 	mov	r11,447
80004692:	31 2c       	mov	r12,18
80004694:	f0 1f 00 62 	mcall	8000481c <screen_Init+0x3c8>
	_writeRegister(R61580_POWER_CONTROL4, 0x1000);
80004698:	e0 6b 10 00 	mov	r11,4096
8000469c:	31 3c       	mov	r12,19
8000469e:	f0 1f 00 60 	mcall	8000481c <screen_Init+0x3c8>
 * \param  delay:   (input) delay in CPU cycles before timeout.
 * \param  cpu_time: (output) internal information used by the timer API.
 */
__always_inline static void cpu_set_timeout(unsigned long delay, t_cpu_time *cpu_time)
{
  cpu_time->delay_start_cycle = Get_system_register(AVR32_COUNT);
800046a2:	e1 b8 00 42 	mfsr	r8,0x108
  cpu_time->delay_end_cycle   = cpu_time->delay_start_cycle + delay;
800046a6:	e0 6a 50 00 	mov	r10,20480
800046aa:	ea 1a 00 c3 	orh	r10,0xc3
800046ae:	f0 0a 00 0a 	add	r10,r8,r10
800046b2:	c5 8b       	rjmp	80004562 <screen_Init+0x10e>
	
	cpu_delay_ms(200, BOARD_OSC0_HZ);

	_writeRegister(R61580_DRIVER_CONTROL, 0x0000  | (1 << SS));
800046b4:	e0 6b 01 00 	mov	r11,256
800046b8:	30 1c       	mov	r12,1
800046ba:	f0 1f 00 59 	mcall	8000481c <screen_Init+0x3c8>
	_writeRegister(R61580_WAVE_CONTROL, 0x0200);
800046be:	e0 6b 02 00 	mov	r11,512
800046c2:	30 2c       	mov	r12,2
800046c4:	f0 1f 00 56 	mcall	8000481c <screen_Init+0x3c8>
	//_write(R61580_ENTRY_MODE, 0x0000 | (1 << ORG) | (1 << ID0) | (1 << AM));
	_writeRegister(R61580_ENTRY_MODE, 0x0000 | (1 << ID1) | (1 << ID0));
800046c8:	33 0b       	mov	r11,48
800046ca:	30 3c       	mov	r12,3
800046cc:	f0 1f 00 54 	mcall	8000481c <screen_Init+0x3c8>
	_write(R61580_ENTRY_MODE, 0x0000 | (1 << ID0) | (1 << AM));
	#else
	_write(R61580_ENTRY_MODE, 0x0000 | (1 << ID1) | (1 << ID0));
	#endif*/
	
	_writeRegister(R61580_DISPLAY_CONTROL3, 0x0001);		//Scan Cycle
800046d0:	30 1b       	mov	r11,1
800046d2:	30 9c       	mov	r12,9
800046d4:	f0 1f 00 52 	mcall	8000481c <screen_Init+0x3c8>
	_writeRegister(R61580_DISPLAY_CONTROL4, 0x0008);		//Sets output interval FMARK
800046d8:	30 8b       	mov	r11,8
800046da:	30 ac       	mov	r12,10
800046dc:	f0 1f 00 50 	mcall	8000481c <screen_Init+0x3c8>
	_writeRegister(R61580_INTERFACE_CONTROL1, 0x0000);	//Sets the interface format
800046e0:	30 0b       	mov	r11,0
800046e2:	30 cc       	mov	r12,12
800046e4:	f0 1f 00 4e 	mcall	8000481c <screen_Init+0x3c8>
	_writeRegister(R61580_MARKER_POSITION, 0xD000);		//Sets the output position
800046e8:	e0 6b d0 00 	mov	r11,53248
800046ec:	30 dc       	mov	r12,13
800046ee:	f0 1f 00 4c 	mcall	8000481c <screen_Init+0x3c8>
	
	_writeRegister(R61580_VCOM, 0x0030);					//Sets equalize function control bit
800046f2:	33 0b       	mov	r11,48
800046f4:	30 ec       	mov	r12,14
800046f6:	f0 1f 00 4a 	mcall	8000481c <screen_Init+0x3c8>
	_writeRegister(R61580_INTEFACE_CONTROL2, 0x0000);	//Sets the signal polarity
800046fa:	30 0b       	mov	r11,0
800046fc:	30 fc       	mov	r12,15
800046fe:	f0 1f 00 48 	mcall	8000481c <screen_Init+0x3c8>
	_writeRegister(R61580_ADDRESS_HORIZONTAL, 0);
80004702:	30 0b       	mov	r11,0
80004704:	32 0c       	mov	r12,32
80004706:	f0 1f 00 46 	mcall	8000481c <screen_Init+0x3c8>
	_writeRegister(R61580_ADDRESS_VERTICAL, 0);			//A frame memory address Set
8000470a:	30 0b       	mov	r11,0
8000470c:	32 1c       	mov	r12,33
8000470e:	f0 1f 00 44 	mcall	8000481c <screen_Init+0x3c8>
	
	_writeRegister(R61580_NVM_READ2, 0x002E);			// Selects the factor of VREG1OUT 0x77
80004712:	32 eb       	mov	r11,46
80004714:	32 9c       	mov	r12,41
80004716:	f0 1f 00 42 	mcall	8000481c <screen_Init+0x3c8>
	
	_writeRegister(R61580_ADD_HSA, 0);				// Adresse window Horizontal frame Address (Start Address)
8000471a:	30 0b       	mov	r11,0
8000471c:	35 0c       	mov	r12,80
8000471e:	f0 1f 00 40 	mcall	8000481c <screen_Init+0x3c8>
	_writeRegister(R61580_ADD_HEA, SCREEN_HEIGHT);		// Adresse window Horizontal frame Address (End Address)
80004722:	e0 6b 00 f0 	mov	r11,240
80004726:	35 1c       	mov	r12,81
80004728:	f0 1f 00 3d 	mcall	8000481c <screen_Init+0x3c8>
	_writeRegister(R61580_ADD_VEA, 0);				// Adresse window Vertical frame Address (Start Address)
8000472c:	30 0b       	mov	r11,0
8000472e:	35 2c       	mov	r12,82
80004730:	f0 1f 00 3b 	mcall	8000481c <screen_Init+0x3c8>
	_writeRegister(R61580_ADD_VSA, SCREEN_WIDTH);		// Adresse window Vertical frame Address (End Address)
80004734:	e0 6b 01 40 	mov	r11,320
80004738:	35 2c       	mov	r12,82
8000473a:	f0 1f 00 39 	mcall	8000481c <screen_Init+0x3c8>
	
	
	_writeRegister(R61580_BASE_IMAGE, (uint16_t) (1 << REV));	// Base image Display Control
8000473e:	30 1b       	mov	r11,1
80004740:	36 1c       	mov	r12,97
80004742:	f0 1f 00 37 	mcall	8000481c <screen_Init+0x3c8>
	_writeRegister(R61580_SCROLL_VERTICAL, 0x0000);
80004746:	30 0b       	mov	r11,0
80004748:	36 ac       	mov	r12,106
8000474a:	f0 1f 00 35 	mcall	8000481c <screen_Init+0x3c8>
	
	_writeRegister(R61580_PARTIAL_DISPLAY, 0x0000);		// Sets the display position of partial image
8000474e:	30 0b       	mov	r11,0
80004750:	e0 6c 00 80 	mov	r12,128
80004754:	f0 1f 00 32 	mcall	8000481c <screen_Init+0x3c8>
	_writeRegister(R61580_PARTIAL_FRAME1, 0x0000);		// Sets the start Line Address
80004758:	30 0b       	mov	r11,0
8000475a:	e0 6c 00 81 	mov	r12,129
8000475e:	f0 1f 00 30 	mcall	8000481c <screen_Init+0x3c8>
	_writeRegister(R61580_PARTIAL_FRAME2, 0x005F);		// Sets the end Line Address
80004762:	35 fb       	mov	r11,95
80004764:	e0 6c 00 82 	mov	r12,130
80004768:	f0 1f 00 2d 	mcall	8000481c <screen_Init+0x3c8>
	_writeRegister(R61580_PANEL_CONTROL3, 0x0701);		// Sets VCOM equalize period
8000476c:	e0 6b 07 01 	mov	r11,1793
80004770:	e0 6c 00 93 	mov	r12,147
80004774:	f0 1f 00 2a 	mcall	8000481c <screen_Init+0x3c8>
	
	_writeRegister(R61580_DISPLAY_CONTROL1, 0x0100);		//Display Control 1
80004778:	e0 6b 01 00 	mov	r11,256
8000477c:	30 7c       	mov	r12,7
8000477e:	f0 1f 00 28 	mcall	8000481c <screen_Init+0x3c8>
	{
		.diva = AVR32_PWM_DIVA_CLK_OFF,
		.divb = AVR32_PWM_DIVB_CLK_OFF,
		.prea = AVR32_PWM_PREA_MCK,
		.preb = AVR32_PWM_PREB_MCK
	};
80004782:	30 08       	mov	r8,0
80004784:	50 88       	stdsp	sp[0x20],r8
80004786:	50 98       	stdsp	sp[0x24],r8
80004788:	50 a8       	stdsp	sp[0x28],r8
8000478a:	50 b8       	stdsp	sp[0x2c],r8
		
	volatile avr32_pwm_channel_t pwm_channel = { .ccnt = 0 };
8000478c:	30 0a       	mov	r10,0
8000478e:	30 0b       	mov	r11,0
80004790:	fa eb 00 00 	st.d	sp[0],r10
80004794:	fa c9 ff f8 	sub	r9,sp,-8
80004798:	f2 eb 00 00 	st.d	r9[0],r10
8000479c:	fa c9 ff f0 	sub	r9,sp,-16
800047a0:	f2 eb 00 00 	st.d	r9[0],r10
800047a4:	fa c9 ff e8 	sub	r9,sp,-24
800047a8:	f2 eb 00 00 	st.d	r9[0],r10

	// With these settings, the output waveform period will be:
	// (115200/256)/20 == 22.5Hz == (MCK/prescaler)/period, with
	// MCK == 115200Hz, prescaler == 256, period == 20. 

	pwm_channel.cdty = 1; // Channel duty cycle, should be < CPRD. 
800047ac:	30 1b       	mov	r11,1
800047ae:	50 1b       	stdsp	sp[0x4],r11
	pwm_channel.cprd = 20; // Channel period. 
800047b0:	31 49       	mov	r9,20
800047b2:	50 29       	stdsp	sp[0x8],r9
	pwm_channel.cupd = 0; // Channel update is not used here. 
800047b4:	50 48       	stdsp	sp[0x10],r8
	pwm_channel.CMR.calg = PWM_MODE_LEFT_ALIGNED; // Channel mode. 
800047b6:	40 09       	lddsp	r9,sp[0x0]
800047b8:	f3 d8 d1 01 	bfins	r9,r8,0x8,0x1
800047bc:	50 09       	stdsp	sp[0x0],r9
	pwm_channel.CMR.cpol = PWM_POLARITY_LOW;      // Channel polarity. 
800047be:	40 09       	lddsp	r9,sp[0x0]
800047c0:	f3 d8 d1 21 	bfins	r9,r8,0x9,0x1
800047c4:	50 09       	stdsp	sp[0x0],r9
	pwm_channel.CMR.cpd = PWM_UPDATE_DUTY;        // Not used the first time. 
800047c6:	40 09       	lddsp	r9,sp[0x0]
800047c8:	f3 d8 d1 41 	bfins	r9,r8,0xa,0x1
800047cc:	50 09       	stdsp	sp[0x0],r9
	pwm_channel.CMR.cpre = AVR32_PWM_CPRE_MCK_DIV_32; // Channel prescaler. 
800047ce:	40 08       	lddsp	r8,sp[0x0]
800047d0:	30 57       	mov	r7,5
800047d2:	f1 d7 d0 04 	bfins	r8,r7,0x0,0x4
800047d6:	50 08       	stdsp	sp[0x0],r8
	
	// Enable the alternative mode of the output pin to connect it to the PWM
	// module within the device. 
	gpio_enable_module_pin(PIN_PWM_TFT, FCT_PWM_TFT);
800047d8:	33 cc       	mov	r12,60
800047da:	f0 1f 00 12 	mcall	80004820 <screen_Init+0x3cc>

	// Initialize the PWM module. 
	pwm_init(&pwm_opt);
800047de:	fa cc ff e0 	sub	r12,sp,-32
800047e2:	f0 1f 00 11 	mcall	80004824 <screen_Init+0x3d0>

	// Set channel configuration to channel 0. 
	pwm_channel_init(5, &pwm_channel);
800047e6:	1a 9b       	mov	r11,sp
800047e8:	0e 9c       	mov	r12,r7
800047ea:	f0 1f 00 10 	mcall	80004828 <screen_Init+0x3d4>

	// Start channel 0. 
	pwm_start_channels(1 << 5);
800047ee:	32 0c       	mov	r12,32
800047f0:	f0 1f 00 0f 	mcall	8000482c <screen_Init+0x3d8>
	spi_setupChipReg(AVR32_SPI0_ADDRESS, &screenOptions, BOARD_OSC0_HZ);

	_reset();
	_powerUp();
	_setPWM();
}
800047f4:	2e 8d       	sub	sp,-96
800047f6:	e3 cd 80 80 	ldm	sp++,r7,pc
800047fa:	00 00       	add	r0,r0
800047fc:	80 00       	ld.sh	r0,r0[0x0]
800047fe:	88 58       	ld.sh	r8,r4[0xa]
80004800:	80 00       	ld.sh	r0,r0[0x0]
80004802:	88 78       	ld.sh	r8,r4[0xe]
80004804:	80 00       	ld.sh	r0,r0[0x0]
80004806:	28 a0       	sub	r0,-118
80004808:	80 00       	ld.sh	r0,r0[0x0]
8000480a:	2c 9e       	sub	lr,-55
8000480c:	80 00       	ld.sh	r0,r0[0x0]
8000480e:	2e 2c       	sub	r12,-30
80004810:	80 00       	ld.sh	r0,r0[0x0]
80004812:	2d 74       	sub	r4,-41
80004814:	80 00       	ld.sh	r0,r0[0x0]
80004816:	29 02       	sub	r2,-112
80004818:	80 00       	ld.sh	r0,r0[0x0]
8000481a:	28 e6       	sub	r6,-114
8000481c:	80 00       	ld.sh	r0,r0[0x0]
8000481e:	42 14       	lddsp	r4,sp[0x84]
80004820:	80 00       	ld.sh	r0,r0[0x0]
80004822:	28 4e       	sub	lr,-124
80004824:	80 00       	ld.sh	r0,r0[0x0]
80004826:	2c 38       	sub	r8,-61
80004828:	80 00       	ld.sh	r0,r0[0x0]
8000482a:	2b f0       	sub	r0,-65
8000482c:	80 00       	ld.sh	r0,r0[0x0]
8000482e:	2c 26       	sub	r6,-62

80004830 <vector2_Add>:
 *  Author: voletqu
 */ 

#include "vector2.h"

Vector2 vector2_Add(Vector2 v1, Vector2 v2){
80004830:	eb cd 00 10 	pushm	r4
80004834:	fa c4 ff fc 	sub	r4,sp,-4
	return (Vector2){.x = v1.x + v2.x,
80004838:	09 ea       	ld.ub	r10,r4[0x6]
8000483a:	09 a9       	ld.ub	r9,r4[0x2]
8000483c:	f4 09 00 09 	add	r9,r10,r9
80004840:	88 2b       	ld.sh	r11,r4[0x4]
80004842:	88 0a       	ld.sh	r10,r4[0x0]
80004844:	f6 0a 00 0a 	add	r10,r11,r10
80004848:	b8 0a       	st.h	r12[0x0],r10
8000484a:	b8 a9       	st.b	r12[0x2],r9
					 .y = v1.y + v2.y};
8000484c:	e3 cd 00 10 	ldm	sp++,r4
80004850:	5e fc       	retal	r12
80004852:	d7 03       	nop

80004854 <mainCentre>:
#include "SDCard/sdcard.h"
#include "GFX/screen.h"
#include "GFX/gui.h"


void mainCentre(void){
80004854:	eb cd 40 fc 	pushm	r2-r7,lr
	sysclk_init();
80004858:	f0 1f 00 23 	mcall	800048e4 <mainCentre+0x90>
	
	irq_initialize_vectors();
8000485c:	f0 1f 00 23 	mcall	800048e8 <mainCentre+0x94>
	cpu_irq_enable();
80004860:	d5 03       	csrf	0x10
	
	screen_Init();
80004862:	f0 1f 00 23 	mcall	800048ec <mainCentre+0x98>
	gui_loadingScreen();
80004866:	f0 1f 00 23 	mcall	800048f0 <mainCentre+0x9c>
 * \param  delay:   (input) delay in CPU cycles before timeout.
 * \param  cpu_time: (output) internal information used by the timer API.
 */
__always_inline static void cpu_set_timeout(unsigned long delay, t_cpu_time *cpu_time)
{
  cpu_time->delay_start_cycle = Get_system_register(AVR32_COUNT);
8000486a:	e1 b8 00 42 	mfsr	r8,0x108
  cpu_time->delay_end_cycle   = cpu_time->delay_start_cycle + delay;
8000486e:	e0 6a 48 00 	mov	r10,18432
80004872:	ea 1a 01 e8 	orh	r10,0x1e8
80004876:	f0 0a 00 0a 	add	r10,r8,r10
 *
 * \return true if timeout occurred, otherwise false.
 */
__always_inline static unsigned long cpu_is_timeout(t_cpu_time *cpu_time)
{
  unsigned long current_cycle_count = Get_system_register(AVR32_COUNT);
8000487a:	e1 b9 00 42 	mfsr	r9,0x108
  // Test if the timeout as already occurred.
  else if (cpu_time->timer_state == CPU_TIMER_STATE_REACHED)
    return true;

  // If the ending cycle count of this timeout is wrapped, ...
  else if (cpu_time->delay_start_cycle > cpu_time->delay_end_cycle)
8000487e:	14 38       	cp.w	r8,r10
80004880:	e0 88 00 08 	brls	80004890 <mainCentre+0x3c>
  {
    if (current_cycle_count < cpu_time->delay_start_cycle && current_cycle_count > cpu_time->delay_end_cycle)
80004884:	12 38       	cp.w	r8,r9
80004886:	fe 98 ff fa 	brls	8000487a <mainCentre+0x26>
8000488a:	12 3a       	cp.w	r10,r9
8000488c:	c1 73       	brcs	800048ba <mainCentre+0x66>
8000488e:	cf 6b       	rjmp	8000487a <mainCentre+0x26>
    }
    return false;
  }
  else
  {
    if (current_cycle_count < cpu_time->delay_start_cycle || current_cycle_count > cpu_time->delay_end_cycle)
80004890:	12 38       	cp.w	r8,r9
80004892:	e0 8b 00 14 	brhi	800048ba <mainCentre+0x66>
80004896:	12 3a       	cp.w	r10,r9
80004898:	c1 13       	brcs	800048ba <mainCentre+0x66>
8000489a:	cf 0b       	rjmp	8000487a <mainCentre+0x26>
	gui_Init();
	
	menus[currentMenuId](true);
	
	while(1){
		input[currentMenuId]();
8000489c:	0b 88       	ld.ub	r8,r5[0x0]
8000489e:	e8 08 03 28 	ld.w	r8,r4[r8<<0x2]
800048a2:	5d 18       	icall	r8
		if(needRepaint){
800048a4:	0d 88       	ld.ub	r8,r6[0x0]
800048a6:	ee 08 18 00 	cp.b	r8,r7
800048aa:	cf 90       	breq	8000489c <mainCentre+0x48>
			menus[currentMenuId](menuChanged);
800048ac:	0b 88       	ld.ub	r8,r5[0x0]
800048ae:	e6 08 03 28 	ld.w	r8,r3[r8<<0x2]
800048b2:	05 8c       	ld.ub	r12,r2[0x0]
800048b4:	5d 18       	icall	r8
			needRepaint = false;
800048b6:	ac 87       	st.b	r6[0x0],r7
800048b8:	cf 2b       	rjmp	8000489c <mainCentre+0x48>
	screen_Init();
	gui_loadingScreen();
	
	cpu_delay_ms(500,BOARD_OSC0_HZ);
	
	sdcard_init();
800048ba:	f0 1f 00 0f 	mcall	800048f4 <mainCentre+0xa0>
	sdcard_mount();
800048be:	f0 1f 00 0f 	mcall	800048f8 <mainCentre+0xa4>
	gui_Init();
800048c2:	f0 1f 00 0f 	mcall	800048fc <mainCentre+0xa8>
	
	menus[currentMenuId](true);
800048c6:	48 f8       	lddpc	r8,80004900 <mainCentre+0xac>
800048c8:	11 89       	ld.ub	r9,r8[0x0]
800048ca:	48 f8       	lddpc	r8,80004904 <mainCentre+0xb0>
800048cc:	f0 09 03 28 	ld.w	r8,r8[r9<<0x2]
800048d0:	30 1c       	mov	r12,1
800048d2:	5d 18       	icall	r8
	
	while(1){
		input[currentMenuId]();
800048d4:	48 d4       	lddpc	r4,80004908 <mainCentre+0xb4>
800048d6:	48 b5       	lddpc	r5,80004900 <mainCentre+0xac>
		if(needRepaint){
800048d8:	48 d6       	lddpc	r6,8000490c <mainCentre+0xb8>
800048da:	30 07       	mov	r7,0
			menus[currentMenuId](menuChanged);
800048dc:	48 a3       	lddpc	r3,80004904 <mainCentre+0xb0>
800048de:	48 d2       	lddpc	r2,80004910 <mainCentre+0xbc>
800048e0:	cd eb       	rjmp	8000489c <mainCentre+0x48>
800048e2:	00 00       	add	r0,r0
800048e4:	80 00       	ld.sh	r0,r0[0x0]
800048e6:	4e 3c       	lddpc	r12,80004a70 <sdcard_mount+0x2c>
800048e8:	80 00       	ld.sh	r0,r0[0x0]
800048ea:	2a 14       	sub	r4,-95
800048ec:	80 00       	ld.sh	r0,r0[0x0]
800048ee:	44 54       	lddsp	r4,sp[0x114]
800048f0:	80 00       	ld.sh	r0,r0[0x0]
800048f2:	3f 60       	mov	r0,-10
800048f4:	80 00       	ld.sh	r0,r0[0x0]
800048f6:	4d b4       	lddpc	r4,80004a60 <sdcard_mount+0x1c>
800048f8:	80 00       	ld.sh	r0,r0[0x0]
800048fa:	4a 44       	lddpc	r4,80004988 <_readSector+0x74>
800048fc:	80 00       	ld.sh	r0,r0[0x0]
800048fe:	41 3c       	lddsp	r12,sp[0x4c]
80004900:	00 00       	add	r0,r0
80004902:	01 3b       	ld.ub	r11,r0++
80004904:	00 00       	add	r0,r0
80004906:	00 08       	add	r8,r0
80004908:	00 00       	add	r0,r0
8000490a:	00 18       	sub	r8,r0
8000490c:	00 00       	add	r0,r0
8000490e:	01 3c       	ld.ub	r12,r0++
80004910:	00 00       	add	r0,r0
80004912:	01 38       	ld.ub	r8,r0++

80004914 <_readSector>:
 * function from sd_mmc adapted to our needs
 *
 * Created 16.11.17 QVT
 * Last modified 16.11.17 QVT
 */
static bool _readSector(void *ram, uint32_t sector){
80004914:	eb cd 40 f8 	pushm	r3-r7,lr
80004918:	20 1d       	sub	sp,4
8000491a:	18 94       	mov	r4,r12
8000491c:	16 97       	mov	r7,r11
	uint16_t  read_time_out;
	unsigned short data_read;
	uint8_t   r1;

	// wait for MMC not busy
	if (false == sd_mmc_spi_wait_not_busy())
8000491e:	f0 1f 00 3f 	mcall	80004a18 <_readSector+0x104>
80004922:	c7 80       	breq	80004a12 <_readSector+0xfe>
	return false;

	spi_selectChip(SD_MMC_SPI, SD_MMC_SPI_NPCS);    // select SD_MMC_SPI
80004924:	30 1b       	mov	r11,1
80004926:	fe 7c 28 00 	mov	r12,-55296
8000492a:	f0 1f 00 3d 	mcall	80004a1c <_readSector+0x108>

	// issue command
	if(card_type == SD_CARD_2_SDHC) {
8000492e:	4b d8       	lddpc	r8,80004a20 <_readSector+0x10c>
80004930:	11 89       	ld.ub	r9,r8[0x0]
80004932:	30 38       	mov	r8,3
80004934:	f0 09 18 00 	cp.b	r9,r8
80004938:	c0 61       	brne	80004944 <_readSector+0x30>
		r1 = sd_mmc_spi_command(MMC_READ_SINGLE_BLOCK, sector);
8000493a:	0e 9b       	mov	r11,r7
8000493c:	31 1c       	mov	r12,17
8000493e:	f0 1f 00 3a 	mcall	80004a24 <_readSector+0x110>
80004942:	c0 68       	rjmp	8000494e <_readSector+0x3a>
		} else {
		r1 = sd_mmc_spi_command(MMC_READ_SINGLE_BLOCK, sector<<9);
80004944:	ee 0b 15 09 	lsl	r11,r7,0x9
80004948:	31 1c       	mov	r12,17
8000494a:	f0 1f 00 37 	mcall	80004a24 <_readSector+0x110>
	}

	// check for valid response
	if (r1 != 0x00)
8000494e:	58 0c       	cp.w	r12,0
80004950:	c1 20       	breq	80004974 <_readSector+0x60>
	{
		spi_unselectChip(SD_MMC_SPI, SD_MMC_SPI_NPCS);  // unselect SD_MMC_SPI
80004952:	30 1b       	mov	r11,1
80004954:	fe 7c 28 00 	mov	r12,-55296
80004958:	f0 1f 00 34 	mcall	80004a28 <_readSector+0x114>
8000495c:	30 0c       	mov	r12,0
		return false;
8000495e:	c5 a8       	rjmp	80004a12 <_readSector+0xfe>

	// wait for token (may be a datablock start token OR a data error token !)
	read_time_out = 30000;
	while((r1 = sd_mmc_spi_send_and_read(0xFF)) == 0xFF)
	{
		read_time_out--;
80004960:	20 17       	sub	r7,1
80004962:	5c 87       	casts.h	r7
		if (read_time_out == 0)   // TIME-OUT
80004964:	c0 d1       	brne	8000497e <_readSector+0x6a>
		{
			spi_unselectChip(SD_MMC_SPI, SD_MMC_SPI_NPCS); // unselect SD_MMC_SPI
80004966:	30 1b       	mov	r11,1
80004968:	fe 7c 28 00 	mov	r12,-55296
8000496c:	f0 1f 00 2f 	mcall	80004a28 <_readSector+0x114>
80004970:	30 0c       	mov	r12,0
			return false;
80004972:	c5 08       	rjmp	80004a12 <_readSector+0xfe>
80004974:	e0 67 75 30 	mov	r7,30000
		return false;
	}

	// wait for token (may be a datablock start token OR a data error token !)
	read_time_out = 30000;
	while((r1 = sd_mmc_spi_send_and_read(0xFF)) == 0xFF)
80004978:	e0 65 00 ff 	mov	r5,255
8000497c:	3f f6       	mov	r6,-1
8000497e:	0a 9c       	mov	r12,r5
80004980:	f0 1f 00 2b 	mcall	80004a2c <_readSector+0x118>
80004984:	ec 0c 18 00 	cp.b	r12,r6
80004988:	ce c0       	breq	80004960 <_readSector+0x4c>
			return false;
		}
	}

	// check token
	if (r1 != MMC_STARTBLOCK_READ)
8000498a:	3f e8       	mov	r8,-2
8000498c:	f0 0c 18 00 	cp.b	r12,r8
80004990:	c0 e0       	breq	800049ac <_readSector+0x98>
	{
		spi_write(SD_MMC_SPI,0xFF);
80004992:	e0 6b 00 ff 	mov	r11,255
80004996:	fe 7c 28 00 	mov	r12,-55296
8000499a:	f0 1f 00 26 	mcall	80004a30 <_readSector+0x11c>
		spi_unselectChip(SD_MMC_SPI, SD_MMC_SPI_NPCS);  // unselect SD_MMC_SPI
8000499e:	30 1b       	mov	r11,1
800049a0:	fe 7c 28 00 	mov	r12,-55296
800049a4:	f0 1f 00 21 	mcall	80004a28 <_readSector+0x114>
800049a8:	30 0c       	mov	r12,0
		return false;
800049aa:	c3 48       	rjmp	80004a12 <_readSector+0xfe>
 *
 * Created 16.11.17 QVT
 * Last modified 16.11.17 QVT
 */
static bool _readSector(void *ram, uint32_t sector){
	uint8_t *_ram = ram;
800049ac:	08 97       	mov	r7,r4
 * function from sd_mmc adapted to our needs
 *
 * Created 16.11.17 QVT
 * Last modified 16.11.17 QVT
 */
static bool _readSector(void *ram, uint32_t sector){
800049ae:	e8 c5 fe 00 	sub	r5,r4,-512
	}

	// store datablock
	for(i=0;i<MMC_SECTOR_SIZE;i++)
	{
		spi_write(SD_MMC_SPI,0xFF);
800049b2:	e0 64 00 ff 	mov	r4,255
800049b6:	fe 76 28 00 	mov	r6,-55296
		spi_read(SD_MMC_SPI,&data_read);
800049ba:	fa c3 ff fe 	sub	r3,sp,-2
	}

	// store datablock
	for(i=0;i<MMC_SECTOR_SIZE;i++)
	{
		spi_write(SD_MMC_SPI,0xFF);
800049be:	08 9b       	mov	r11,r4
800049c0:	0c 9c       	mov	r12,r6
800049c2:	f0 1f 00 1c 	mcall	80004a30 <_readSector+0x11c>
		spi_read(SD_MMC_SPI,&data_read);
800049c6:	06 9b       	mov	r11,r3
800049c8:	0c 9c       	mov	r12,r6
800049ca:	f0 1f 00 1b 	mcall	80004a34 <_readSector+0x120>
		*_ram++=data_read;
800049ce:	9a 18       	ld.sh	r8,sp[0x2]
800049d0:	0e c8       	st.b	r7++,r8
		spi_unselectChip(SD_MMC_SPI, SD_MMC_SPI_NPCS);  // unselect SD_MMC_SPI
		return false;
	}

	// store datablock
	for(i=0;i<MMC_SECTOR_SIZE;i++)
800049d2:	0a 37       	cp.w	r7,r5
800049d4:	cf 51       	brne	800049be <_readSector+0xaa>
		*_ram++=data_read;
	}
	//gl_ptr_mem += 512;     // Update the memory pointer.

	// load 16-bit CRC (ignored)
	spi_write(SD_MMC_SPI,0xFF);
800049d6:	e0 6b 00 ff 	mov	r11,255
800049da:	fe 7c 28 00 	mov	r12,-55296
800049de:	f0 1f 00 15 	mcall	80004a30 <_readSector+0x11c>
	spi_write(SD_MMC_SPI,0xFF);
800049e2:	e0 6b 00 ff 	mov	r11,255
800049e6:	fe 7c 28 00 	mov	r12,-55296
800049ea:	f0 1f 00 12 	mcall	80004a30 <_readSector+0x11c>

	// continue delivering some clock cycles
	spi_write(SD_MMC_SPI,0xFF);
800049ee:	e0 6b 00 ff 	mov	r11,255
800049f2:	fe 7c 28 00 	mov	r12,-55296
800049f6:	f0 1f 00 0f 	mcall	80004a30 <_readSector+0x11c>
	spi_write(SD_MMC_SPI,0xFF);
800049fa:	e0 6b 00 ff 	mov	r11,255
800049fe:	fe 7c 28 00 	mov	r12,-55296
80004a02:	f0 1f 00 0c 	mcall	80004a30 <_readSector+0x11c>

	// release chip select
	spi_unselectChip(SD_MMC_SPI, SD_MMC_SPI_NPCS);  // unselect SD_MMC_SPI
80004a06:	30 1b       	mov	r11,1
80004a08:	fe 7c 28 00 	mov	r12,-55296
80004a0c:	f0 1f 00 07 	mcall	80004a28 <_readSector+0x114>
80004a10:	30 1c       	mov	r12,1

	return true;   // Read done.
}
80004a12:	2f fd       	sub	sp,-4
80004a14:	e3 cd 80 f8 	ldm	sp++,r3-r7,pc
80004a18:	80 00       	ld.sh	r0,r0[0x0]
80004a1a:	21 54       	sub	r4,21
80004a1c:	80 00       	ld.sh	r0,r0[0x0]
80004a1e:	2d 02       	sub	r2,-48
80004a20:	00 00       	add	r0,r0
80004a22:	03 56       	ld.sh	r6,--r1
80004a24:	80 00       	ld.sh	r0,r0[0x0]
80004a26:	21 ac       	sub	r12,26
80004a28:	80 00       	ld.sh	r0,r0[0x0]
80004a2a:	2d 4e       	sub	lr,-44
80004a2c:	80 00       	ld.sh	r0,r0[0x0]
80004a2e:	21 20       	sub	r0,18
80004a30:	80 00       	ld.sh	r0,r0[0x0]
80004a32:	2e 32       	sub	r2,-29
80004a34:	80 00       	ld.sh	r0,r0[0x0]
80004a36:	2e 4e       	sub	lr,-28

80004a38 <sdcard_checkPresence>:
	_getFilesInfos();

	return true;
}

bool sdcard_checkPresence(void){
80004a38:	d4 01       	pushm	lr
	return sd_mmc_spi_check_presence(); 
80004a3a:	f0 1f 00 02 	mcall	80004a40 <sdcard_checkPresence+0x8>
}
80004a3e:	d8 02       	popm	pc
80004a40:	80 00       	ld.sh	r0,r0[0x0]
80004a42:	22 b4       	sub	r4,43

80004a44 <sdcard_mount>:
	spi_setupChipReg((volatile struct avr32_spi_t*) SD_MMC_SPI, &sdOptions, BOARD_OSC0_HZ);

	spi_enable((volatile struct avr32_spi_t*) SD_MMC_SPI);
}

bool sdcard_mount(void){
80004a44:	d4 31       	pushm	r0-r7,lr
80004a46:	20 fd       	sub	sp,60
	if(!sdcard_checkPresence())
80004a48:	f0 1f 00 d1 	mcall	80004d8c <sdcard_mount+0x348>
80004a4c:	e0 80 01 9a 	breq	80004d80 <sdcard_mount+0x33c>
		return false;
	if(!sd_mmc_spi_init(sdOptions, BOARD_OSC0_HZ))
80004a50:	fe f8 03 40 	ld.w	r8,pc[832]
80004a54:	20 4d       	sub	sp,16
80004a56:	f0 ea 00 00 	ld.d	r10,r8[0]
80004a5a:	fa eb 00 00 	st.d	sp[0],r10
80004a5e:	f0 e8 00 08 	ld.d	r8,r8[8]
80004a62:	fa e9 00 08 	st.d	sp[8],r8
80004a66:	e0 6c 90 00 	mov	r12,36864
80004a6a:	ea 1c 03 d0 	orh	r12,0x3d0
80004a6e:	f0 1f 00 ca 	mcall	80004d94 <sdcard_mount+0x350>
80004a72:	2f cd       	sub	sp,-16
80004a74:	58 0c       	cp.w	r12,0
80004a76:	e0 80 01 85 	breq	80004d80 <sdcard_mount+0x33c>
	uint16_t bytesPerSector;
	uint16_t nbrOfReservedSectors;
	uint16_t rootSize;
	uint32_t FATSize;
	
	if(_readSector(&data, 0)){
80004a7a:	30 0b       	mov	r11,0
80004a7c:	fe fc 03 1c 	ld.w	r12,pc[796]
80004a80:	f0 1f 00 c7 	mcall	80004d9c <sdcard_mount+0x358>
80004a84:	e0 80 01 7e 	breq	80004d80 <sdcard_mount+0x33c>
		
		sector  = data[FIRST_PARTITION_OFFSET + SECTOR_OFFSET + 0];
80004a88:	fe f8 03 10 	ld.w	r8,pc[784]
80004a8c:	f1 39 01 c6 	ld.ub	r9,r8[454]
		sector += data[FIRST_PARTITION_OFFSET + SECTOR_OFFSET + 1] << 8;
80004a90:	f1 37 01 c7 	ld.ub	r7,r8[455]
80004a94:	a9 67       	lsl	r7,0x8
80004a96:	f1 3a 01 c8 	ld.ub	r10,r8[456]
80004a9a:	b1 6a       	lsl	r10,0x10
80004a9c:	14 07       	add	r7,r10
		sector += data[FIRST_PARTITION_OFFSET + SECTOR_OFFSET + 2] << 16;
80004a9e:	12 07       	add	r7,r9
		sector += data[FIRST_PARTITION_OFFSET + SECTOR_OFFSET + 3] << 24;
80004aa0:	f1 39 01 c9 	ld.ub	r9,r8[457]
80004aa4:	b9 69       	lsl	r9,0x18
80004aa6:	12 07       	add	r7,r9
		
		if(data[FIRST_PARTITION_OFFSET + TYPE_OFFSET] == 0x0B)
80004aa8:	f1 39 01 c2 	ld.ub	r9,r8[450]
80004aac:	30 b8       	mov	r8,11
80004aae:	f0 09 18 00 	cp.b	r9,r8
80004ab2:	c0 61       	brne	80004abe <sdcard_mount+0x7a>
			isFAT32 = true;
80004ab4:	30 19       	mov	r9,1
80004ab6:	fe f8 02 ea 	ld.w	r8,pc[746]
80004aba:	b0 89       	st.b	r8[0x0],r9
80004abc:	c0 58       	rjmp	80004ac6 <sdcard_mount+0x82>
		else 
			isFAT32 = false;
80004abe:	30 09       	mov	r9,0
80004ac0:	fe f8 02 e0 	ld.w	r8,pc[736]
80004ac4:	b0 89       	st.b	r8[0x0],r9
			
		if(!_readSector(&data, sector))
80004ac6:	0e 9b       	mov	r11,r7
80004ac8:	fe fc 02 d0 	ld.w	r12,pc[720]
80004acc:	f0 1f 00 b4 	mcall	80004d9c <sdcard_mount+0x358>
80004ad0:	e0 80 01 58 	breq	80004d80 <sdcard_mount+0x33c>
80004ad4:	30 08       	mov	r8,0
			return false;
		
		for(int i = 0; i < 48; i++){ //48 = BPB length
			bpb.bpb[i] = data[i];
80004ad6:	fa cb ff f4 	sub	r11,sp,-12
80004ada:	fe fa 02 be 	ld.w	r10,pc[702]
80004ade:	f4 08 07 09 	ld.ub	r9,r10[r8]
80004ae2:	f6 08 0b 09 	st.b	r11[r8],r9
			isFAT32 = false;
			
		if(!_readSector(&data, sector))
			return false;
		
		for(int i = 0; i < 48; i++){ //48 = BPB length
80004ae6:	2f f8       	sub	r8,-1
80004ae8:	e0 48 00 30 	cp.w	r8,48
80004aec:	cf 91       	brne	80004ade <sdcard_mount+0x9a>
			bpb.bpb[i] = data[i];
		}
		
		nbrOfFAT = bpb.components.nbrOfFAT[0];
80004aee:	fb 38 00 1c 	ld.ub	r8,sp[28]
		bytesPerSector = bpb.components.bytePerSector[0] + (bpb.components.bytePerSector[1] << 8);
80004af2:	fb 36 00 17 	ld.ub	r6,sp[23]
80004af6:	fb 35 00 18 	ld.ub	r5,sp[24]
		nbrOfReservedSectors = bpb.components.reservedSector[0] + (bpb.components.reservedSector[1] << 8);
80004afa:	fb 39 00 1b 	ld.ub	r9,sp[27]
80004afe:	a9 69       	lsl	r9,0x8
80004b00:	fb 3a 00 1a 	ld.ub	r10,sp[26]
80004b04:	f4 09 00 09 	add	r9,r10,r9
80004b08:	5c 89       	casts.h	r9
		rootSize = bpb.components.rootSize[0] + (bpb.components.rootSize[1] << 8);
80004b0a:	fb 3c 00 1d 	ld.ub	r12,sp[29]
80004b0e:	fb 34 00 1e 	ld.ub	r4,sp[30]
		
		if(isFAT32){
80004b12:	fe fa 02 8e 	ld.w	r10,pc[654]
80004b16:	15 8b       	ld.ub	r11,r10[0x0]
80004b18:	30 0a       	mov	r10,0
80004b1a:	f4 0b 18 00 	cp.b	r11,r10
80004b1e:	c1 d0       	breq	80004b58 <sdcard_mount+0x114>
		else{
			FATSize = bpb.components.FATSizeInSectors[0] +
					 (bpb.components.FATSizeInSectors[1] << 8);
		}
		
		rootSector = sector + nbrOfReservedSectors + (FATSize * nbrOfFAT);
80004b20:	5c 79       	castu.h	r9
80004b22:	12 07       	add	r7,r9
80004b24:	fb 3a 00 31 	ld.ub	r10,sp[49]
80004b28:	a9 6a       	lsl	r10,0x8
80004b2a:	fb 39 00 32 	ld.ub	r9,sp[50]
80004b2e:	b1 69       	lsl	r9,0x10
80004b30:	12 0a       	add	r10,r9
80004b32:	fb 39 00 30 	ld.ub	r9,sp[48]
80004b36:	12 0a       	add	r10,r9
80004b38:	fb 39 00 33 	ld.ub	r9,sp[51]
80004b3c:	b9 69       	lsl	r9,0x18
80004b3e:	f4 09 00 09 	add	r9,r10,r9
80004b42:	f2 08 02 48 	mul	r8,r9,r8
80004b46:	0e 08       	add	r8,r7
80004b48:	fe f9 02 5c 	ld.w	r9,pc[604]
80004b4c:	93 08       	st.w	r9[0x0],r8
		FATSector = sector + nbrOfReservedSectors;
80004b4e:	fe f9 02 5a 	ld.w	r9,pc[602]
80004b52:	93 07       	st.w	r9[0x0],r7
80004b54:	30 09       	mov	r9,0
80004b56:	c2 38       	rjmp	80004b9c <sdcard_mount+0x158>
		else{
			FATSize = bpb.components.FATSizeInSectors[0] +
					 (bpb.components.FATSizeInSectors[1] << 8);
		}
		
		rootSector = sector + nbrOfReservedSectors + (FATSize * nbrOfFAT);
80004b58:	5c 79       	castu.h	r9
80004b5a:	12 07       	add	r7,r9
80004b5c:	fb 3a 00 23 	ld.ub	r10,sp[35]
80004b60:	a9 6a       	lsl	r10,0x8
80004b62:	fb 39 00 22 	ld.ub	r9,sp[34]
80004b66:	f4 09 00 09 	add	r9,r10,r9
80004b6a:	f2 08 02 48 	mul	r8,r9,r8
80004b6e:	ee 08 00 08 	add	r8,r7,r8
80004b72:	fe f9 02 32 	ld.w	r9,pc[562]
80004b76:	93 08       	st.w	r9[0x0],r8
		FATSector = sector + nbrOfReservedSectors;
80004b78:	fe f9 02 30 	ld.w	r9,pc[560]
80004b7c:	93 07       	st.w	r9[0x0],r7
		//directory entrees store on 32 bytes
		dataSector = rootSector + ((isFAT32)?(0):(((rootSize * 32) + bytesPerSector - 1) / bytesPerSector));	
80004b7e:	ea 09 15 08 	lsl	r9,r5,0x8
80004b82:	0c 09       	add	r9,r6
80004b84:	5c 79       	castu.h	r9
80004b86:	f2 cb 00 01 	sub	r11,r9,1
80004b8a:	e8 0a 15 08 	lsl	r10,r4,0x8
80004b8e:	18 0a       	add	r10,r12
80004b90:	5c 7a       	castu.h	r10
80004b92:	a5 7a       	lsl	r10,0x5
80004b94:	14 0b       	add	r11,r10
80004b96:	f6 09 0c 0a 	divs	r10,r11,r9
80004b9a:	14 99       	mov	r9,r10
80004b9c:	12 08       	add	r8,r9
80004b9e:	fe f9 02 0e 	ld.w	r9,pc[526]
80004ba2:	93 08       	st.w	r9[0x0],r8
 */
static void _getFilesInfos(){
	uint8_t id = 0;
	uint16_t entry = 0;
	uint32_t relativeEntry = 0;
	uint32_t sector = rootSector;
80004ba4:	fe f8 02 00 	ld.w	r8,pc[512]
80004ba8:	70 00       	ld.w	r0,r8[0x0]
80004baa:	30 03       	mov	r3,0
	
	while(entry < 512 && id < 100){
		relativeEntry = (entry % 16) * 32;
		if(entry % 16 == 0){
			if(_readSector(&data, sector))
80004bac:	4f b5       	lddpc	r5,80004d98 <sdcard_mount+0x354>
80004bae:	50 05       	stdsp	sp[0x0],r5
				sector++;
			else 
				return;
		}
		if((data[relativeEntry + 11] == 0x00 || data[relativeEntry + 11] == 0x01 || data[relativeEntry + 11] == 0x20) && data[relativeEntry] != 0xE5){
80004bb0:	30 12       	mov	r2,1
80004bb2:	32 01       	mov	r1,32
80004bb4:	30 04       	mov	r4,0
	spi_setupChipReg((volatile struct avr32_spi_t*) SD_MMC_SPI, &sdOptions, BOARD_OSC0_HZ);

	spi_enable((volatile struct avr32_spi_t*) SD_MMC_SPI);
}

bool sdcard_mount(void){
80004bb6:	0a 9a       	mov	r10,r5
80004bb8:	2f 5a       	sub	r10,-11
80004bba:	50 1a       	stdsp	sp[0x4],r10
80004bbc:	0a 99       	mov	r9,r5
80004bbe:	2e 49       	sub	r9,-28
80004bc0:	50 29       	stdsp	sp[0x8],r9
80004bc2:	06 96       	mov	r6,r3
	uint16_t entry = 0;
	uint32_t relativeEntry = 0;
	uint32_t sector = rootSector;
	
	while(entry < 512 && id < 100){
		relativeEntry = (entry % 16) * 32;
80004bc4:	ef d6 c0 04 	bfextu	r7,r6,0x0,0x4
		if(entry % 16 == 0){
80004bc8:	c0 81       	brne	80004bd8 <sdcard_mount+0x194>
			if(_readSector(&data, sector))
80004bca:	00 9b       	mov	r11,r0
80004bcc:	40 0c       	lddsp	r12,sp[0x0]
80004bce:	f0 1f 00 74 	mcall	80004d9c <sdcard_mount+0x358>
80004bd2:	e0 80 00 d9 	breq	80004d84 <sdcard_mount+0x340>
				sector++;
80004bd6:	2f f0       	sub	r0,-1
	uint16_t entry = 0;
	uint32_t relativeEntry = 0;
	uint32_t sector = rootSector;
	
	while(entry < 512 && id < 100){
		relativeEntry = (entry % 16) * 32;
80004bd8:	a5 77       	lsl	r7,0x5
			if(_readSector(&data, sector))
				sector++;
			else 
				return;
		}
		if((data[relativeEntry + 11] == 0x00 || data[relativeEntry + 11] == 0x01 || data[relativeEntry + 11] == 0x20) && data[relativeEntry] != 0xE5){
80004bda:	ea 07 00 08 	add	r8,r5,r7
80004bde:	f1 38 00 0b 	ld.ub	r8,r8[11]
80004be2:	e4 08 18 00 	cp.b	r8,r2
80004be6:	5f 8a       	srls	r10
80004be8:	e2 08 18 00 	cp.b	r8,r1
80004bec:	5f 09       	sreq	r9
80004bee:	f5 e9 10 09 	or	r9,r10,r9
80004bf2:	e8 09 18 00 	cp.b	r9,r4
80004bf6:	c4 40       	breq	80004c7e <sdcard_mount+0x23a>
80004bf8:	ea 07 07 0a 	ld.ub	r10,r5[r7]
80004bfc:	3e 59       	mov	r9,-27
80004bfe:	f2 0a 18 00 	cp.b	r10,r9
80004c02:	c3 e0       	breq	80004c7e <sdcard_mount+0x23a>
			if(data[relativeEntry + 8] == 'W' && data[relativeEntry + 9] == 'A' && data[relativeEntry + 10] == 'V'){
80004c04:	ea 07 00 08 	add	r8,r5,r7
80004c08:	f1 39 00 08 	ld.ub	r9,r8[8]
80004c0c:	35 78       	mov	r8,87
80004c0e:	f0 09 18 00 	cp.b	r9,r8
80004c12:	e0 81 00 a5 	brne	80004d5c <sdcard_mount+0x318>
80004c16:	ea 07 00 08 	add	r8,r5,r7
80004c1a:	f1 39 00 09 	ld.ub	r9,r8[9]
80004c1e:	34 18       	mov	r8,65
80004c20:	f0 09 18 00 	cp.b	r9,r8
80004c24:	e0 81 00 9c 	brne	80004d5c <sdcard_mount+0x318>
80004c28:	ea 07 00 08 	add	r8,r5,r7
80004c2c:	f1 39 00 0a 	ld.ub	r9,r8[10]
80004c30:	35 68       	mov	r8,86
80004c32:	f0 09 18 00 	cp.b	r9,r8
80004c36:	e0 81 00 93 	brne	80004d5c <sdcard_mount+0x318>
				//files[id].id = id;
				if(files[id].name[0] == 0){
80004c3a:	06 9c       	mov	r12,r3
80004c3c:	e6 03 00 38 	add	r8,r3,r3<<0x3
80004c40:	4d ca       	lddpc	r10,80004db0 <sdcard_mount+0x36c>
80004c42:	f4 08 07 28 	ld.ub	r8,r10[r8<<0x2]
80004c46:	e8 08 18 00 	cp.b	r8,r4
80004c4a:	c0 f1       	brne	80004c68 <sdcard_mount+0x224>
80004c4c:	ee 05 00 08 	add	r8,r7,r5
80004c50:	e6 03 00 39 	add	r9,r3,r3<<0x3
80004c54:	f4 09 00 29 	add	r9,r10,r9<<0x2
	spi_setupChipReg((volatile struct avr32_spi_t*) SD_MMC_SPI, &sdOptions, BOARD_OSC0_HZ);

	spi_enable((volatile struct avr32_spi_t*) SD_MMC_SPI);
}

bool sdcard_mount(void){
80004c58:	ea cb ff f5 	sub	r11,r5,-11
80004c5c:	ee 0b 00 0b 	add	r11,r7,r11
		if((data[relativeEntry + 11] == 0x00 || data[relativeEntry + 11] == 0x01 || data[relativeEntry + 11] == 0x20) && data[relativeEntry] != 0xE5){
			if(data[relativeEntry + 8] == 'W' && data[relativeEntry + 9] == 'A' && data[relativeEntry + 10] == 'V'){
				//files[id].id = id;
				if(files[id].name[0] == 0){
					for(uint8_t  i = 0; i < 11; i++){
						files[id].name[i] = data[relativeEntry + i];
80004c60:	11 3a       	ld.ub	r10,r8++
80004c62:	12 ca       	st.b	r9++,r10
		}
		if((data[relativeEntry + 11] == 0x00 || data[relativeEntry + 11] == 0x01 || data[relativeEntry + 11] == 0x20) && data[relativeEntry] != 0xE5){
			if(data[relativeEntry + 8] == 'W' && data[relativeEntry + 9] == 'A' && data[relativeEntry + 10] == 'V'){
				//files[id].id = id;
				if(files[id].name[0] == 0){
					for(uint8_t  i = 0; i < 11; i++){
80004c64:	16 38       	cp.w	r8,r11
80004c66:	cf d1       	brne	80004c60 <sdcard_mount+0x21c>
						files[id].name[i] = data[relativeEntry + i];
					}
				}
				files[id].sector = sector;
80004c68:	f8 0c 00 3c 	add	r12,r12,r12<<0x3
80004c6c:	4d 19       	lddpc	r9,80004db0 <sdcard_mount+0x36c>
80004c6e:	f2 0c 00 28 	add	r8,r9,r12<<0x2
80004c72:	91 70       	st.w	r8[0x1c],r0
				files[id].offset = relativeEntry;
80004c74:	f1 57 00 20 	st.h	r8[32],r7
				id++;
80004c78:	2f f3       	sub	r3,-1
80004c7a:	5c 53       	castu.b	r3
80004c7c:	c7 08       	rjmp	80004d5c <sdcard_mount+0x318>
			}
		}
		else if(data[relativeEntry + 11] == 0x0F){
80004c7e:	30 fa       	mov	r10,15
80004c80:	f4 08 18 00 	cp.b	r8,r10
80004c84:	c6 c1       	brne	80004d5c <sdcard_mount+0x318>
			if(data[relativeEntry] & 0x01 || data[relativeEntry] == 0x41){
80004c86:	ea 07 07 08 	ld.ub	r8,r5[r7]
80004c8a:	f3 d8 c0 01 	bfextu	r9,r8,0x0,0x1
80004c8e:	c0 51       	brne	80004c98 <sdcard_mount+0x254>
80004c90:	34 19       	mov	r9,65
80004c92:	f2 08 18 00 	cp.b	r8,r9
80004c96:	c3 21       	brne	80004cfa <sdcard_mount+0x2b6>
80004c98:	ee c8 ff ff 	sub	r8,r7,-1
80004c9c:	0a 08       	add	r8,r5
				for(uint8_t i = 0; i < 5; i++){
					files[id].name[i] = data[i*2 + relativeEntry + 1];
80004c9e:	06 9b       	mov	r11,r3
80004ca0:	e6 03 00 39 	add	r9,r3,r3<<0x3
80004ca4:	4c 3a       	lddpc	r10,80004db0 <sdcard_mount+0x36c>
80004ca6:	f4 09 00 29 	add	r9,r10,r9<<0x2
	spi_setupChipReg((volatile struct avr32_spi_t*) SD_MMC_SPI, &sdOptions, BOARD_OSC0_HZ);

	spi_enable((volatile struct avr32_spi_t*) SD_MMC_SPI);
}

bool sdcard_mount(void){
80004caa:	40 1a       	lddsp	r10,sp[0x4]
80004cac:	ee 0a 00 0c 	add	r12,r7,r10
			}
		}
		else if(data[relativeEntry + 11] == 0x0F){
			if(data[relativeEntry] & 0x01 || data[relativeEntry] == 0x41){
				for(uint8_t i = 0; i < 5; i++){
					files[id].name[i] = data[i*2 + relativeEntry + 1];
80004cb0:	11 8a       	ld.ub	r10,r8[0x0]
80004cb2:	12 ca       	st.b	r9++,r10
80004cb4:	2f e8       	sub	r8,-2
				id++;
			}
		}
		else if(data[relativeEntry + 11] == 0x0F){
			if(data[relativeEntry] & 0x01 || data[relativeEntry] == 0x41){
				for(uint8_t i = 0; i < 5; i++){
80004cb6:	18 38       	cp.w	r8,r12
80004cb8:	cf c1       	brne	80004cb0 <sdcard_mount+0x26c>
80004cba:	ee c8 ff f2 	sub	r8,r7,-14
80004cbe:	0a 08       	add	r8,r5
80004cc0:	f6 0b 00 39 	add	r9,r11,r11<<0x3
80004cc4:	a3 69       	lsl	r9,0x2
80004cc6:	2f b9       	sub	r9,-5
80004cc8:	4b aa       	lddpc	r10,80004db0 <sdcard_mount+0x36c>
80004cca:	14 09       	add	r9,r10
	spi_setupChipReg((volatile struct avr32_spi_t*) SD_MMC_SPI, &sdOptions, BOARD_OSC0_HZ);

	spi_enable((volatile struct avr32_spi_t*) SD_MMC_SPI);
}

bool sdcard_mount(void){
80004ccc:	40 2c       	lddsp	r12,sp[0x8]
80004cce:	0e 0c       	add	r12,r7
			if(data[relativeEntry] & 0x01 || data[relativeEntry] == 0x41){
				for(uint8_t i = 0; i < 5; i++){
					files[id].name[i] = data[i*2 + relativeEntry + 1];
				}
				for(uint8_t i = 0; i < 7; i++){
					files[id].name[i+5] = data[i*2 + relativeEntry + 14];
80004cd0:	11 8a       	ld.ub	r10,r8[0x0]
80004cd2:	12 ca       	st.b	r9++,r10
80004cd4:	2f e8       	sub	r8,-2
		else if(data[relativeEntry + 11] == 0x0F){
			if(data[relativeEntry] & 0x01 || data[relativeEntry] == 0x41){
				for(uint8_t i = 0; i < 5; i++){
					files[id].name[i] = data[i*2 + relativeEntry + 1];
				}
				for(uint8_t i = 0; i < 7; i++){
80004cd6:	18 38       	cp.w	r8,r12
80004cd8:	cf c1       	brne	80004cd0 <sdcard_mount+0x28c>
					files[id].name[i+5] = data[i*2 + relativeEntry + 14];
				}
				for(uint8_t i = 0; i < 2; i++){
					files[id].name[i+11] = data[i*2 + relativeEntry + 28];
80004cda:	f6 0b 00 3b 	add	r11,r11,r11<<0x3
80004cde:	4b 59       	lddpc	r9,80004db0 <sdcard_mount+0x36c>
80004ce0:	f2 0b 00 2b 	add	r11,r9,r11<<0x2
80004ce4:	ea 07 00 07 	add	r7,r5,r7
80004ce8:	ef 38 00 1c 	ld.ub	r8,r7[28]
80004cec:	f7 68 00 0b 	st.b	r11[11],r8
80004cf0:	ef 38 00 1e 	ld.ub	r8,r7[30]
80004cf4:	f7 68 00 0c 	st.b	r11[12],r8
80004cf8:	c3 28       	rjmp	80004d5c <sdcard_mount+0x318>
				}
			}
			else if(data[relativeEntry] == 0x02 || data[relativeEntry] == 0x42){
80004cfa:	30 29       	mov	r9,2
80004cfc:	f2 08 18 00 	cp.b	r8,r9
80004d00:	5f 09       	sreq	r9
80004d02:	34 2a       	mov	r10,66
80004d04:	f4 08 18 00 	cp.b	r8,r10
80004d08:	5f 08       	sreq	r8
80004d0a:	f3 e8 10 08 	or	r8,r9,r8
80004d0e:	e8 08 18 00 	cp.b	r8,r4
80004d12:	c2 50       	breq	80004d5c <sdcard_mount+0x318>
80004d14:	ee c8 ff ff 	sub	r8,r7,-1
80004d18:	0a 08       	add	r8,r5
				for(uint8_t i = 0; i < 5; i++){
					files[id].name[i+13] = data[i*2 + relativeEntry + 1];
80004d1a:	06 9c       	mov	r12,r3
80004d1c:	e6 03 00 39 	add	r9,r3,r3<<0x3
80004d20:	a3 69       	lsl	r9,0x2
80004d22:	2f 39       	sub	r9,-13
80004d24:	4a 3a       	lddpc	r10,80004db0 <sdcard_mount+0x36c>
80004d26:	14 09       	add	r9,r10
	spi_setupChipReg((volatile struct avr32_spi_t*) SD_MMC_SPI, &sdOptions, BOARD_OSC0_HZ);

	spi_enable((volatile struct avr32_spi_t*) SD_MMC_SPI);
}

bool sdcard_mount(void){
80004d28:	40 1a       	lddsp	r10,sp[0x4]
80004d2a:	ee 0a 00 0b 	add	r11,r7,r10
					files[id].name[i+11] = data[i*2 + relativeEntry + 28];
				}
			}
			else if(data[relativeEntry] == 0x02 || data[relativeEntry] == 0x42){
				for(uint8_t i = 0; i < 5; i++){
					files[id].name[i+13] = data[i*2 + relativeEntry + 1];
80004d2e:	11 8a       	ld.ub	r10,r8[0x0]
80004d30:	12 ca       	st.b	r9++,r10
80004d32:	2f e8       	sub	r8,-2
				for(uint8_t i = 0; i < 2; i++){
					files[id].name[i+11] = data[i*2 + relativeEntry + 28];
				}
			}
			else if(data[relativeEntry] == 0x02 || data[relativeEntry] == 0x42){
				for(uint8_t i = 0; i < 5; i++){
80004d34:	16 38       	cp.w	r8,r11
80004d36:	cf c1       	brne	80004d2e <sdcard_mount+0x2ea>
80004d38:	ee c8 ff f2 	sub	r8,r7,-14
80004d3c:	0a 08       	add	r8,r5
80004d3e:	f8 0c 00 3c 	add	r12,r12,r12<<0x3
80004d42:	f8 09 15 02 	lsl	r9,r12,0x2
80004d46:	2e e9       	sub	r9,-18
80004d48:	49 aa       	lddpc	r10,80004db0 <sdcard_mount+0x36c>
80004d4a:	14 09       	add	r9,r10
	spi_setupChipReg((volatile struct avr32_spi_t*) SD_MMC_SPI, &sdOptions, BOARD_OSC0_HZ);

	spi_enable((volatile struct avr32_spi_t*) SD_MMC_SPI);
}

bool sdcard_mount(void){
80004d4c:	40 0a       	lddsp	r10,sp[0x0]
80004d4e:	2e 8a       	sub	r10,-24
80004d50:	14 07       	add	r7,r10
			else if(data[relativeEntry] == 0x02 || data[relativeEntry] == 0x42){
				for(uint8_t i = 0; i < 5; i++){
					files[id].name[i+13] = data[i*2 + relativeEntry + 1];
				}
				for(uint8_t i = 0; i < 5; i++){ // 5 instead of 7 as we only store the first 25 characters
					files[id].name[i+18] = data[i*2 + relativeEntry + 14];
80004d52:	11 8a       	ld.ub	r10,r8[0x0]
80004d54:	12 ca       	st.b	r9++,r10
80004d56:	2f e8       	sub	r8,-2
			}
			else if(data[relativeEntry] == 0x02 || data[relativeEntry] == 0x42){
				for(uint8_t i = 0; i < 5; i++){
					files[id].name[i+13] = data[i*2 + relativeEntry + 1];
				}
				for(uint8_t i = 0; i < 5; i++){ // 5 instead of 7 as we only store the first 25 characters
80004d58:	0e 38       	cp.w	r8,r7
80004d5a:	cf c1       	brne	80004d52 <sdcard_mount+0x30e>
					files[id].name[i+18] = data[i*2 + relativeEntry + 14];
				}
			}
		}
		entry++;
80004d5c:	2f f6       	sub	r6,-1
80004d5e:	5c 86       	casts.h	r6
	uint8_t id = 0;
	uint16_t entry = 0;
	uint32_t relativeEntry = 0;
	uint32_t sector = rootSector;
	
	while(entry < 512 && id < 100){
80004d60:	e0 68 01 ff 	mov	r8,511
80004d64:	f0 06 19 00 	cp.h	r6,r8
80004d68:	5f 89       	srls	r9
80004d6a:	36 38       	mov	r8,99
80004d6c:	f0 03 18 00 	cp.b	r3,r8
80004d70:	5f 88       	srls	r8
80004d72:	f3 e8 00 08 	and	r8,r9,r8
80004d76:	e8 08 18 00 	cp.b	r8,r4
80004d7a:	fe 91 ff 25 	brne	80004bc4 <sdcard_mount+0x180>
80004d7e:	c0 38       	rjmp	80004d84 <sdcard_mount+0x340>
80004d80:	30 0c       	mov	r12,0
80004d82:	c0 28       	rjmp	80004d86 <sdcard_mount+0x342>
80004d84:	30 1c       	mov	r12,1
	if(!_initFat())
		return false;
	_getFilesInfos();

	return true;
}
80004d86:	2f 1d       	sub	sp,-60
80004d88:	d8 32       	popm	r0-r7,pc
80004d8a:	00 00       	add	r0,r0
80004d8c:	80 00       	ld.sh	r0,r0[0x0]
80004d8e:	4a 38       	lddpc	r8,80004e18 <sdcard_init+0x64>
80004d90:	00 00       	add	r0,r0
80004d92:	00 30       	cp.w	r0,r0
80004d94:	80 00       	ld.sh	r0,r0[0x0]
80004d96:	28 0c       	sub	r12,-128
80004d98:	00 00       	add	r0,r0
80004d9a:	11 8c       	ld.ub	r12,r8[0x0]
80004d9c:	80 00       	ld.sh	r0,r0[0x0]
80004d9e:	49 14       	lddpc	r4,80004de0 <sdcard_init+0x2c>
80004da0:	00 00       	add	r0,r0
80004da2:	01 3d       	ld.ub	sp,r0++
80004da4:	00 00       	add	r0,r0
80004da6:	13 94       	ld.ub	r4,r9[0x1]
80004da8:	00 00       	add	r0,r0
80004daa:	13 90       	ld.ub	r0,r9[0x1]
80004dac:	00 00       	add	r0,r0
80004dae:	13 8c       	ld.ub	r12,r9[0x0]
80004db0:	00 00       	add	r0,r0
80004db2:	03 7c       	ld.ub	r12,--r1

80004db4 <sdcard_init>:

/************************************************************************/
/* FUNCTIONS                                                            */
/************************************************************************/

void sdcard_init(void){
80004db4:	eb cd 40 80 	pushm	r7,lr
80004db8:	20 8d       	sub	sp,32
	gpio_map_t sdGPIO={
		{PIN_NPCS_SD,	FCT_NPCS_SD	  },
		{PIN_SCK_SPI1,	FCT_SCK_SPI1  },
		{PIN_MISO_SPI1, FCT_MISO_SPI1 },
		{PIN_MOSI_SPI1, FCT_MOSI_SPI1 }
	};
80004dba:	49 a8       	lddpc	r8,80004e20 <sdcard_init+0x6c>
80004dbc:	1a 9c       	mov	r12,sp
80004dbe:	f0 ea 00 00 	ld.d	r10,r8[0]
80004dc2:	fa eb 00 00 	st.d	sp[0],r10
80004dc6:	f0 ea 00 08 	ld.d	r10,r8[8]
80004dca:	fa eb 00 08 	st.d	sp[8],r10
80004dce:	f0 ea 00 10 	ld.d	r10,r8[16]
80004dd2:	fa eb 00 10 	st.d	sp[16],r10
80004dd6:	f0 e8 00 18 	ld.d	r8,r8[24]
80004dda:	fa e9 00 18 	st.d	sp[24],r8

	gpio_enable_module(sdGPIO, sizeof (sdGPIO)/ sizeof(sdGPIO[0]));
80004dde:	30 4b       	mov	r11,4
80004de0:	f0 1f 00 11 	mcall	80004e24 <sdcard_init+0x70>
	

	spi_initMaster((volatile struct avr32_spi_t*) SD_MMC_SPI, &sdOptions);
80004de4:	49 17       	lddpc	r7,80004e28 <sdcard_init+0x74>
80004de6:	0e 9b       	mov	r11,r7
80004de8:	fe 7c 28 00 	mov	r12,-55296
80004dec:	f0 1f 00 10 	mcall	80004e2c <sdcard_init+0x78>

	spi_selectionMode((volatile struct avr32_spi_t*) SD_MMC_SPI, 0, 0, 0);
80004df0:	30 09       	mov	r9,0
80004df2:	12 9a       	mov	r10,r9
80004df4:	12 9b       	mov	r11,r9
80004df6:	fe 7c 28 00 	mov	r12,-55296
80004dfa:	f0 1f 00 0e 	mcall	80004e30 <sdcard_init+0x7c>

	spi_setupChipReg((volatile struct avr32_spi_t*) SD_MMC_SPI, &sdOptions, BOARD_OSC0_HZ);
80004dfe:	e0 6a 90 00 	mov	r10,36864
80004e02:	ea 1a 03 d0 	orh	r10,0x3d0
80004e06:	0e 9b       	mov	r11,r7
80004e08:	fe 7c 28 00 	mov	r12,-55296
80004e0c:	f0 1f 00 0a 	mcall	80004e34 <sdcard_init+0x80>

	spi_enable((volatile struct avr32_spi_t*) SD_MMC_SPI);
80004e10:	fe 7c 28 00 	mov	r12,-55296
80004e14:	f0 1f 00 09 	mcall	80004e38 <sdcard_init+0x84>
}
80004e18:	2f 8d       	sub	sp,-32
80004e1a:	e3 cd 80 80 	ldm	sp++,r7,pc
80004e1e:	00 00       	add	r0,r0
80004e20:	80 00       	ld.sh	r0,r0[0x0]
80004e22:	88 88       	ld.uh	r8,r4[0x0]
80004e24:	80 00       	ld.sh	r0,r0[0x0]
80004e26:	28 a0       	sub	r0,-118
80004e28:	00 00       	add	r0,r0
80004e2a:	00 30       	cp.w	r0,r0
80004e2c:	80 00       	ld.sh	r0,r0[0x0]
80004e2e:	2c 9e       	sub	lr,-55
80004e30:	80 00       	ld.sh	r0,r0[0x0]
80004e32:	2c d6       	sub	r6,-51
80004e34:	80 00       	ld.sh	r0,r0[0x0]
80004e36:	2d 74       	sub	r4,-41
80004e38:	80 00       	ld.sh	r0,r0[0x0]
80004e3a:	2e 2c       	sub	r12,-30

80004e3c <sysclk_init>:
/* sysclk_init (void)
*
* Initializes SYSCLK for a 64 MHz clock.
*
*/
void sysclk_init (void) {
80004e3c:	d4 01       	pushm	lr
  // PLL formula = PLL_OUT (OSC0 / DIV) * (MUL+1) => (16MHz / 1) * (7+1) = 128MHz
  pm_switch_to_osc0(&AVR32_PM, BOARD_OSC0_HZ, OSC0_STARTUP_US);  // Switch main clock to Osc0.
80004e3e:	30 3a       	mov	r10,3
80004e40:	e0 6b 90 00 	mov	r11,36864
80004e44:	ea 1b 03 d0 	orh	r11,0x3d0
80004e48:	fe 7c 0c 00 	mov	r12,-62464
80004e4c:	f0 1f 00 19 	mcall	80004eb0 <sysclk_init+0x74>
  pm_pll_setup(&AVR32_PM, PLL, MUL, DIV, OSC, LOCK_COUNT);
80004e50:	31 08       	mov	r8,16
80004e52:	1a d8       	st.w	--sp,r8
80004e54:	30 08       	mov	r8,0
80004e56:	30 19       	mov	r9,1
80004e58:	30 7a       	mov	r10,7
80004e5a:	10 9b       	mov	r11,r8
80004e5c:	fe 7c 0c 00 	mov	r12,-62464
80004e60:	f0 1f 00 15 	mcall	80004eb4 <sysclk_init+0x78>
   pll_freq Set to 1 for VCO frequency range 80-180MHz, set to 0 for VCO frequency range 160-240Mhz.
   pll_div2 Divide the PLL output frequency by 2 (this settings does not change the FVCO value)
   pll_wbwdisable 1 Disable the Wide-Bandith Mode (Wide-Bandwith mode allow a faster startup time and out-of-lock time). 0 to enable the Wide-Bandith Mode.
  */
  /* PLL output VCO frequency is 128MHz. We divide it by 2 with the pll_div2=1. This enable to get later main clock to 64MHz */
  pm_pll_set_option(&AVR32_PM, PLL, PLL_F, PLL_DIV2, PLL_WBW_DIS);
80004e64:	30 08       	mov	r8,0
80004e66:	30 19       	mov	r9,1
80004e68:	12 9a       	mov	r10,r9
80004e6a:	10 9b       	mov	r11,r8
80004e6c:	fe 7c 0c 00 	mov	r12,-62464
80004e70:	f0 1f 00 12 	mcall	80004eb8 <sysclk_init+0x7c>
  pm_pll_enable(&AVR32_PM, PLL);
80004e74:	30 0b       	mov	r11,0
80004e76:	fe 7c 0c 00 	mov	r12,-62464
80004e7a:	f0 1f 00 11 	mcall	80004ebc <sysclk_init+0x80>

  /* Wait for PLL0 locked */
  pm_wait_for_pll0_locked(&AVR32_PM) ;
80004e7e:	fe 7c 0c 00 	mov	r12,-62464
80004e82:	f0 1f 00 10 	mcall	80004ec0 <sysclk_init+0x84>
  pm_cksel(&AVR32_PM, 1, 0, 0, 0, 0, 0);		// 1 divides PBA clock by two
80004e86:	30 0a       	mov	r10,0
80004e88:	1a da       	st.w	--sp,r10
80004e8a:	1a da       	st.w	--sp,r10
80004e8c:	14 98       	mov	r8,r10
80004e8e:	14 99       	mov	r9,r10
80004e90:	30 1b       	mov	r11,1
80004e92:	fe 7c 0c 00 	mov	r12,-62464
80004e96:	f0 1f 00 0c 	mcall	80004ec4 <sysclk_init+0x88>

  // Set one wait-state (WS) for flash controller. 0 WS access is up to 30MHz for HSB/CPU clock.
  // As we want to have 64MHz on HSB/CPU clock, we need to set 1 WS on flash controller.
  flashc_set_wait_state(1);
80004e9a:	30 1c       	mov	r12,1
80004e9c:	f0 1f 00 0b 	mcall	80004ec8 <sysclk_init+0x8c>
  pm_switch_to_clock(&AVR32_PM, AVR32_PM_MCSEL_PLL0); /* Switch main clock to 64MHz */	
80004ea0:	30 2b       	mov	r11,2
80004ea2:	fe 7c 0c 00 	mov	r12,-62464
80004ea6:	f0 1f 00 0a 	mcall	80004ecc <sysclk_init+0x90>
80004eaa:	2f dd       	sub	sp,-12
}
80004eac:	d8 02       	popm	pc
80004eae:	00 00       	add	r0,r0
80004eb0:	80 00       	ld.sh	r0,r0[0x0]
80004eb2:	2b c4       	sub	r4,-68
80004eb4:	80 00       	ld.sh	r0,r0[0x0]
80004eb6:	2b 66       	sub	r6,-74
80004eb8:	80 00       	ld.sh	r0,r0[0x0]
80004eba:	2b 88       	sub	r8,-72
80004ebc:	80 00       	ld.sh	r0,r0[0x0]
80004ebe:	2b a2       	sub	r2,-70
80004ec0:	80 00       	ld.sh	r0,r0[0x0]
80004ec2:	2b b0       	sub	r0,-69
80004ec4:	80 00       	ld.sh	r0,r0[0x0]
80004ec6:	2b 20       	sub	r0,-78
80004ec8:	80 00       	ld.sh	r0,r0[0x0]
80004eca:	28 40       	sub	r0,-124
80004ecc:	80 00       	ld.sh	r0,r0[0x0]
80004ece:	2b ba       	sub	r10,-69

80004ed0 <main>:
#else
	#include "mainCentre.h"
#endif


int main (void) {
80004ed0:	d4 01       	pushm	lr
	
	#ifdef AVIS_POLITIQUE
		mainGauche();
	#else
		mainCentre();
80004ed2:	f0 1f 00 02 	mcall	80004ed8 <main+0x8>
	#endif
	
}
80004ed6:	d8 0a       	popm	pc,r12=0
80004ed8:	80 00       	ld.sh	r0,r0[0x0]
80004eda:	48 54       	lddpc	r4,80004eec <memcpy+0x10>

80004edc <memcpy>:
80004edc:	58 8a       	cp.w	r10,8
80004ede:	c2 f5       	brlt	80004f3c <memcpy+0x60>
80004ee0:	f9 eb 10 09 	or	r9,r12,r11
80004ee4:	e2 19 00 03 	andl	r9,0x3,COH
80004ee8:	e0 81 00 97 	brne	80005016 <memcpy+0x13a>
80004eec:	e0 4a 00 20 	cp.w	r10,32
80004ef0:	c3 b4       	brge	80004f66 <memcpy+0x8a>
80004ef2:	f4 08 14 02 	asr	r8,r10,0x2
80004ef6:	f0 09 11 08 	rsub	r9,r8,8
80004efa:	fe 09 00 2f 	add	pc,pc,r9<<0x2
80004efe:	76 69       	ld.w	r9,r11[0x18]
80004f00:	99 69       	st.w	r12[0x18],r9
80004f02:	76 59       	ld.w	r9,r11[0x14]
80004f04:	99 59       	st.w	r12[0x14],r9
80004f06:	76 49       	ld.w	r9,r11[0x10]
80004f08:	99 49       	st.w	r12[0x10],r9
80004f0a:	76 39       	ld.w	r9,r11[0xc]
80004f0c:	99 39       	st.w	r12[0xc],r9
80004f0e:	76 29       	ld.w	r9,r11[0x8]
80004f10:	99 29       	st.w	r12[0x8],r9
80004f12:	76 19       	ld.w	r9,r11[0x4]
80004f14:	99 19       	st.w	r12[0x4],r9
80004f16:	76 09       	ld.w	r9,r11[0x0]
80004f18:	99 09       	st.w	r12[0x0],r9
80004f1a:	f6 08 00 2b 	add	r11,r11,r8<<0x2
80004f1e:	f8 08 00 28 	add	r8,r12,r8<<0x2
80004f22:	e0 1a 00 03 	andl	r10,0x3
80004f26:	f4 0a 11 04 	rsub	r10,r10,4
80004f2a:	fe 0a 00 2f 	add	pc,pc,r10<<0x2
80004f2e:	17 a9       	ld.ub	r9,r11[0x2]
80004f30:	b0 a9       	st.b	r8[0x2],r9
80004f32:	17 99       	ld.ub	r9,r11[0x1]
80004f34:	b0 99       	st.b	r8[0x1],r9
80004f36:	17 89       	ld.ub	r9,r11[0x0]
80004f38:	b0 89       	st.b	r8[0x0],r9
80004f3a:	5e fc       	retal	r12
80004f3c:	f4 0a 11 09 	rsub	r10,r10,9
80004f40:	fe 0a 00 2f 	add	pc,pc,r10<<0x2
80004f44:	17 f9       	ld.ub	r9,r11[0x7]
80004f46:	b8 f9       	st.b	r12[0x7],r9
80004f48:	17 e9       	ld.ub	r9,r11[0x6]
80004f4a:	b8 e9       	st.b	r12[0x6],r9
80004f4c:	17 d9       	ld.ub	r9,r11[0x5]
80004f4e:	b8 d9       	st.b	r12[0x5],r9
80004f50:	17 c9       	ld.ub	r9,r11[0x4]
80004f52:	b8 c9       	st.b	r12[0x4],r9
80004f54:	17 b9       	ld.ub	r9,r11[0x3]
80004f56:	b8 b9       	st.b	r12[0x3],r9
80004f58:	17 a9       	ld.ub	r9,r11[0x2]
80004f5a:	b8 a9       	st.b	r12[0x2],r9
80004f5c:	17 99       	ld.ub	r9,r11[0x1]
80004f5e:	b8 99       	st.b	r12[0x1],r9
80004f60:	17 89       	ld.ub	r9,r11[0x0]
80004f62:	b8 89       	st.b	r12[0x0],r9
80004f64:	5e fc       	retal	r12
80004f66:	eb cd 40 c0 	pushm	r6-r7,lr
80004f6a:	18 99       	mov	r9,r12
80004f6c:	22 0a       	sub	r10,32
80004f6e:	b7 07       	ld.d	r6,r11++
80004f70:	b3 26       	st.d	r9++,r6
80004f72:	b7 07       	ld.d	r6,r11++
80004f74:	b3 26       	st.d	r9++,r6
80004f76:	b7 07       	ld.d	r6,r11++
80004f78:	b3 26       	st.d	r9++,r6
80004f7a:	b7 07       	ld.d	r6,r11++
80004f7c:	b3 26       	st.d	r9++,r6
80004f7e:	22 0a       	sub	r10,32
80004f80:	cf 74       	brge	80004f6e <memcpy+0x92>
80004f82:	2f 0a       	sub	r10,-16
80004f84:	c0 65       	brlt	80004f90 <memcpy+0xb4>
80004f86:	b7 07       	ld.d	r6,r11++
80004f88:	b3 26       	st.d	r9++,r6
80004f8a:	b7 07       	ld.d	r6,r11++
80004f8c:	b3 26       	st.d	r9++,r6
80004f8e:	21 0a       	sub	r10,16
80004f90:	5c 3a       	neg	r10
80004f92:	fe 0a 00 3f 	add	pc,pc,r10<<0x3
80004f96:	d7 03       	nop
80004f98:	d7 03       	nop
80004f9a:	f7 36 00 0e 	ld.ub	r6,r11[14]
80004f9e:	f3 66 00 0e 	st.b	r9[14],r6
80004fa2:	f7 36 00 0d 	ld.ub	r6,r11[13]
80004fa6:	f3 66 00 0d 	st.b	r9[13],r6
80004faa:	f7 36 00 0c 	ld.ub	r6,r11[12]
80004fae:	f3 66 00 0c 	st.b	r9[12],r6
80004fb2:	f7 36 00 0b 	ld.ub	r6,r11[11]
80004fb6:	f3 66 00 0b 	st.b	r9[11],r6
80004fba:	f7 36 00 0a 	ld.ub	r6,r11[10]
80004fbe:	f3 66 00 0a 	st.b	r9[10],r6
80004fc2:	f7 36 00 09 	ld.ub	r6,r11[9]
80004fc6:	f3 66 00 09 	st.b	r9[9],r6
80004fca:	f7 36 00 08 	ld.ub	r6,r11[8]
80004fce:	f3 66 00 08 	st.b	r9[8],r6
80004fd2:	f7 36 00 07 	ld.ub	r6,r11[7]
80004fd6:	f3 66 00 07 	st.b	r9[7],r6
80004fda:	f7 36 00 06 	ld.ub	r6,r11[6]
80004fde:	f3 66 00 06 	st.b	r9[6],r6
80004fe2:	f7 36 00 05 	ld.ub	r6,r11[5]
80004fe6:	f3 66 00 05 	st.b	r9[5],r6
80004fea:	f7 36 00 04 	ld.ub	r6,r11[4]
80004fee:	f3 66 00 04 	st.b	r9[4],r6
80004ff2:	f7 36 00 03 	ld.ub	r6,r11[3]
80004ff6:	f3 66 00 03 	st.b	r9[3],r6
80004ffa:	f7 36 00 02 	ld.ub	r6,r11[2]
80004ffe:	f3 66 00 02 	st.b	r9[2],r6
80005002:	f7 36 00 01 	ld.ub	r6,r11[1]
80005006:	f3 66 00 01 	st.b	r9[1],r6
8000500a:	f7 36 00 00 	ld.ub	r6,r11[0]
8000500e:	f3 66 00 00 	st.b	r9[0],r6
80005012:	e3 cd 80 c0 	ldm	sp++,r6-r7,pc
80005016:	20 1a       	sub	r10,1
80005018:	f6 0a 07 09 	ld.ub	r9,r11[r10]
8000501c:	f8 0a 0b 09 	st.b	r12[r10],r9
80005020:	cf b1       	brne	80005016 <memcpy+0x13a>
80005022:	5e fc       	retal	r12

Disassembly of section .exception:

80005200 <_evba>:
_evba:

	.org  0x000
	// Unrecoverable Exception.
_handle_Unrecoverable_Exception:
	rjmp $
80005200:	c0 08       	rjmp	80005200 <_evba>
	...

80005204 <_handle_TLB_Multiple_Hit>:

	.org  0x004
	// TLB Multiple Hit.
_handle_TLB_Multiple_Hit:
	rjmp $
80005204:	c0 08       	rjmp	80005204 <_handle_TLB_Multiple_Hit>
	...

80005208 <_handle_Bus_Error_Data_Fetch>:

	.org  0x008
	// Bus Error Data Fetch.
_handle_Bus_Error_Data_Fetch:
	rjmp $
80005208:	c0 08       	rjmp	80005208 <_handle_Bus_Error_Data_Fetch>
	...

8000520c <_handle_Bus_Error_Instruction_Fetch>:

	.org  0x00C
	// Bus Error Instruction Fetch.
_handle_Bus_Error_Instruction_Fetch:
	rjmp $
8000520c:	c0 08       	rjmp	8000520c <_handle_Bus_Error_Instruction_Fetch>
	...

80005210 <_handle_NMI>:

	.org  0x010
	// NMI.
_handle_NMI:
	rjmp $
80005210:	c0 08       	rjmp	80005210 <_handle_NMI>
	...

80005214 <_handle_Instruction_Address>:

	.org  0x014
	// Instruction Address.
_handle_Instruction_Address:
	rjmp $
80005214:	c0 08       	rjmp	80005214 <_handle_Instruction_Address>
	...

80005218 <_handle_ITLB_Protection>:

	.org  0x018
	// ITLB Protection.
_handle_ITLB_Protection:
	rjmp $
80005218:	c0 08       	rjmp	80005218 <_handle_ITLB_Protection>
	...

8000521c <_handle_Breakpoint>:

	.org  0x01C
	// Breakpoint.
_handle_Breakpoint:
	rjmp $
8000521c:	c0 08       	rjmp	8000521c <_handle_Breakpoint>
	...

80005220 <_handle_Illegal_Opcode>:

	.org  0x020
	// Illegal Opcode.
_handle_Illegal_Opcode:
	rjmp $
80005220:	c0 08       	rjmp	80005220 <_handle_Illegal_Opcode>
	...

80005224 <_handle_Unimplemented_Instruction>:

	.org  0x024
	// Unimplemented Instruction.
_handle_Unimplemented_Instruction:
	rjmp $
80005224:	c0 08       	rjmp	80005224 <_handle_Unimplemented_Instruction>
	...

80005228 <_handle_Privilege_Violation>:

	.org  0x028
	// Privilege Violation.
_handle_Privilege_Violation:
	rjmp $
80005228:	c0 08       	rjmp	80005228 <_handle_Privilege_Violation>
	...

8000522c <_handle_Floating_Point>:

	.org  0x02C
	// Floating-Point: UNUSED IN AVR32UC and AVR32AP.
_handle_Floating_Point:
	rjmp $
8000522c:	c0 08       	rjmp	8000522c <_handle_Floating_Point>
	...

80005230 <_handle_Coprocessor_Absent>:

	.org  0x030
	// Coprocessor Absent: UNUSED IN AVR32UC.
_handle_Coprocessor_Absent:
	rjmp $
80005230:	c0 08       	rjmp	80005230 <_handle_Coprocessor_Absent>
	...

80005234 <_handle_Data_Address_Read>:

	.org  0x034
	// Data Address (Read).
_handle_Data_Address_Read:
	rjmp $
80005234:	c0 08       	rjmp	80005234 <_handle_Data_Address_Read>
	...

80005238 <_handle_Data_Address_Write>:

	.org  0x038
	// Data Address (Write).
_handle_Data_Address_Write:
	rjmp $
80005238:	c0 08       	rjmp	80005238 <_handle_Data_Address_Write>
	...

8000523c <_handle_DTLB_Protection_Read>:

	.org  0x03C
	// DTLB Protection (Read).
_handle_DTLB_Protection_Read:
	rjmp $
8000523c:	c0 08       	rjmp	8000523c <_handle_DTLB_Protection_Read>
	...

80005240 <_handle_DTLB_Protection_Write>:

	.org  0x040
	// DTLB Protection (Write).
_handle_DTLB_Protection_Write:
	rjmp $
80005240:	c0 08       	rjmp	80005240 <_handle_DTLB_Protection_Write>
	...

80005244 <_handle_DTLB_Modified>:

	.org  0x044
	// DTLB Modified: UNUSED IN AVR32UC.
_handle_DTLB_Modified:
	rjmp $
80005244:	c0 08       	rjmp	80005244 <_handle_DTLB_Modified>
	...

80005250 <_handle_ITLB_Miss>:

	.org  0x050
	// ITLB Miss.
_handle_ITLB_Miss:
	rjmp $
80005250:	c0 08       	rjmp	80005250 <_handle_ITLB_Miss>
	...

80005260 <_handle_DTLB_Miss_Read>:

	.org  0x060
	// DTLB Miss (Read).
_handle_DTLB_Miss_Read:
	rjmp $
80005260:	c0 08       	rjmp	80005260 <_handle_DTLB_Miss_Read>
	...

80005270 <_handle_DTLB_Miss_Write>:

	.org  0x070
	// DTLB Miss (Write).
_handle_DTLB_Miss_Write:
	rjmp $
80005270:	c0 08       	rjmp	80005270 <_handle_DTLB_Miss_Write>
	...

80005300 <_handle_Supervisor_Call>:

	.org  0x100
	// Supervisor Call.
_handle_Supervisor_Call:
	rjmp $
80005300:	c0 08       	rjmp	80005300 <_handle_Supervisor_Call>
80005302:	d7 03       	nop

80005304 <_int0>:
	 * RSR_INTx by the CPU upon interrupt entry. No other register is saved
	 * by hardware.
	 */
	pushm   r8-r12, lr
#endif
	// Pass the int_level parameter to the _get_interrupt_handler function.
80005304:	30 0c       	mov	r12,0
80005306:	fe b0 eb b1 	rcall	80002a68 <_get_interrupt_handler>
8000530a:	58 0c       	cp.w	r12,0
8000530c:	f8 0f 17 10 	movne	pc,r12
	popm    r8-r12, lr
#endif
	/*
	 * If this was a spurious interrupt (R12 == NULL), return from event
	 * handler.
	 */
80005310:	d6 03       	rete

80005312 <_int1>:
	 * RSR_INTx by the CPU upon interrupt entry. No other register is saved
	 * by hardware.
	 */
	pushm   r8-r12, lr
#endif
	// Pass the int_level parameter to the _get_interrupt_handler function.
80005312:	30 1c       	mov	r12,1
80005314:	fe b0 eb aa 	rcall	80002a68 <_get_interrupt_handler>
80005318:	58 0c       	cp.w	r12,0
8000531a:	f8 0f 17 10 	movne	pc,r12
	popm    r8-r12, lr
#endif
	/*
	 * If this was a spurious interrupt (R12 == NULL), return from event
	 * handler.
	 */
8000531e:	d6 03       	rete

80005320 <_int2>:
	 * RSR_INTx by the CPU upon interrupt entry. No other register is saved
	 * by hardware.
	 */
	pushm   r8-r12, lr
#endif
	// Pass the int_level parameter to the _get_interrupt_handler function.
80005320:	30 2c       	mov	r12,2
80005322:	fe b0 eb a3 	rcall	80002a68 <_get_interrupt_handler>
80005326:	58 0c       	cp.w	r12,0
80005328:	f8 0f 17 10 	movne	pc,r12
	popm    r8-r12, lr
#endif
	/*
	 * If this was a spurious interrupt (R12 == NULL), return from event
	 * handler.
	 */
8000532c:	d6 03       	rete

8000532e <_int3>:
	 * RSR_INTx by the CPU upon interrupt entry. No other register is saved
	 * by hardware.
	 */
	pushm   r8-r12, lr
#endif
	// Pass the int_level parameter to the _get_interrupt_handler function.
8000532e:	30 3c       	mov	r12,3
80005330:	fe b0 eb 9c 	rcall	80002a68 <_get_interrupt_handler>
80005334:	58 0c       	cp.w	r12,0
80005336:	f8 0f 17 10 	movne	pc,r12
	popm    r8-r12, lr
#endif
	/*
	 * If this was a spurious interrupt (R12 == NULL), return from event
	 * handler.
	 */
8000533a:	d6 03       	rete
8000533c:	d7 03       	nop
8000533e:	d7 03       	nop
80005340:	d7 03       	nop
80005342:	d7 03       	nop
80005344:	d7 03       	nop
80005346:	d7 03       	nop
80005348:	d7 03       	nop
8000534a:	d7 03       	nop
8000534c:	d7 03       	nop
8000534e:	d7 03       	nop
80005350:	d7 03       	nop
80005352:	d7 03       	nop
80005354:	d7 03       	nop
80005356:	d7 03       	nop
80005358:	d7 03       	nop
8000535a:	d7 03       	nop
8000535c:	d7 03       	nop
8000535e:	d7 03       	nop
80005360:	d7 03       	nop
80005362:	d7 03       	nop
80005364:	d7 03       	nop
80005366:	d7 03       	nop
80005368:	d7 03       	nop
8000536a:	d7 03       	nop
8000536c:	d7 03       	nop
8000536e:	d7 03       	nop
80005370:	d7 03       	nop
80005372:	d7 03       	nop
80005374:	d7 03       	nop
80005376:	d7 03       	nop
80005378:	d7 03       	nop
8000537a:	d7 03       	nop
8000537c:	d7 03       	nop
8000537e:	d7 03       	nop
80005380:	d7 03       	nop
80005382:	d7 03       	nop
80005384:	d7 03       	nop
80005386:	d7 03       	nop
80005388:	d7 03       	nop
8000538a:	d7 03       	nop
8000538c:	d7 03       	nop
8000538e:	d7 03       	nop
80005390:	d7 03       	nop
80005392:	d7 03       	nop
80005394:	d7 03       	nop
80005396:	d7 03       	nop
80005398:	d7 03       	nop
8000539a:	d7 03       	nop
8000539c:	d7 03       	nop
8000539e:	d7 03       	nop
800053a0:	d7 03       	nop
800053a2:	d7 03       	nop
800053a4:	d7 03       	nop
800053a6:	d7 03       	nop
800053a8:	d7 03       	nop
800053aa:	d7 03       	nop
800053ac:	d7 03       	nop
800053ae:	d7 03       	nop
800053b0:	d7 03       	nop
800053b2:	d7 03       	nop
800053b4:	d7 03       	nop
800053b6:	d7 03       	nop
800053b8:	d7 03       	nop
800053ba:	d7 03       	nop
800053bc:	d7 03       	nop
800053be:	d7 03       	nop
800053c0:	d7 03       	nop
800053c2:	d7 03       	nop
800053c4:	d7 03       	nop
800053c6:	d7 03       	nop
800053c8:	d7 03       	nop
800053ca:	d7 03       	nop
800053cc:	d7 03       	nop
800053ce:	d7 03       	nop
800053d0:	d7 03       	nop
800053d2:	d7 03       	nop
800053d4:	d7 03       	nop
800053d6:	d7 03       	nop
800053d8:	d7 03       	nop
800053da:	d7 03       	nop
800053dc:	d7 03       	nop
800053de:	d7 03       	nop
800053e0:	d7 03       	nop
800053e2:	d7 03       	nop
800053e4:	d7 03       	nop
800053e6:	d7 03       	nop
800053e8:	d7 03       	nop
800053ea:	d7 03       	nop
800053ec:	d7 03       	nop
800053ee:	d7 03       	nop
800053f0:	d7 03       	nop
800053f2:	d7 03       	nop
800053f4:	d7 03       	nop
800053f6:	d7 03       	nop
800053f8:	d7 03       	nop
800053fa:	d7 03       	nop
800053fc:	d7 03       	nop
800053fe:	d7 03       	nop
